   1              	 .cpu cortex-m0
   2              	 .fpu softvfp
   3              	 .eabi_attribute 20,1
   4              	 .eabi_attribute 21,1
   5              	 .eabi_attribute 23,3
   6              	 .eabi_attribute 24,1
   7              	 .eabi_attribute 25,1
   8              	 .eabi_attribute 26,1
   9              	 .eabi_attribute 30,2
  10              	 .eabi_attribute 34,0
  11              	 .eabi_attribute 18,4
  12              	 .code 16
  13              	 .file "uart_conf.c"
  14              	 .text
  15              	.Ltext0:
  16              	 .cfi_sections .debug_frame
  17              	 .section .text.UART_0_init,"ax",%progbits
  18              	 .align 2
  19              	 .global UART_0_init
  20              	 .code 16
  21              	 .thumb_func
  23              	UART_0_init:
  24              	.LFB152:
  25              	 .file 1 "../Dave/Generated/UART/uart_conf.c"
   1:../Dave/Generated/UART/uart_conf.c **** /**************************************************************************************************
   2:../Dave/Generated/UART/uart_conf.c **** * DAVE APP Name : UART       APP Version: 4.1.8
   3:../Dave/Generated/UART/uart_conf.c **** *
   4:../Dave/Generated/UART/uart_conf.c **** * NOTE:
   5:../Dave/Generated/UART/uart_conf.c **** * This file is generated by DAVE. Any manual modification done to this file will be lost when the c
   6:../Dave/Generated/UART/uart_conf.c **** ***************************************************************************************************
   7:../Dave/Generated/UART/uart_conf.c **** 
   8:../Dave/Generated/UART/uart_conf.c **** /**
   9:../Dave/Generated/UART/uart_conf.c ****  * @cond
  10:../Dave/Generated/UART/uart_conf.c ****  **************************************************************************************************
  11:../Dave/Generated/UART/uart_conf.c ****  *
  12:../Dave/Generated/UART/uart_conf.c ****  * Copyright (C) 2015-2019 Infineon Technologies AG
  13:../Dave/Generated/UART/uart_conf.c ****  * All rights reserved.
  14:../Dave/Generated/UART/uart_conf.c ****  *
  15:../Dave/Generated/UART/uart_conf.c ****  * Redistribution and use in source and binary forms, with or without modification,are permitted pr
  16:../Dave/Generated/UART/uart_conf.c ****  * following conditions are met:
  17:../Dave/Generated/UART/uart_conf.c ****  *
  18:../Dave/Generated/UART/uart_conf.c ****  *   Redistributions of source code must retain the above copyright notice, this list of conditions
  19:../Dave/Generated/UART/uart_conf.c ****  *   disclaimer.
  20:../Dave/Generated/UART/uart_conf.c ****  *
  21:../Dave/Generated/UART/uart_conf.c ****  *   Redistributions in binary form must reproduce the above copyright notice, this list of conditi
  22:../Dave/Generated/UART/uart_conf.c ****  *   following disclaimer in the documentation and/or other materials provided with the distributio
  23:../Dave/Generated/UART/uart_conf.c ****  *
  24:../Dave/Generated/UART/uart_conf.c ****  *   Neither the name of the copyright holders nor the names of its contributors may be used to end
  25:../Dave/Generated/UART/uart_conf.c ****  *   products derived from this software without specific prior written permission.
  26:../Dave/Generated/UART/uart_conf.c ****  *
  27:../Dave/Generated/UART/uart_conf.c ****  * THIS SOFTWARE IS PROVIDED BY THE COPYRIGHT HOLDERS AND CONTRIBUTORS "AS IS" AND ANY EXPRESS OR I
  28:../Dave/Generated/UART/uart_conf.c ****  * INCLUDING, BUT NOT LIMITED TO, THE IMPLIED WARRANTIES OF MERCHANTABILITY AND FITNESS FOR A PARTI
  29:../Dave/Generated/UART/uart_conf.c ****  * DISCLAIMED. IN NO EVENT SHALL THE COPYRIGHT HOLDER OR CONTRIBUTORS BE LIABLE  FOR ANY DIRECT, IN
  30:../Dave/Generated/UART/uart_conf.c ****  * SPECIAL, EXEMPLARY, OR CONSEQUENTIAL DAMAGES (INCLUDING, BUT NOT LIMITED TO, PROCUREMENT OF SUBS
  31:../Dave/Generated/UART/uart_conf.c ****  * SERVICES; LOSS OF USE, DATA, OR PROFITS; OR BUSINESS INTERRUPTION) HOWEVER CAUSED AND ON ANY THE
  32:../Dave/Generated/UART/uart_conf.c ****  * WHETHER IN CONTRACT, STRICT LIABILITY,OR TORT (INCLUDING NEGLIGENCE OR OTHERWISE) ARISING IN ANY
  33:../Dave/Generated/UART/uart_conf.c ****  * USE OF THIS SOFTWARE, EVEN IF ADVISED OF THE POSSIBILITY OF SUCH DAMAGE.
  34:../Dave/Generated/UART/uart_conf.c ****  *
  35:../Dave/Generated/UART/uart_conf.c ****  * To improve the quality of the software, users are encouraged to share modifications, enhancement
  36:../Dave/Generated/UART/uart_conf.c ****  * with Infineon Technologies AG (dave@infineon.com).
  37:../Dave/Generated/UART/uart_conf.c ****  **************************************************************************************************
  38:../Dave/Generated/UART/uart_conf.c ****  *
  39:../Dave/Generated/UART/uart_conf.c ****  * Change History
  40:../Dave/Generated/UART/uart_conf.c ****  * --------------
  41:../Dave/Generated/UART/uart_conf.c ****  *
  42:../Dave/Generated/UART/uart_conf.c ****  * 2015-02-16:
  43:../Dave/Generated/UART/uart_conf.c ****  *     - Initial version for DAVEv4.
  44:../Dave/Generated/UART/uart_conf.c ****  *
  45:../Dave/Generated/UART/uart_conf.c ****  * 2015-06-20:
  46:../Dave/Generated/UART/uart_conf.c ****  *     - Service request value moved from runtime structure to config structure.
  47:../Dave/Generated/UART/uart_conf.c ****  *
  48:../Dave/Generated/UART/uart_conf.c ****  * 2015-07-06:
  49:../Dave/Generated/UART/uart_conf.c ****  *     - Structure name changed from UART_DYNAMIC_t to UART_RUNTIME_t
  50:../Dave/Generated/UART/uart_conf.c ****  *
  51:../Dave/Generated/UART/uart_conf.c ****  * 2015-07-30:
  52:../Dave/Generated/UART/uart_conf.c ****  *     - Added DMA and Direct mode configuration
  53:../Dave/Generated/UART/uart_conf.c ****  * @endcond
  54:../Dave/Generated/UART/uart_conf.c ****  *
  55:../Dave/Generated/UART/uart_conf.c ****  */
  56:../Dave/Generated/UART/uart_conf.c **** /**************************************************************************************************
  57:../Dave/Generated/UART/uart_conf.c ****  * HEADER FILES
  58:../Dave/Generated/UART/uart_conf.c ****  **************************************************************************************************
  59:../Dave/Generated/UART/uart_conf.c **** #include "uart.h"
  60:../Dave/Generated/UART/uart_conf.c **** 
  61:../Dave/Generated/UART/uart_conf.c **** /**************************************************************************************************
  62:../Dave/Generated/UART/uart_conf.c ****  * EXTERN DECLARATIONS
  63:../Dave/Generated/UART/uart_conf.c ****  **************************************************************************************************
  64:../Dave/Generated/UART/uart_conf.c **** 
  65:../Dave/Generated/UART/uart_conf.c **** /*
  66:../Dave/Generated/UART/uart_conf.c ****  * Function implements the data transmission. It is called from the transmit interrupt service hand
  67:../Dave/Generated/UART/uart_conf.c ****  * Function pushes data to the output block and releases control. It is called again when the previ
  68:../Dave/Generated/UART/uart_conf.c ****  * transmitted. When transmit FIFO is used, the function sets the trigger limit based on the size o
  69:../Dave/Generated/UART/uart_conf.c ****  * transmitted.
  70:../Dave/Generated/UART/uart_conf.c ****  */
  71:../Dave/Generated/UART/uart_conf.c **** extern void UART_lTransmitHandler(const UART_t * const handle);
  72:../Dave/Generated/UART/uart_conf.c **** /*
  73:../Dave/Generated/UART/uart_conf.c ****  * Function implements the data reception. It is called from the receive interrupt service handler.
  74:../Dave/Generated/UART/uart_conf.c ****  * Function reads data from the receive block and updates the user's buffer. It is called again whe
  75:../Dave/Generated/UART/uart_conf.c ****  * received again. When receive FIFO is used, the function sets the trigger limit based on the size
  76:../Dave/Generated/UART/uart_conf.c ****  * received.
  77:../Dave/Generated/UART/uart_conf.c ****  */
  78:../Dave/Generated/UART/uart_conf.c **** extern void UART_lReceiveHandler(const UART_t * const handle);
  79:../Dave/Generated/UART/uart_conf.c **** /*
  80:../Dave/Generated/UART/uart_conf.c ****  * Function monitors the configured protocol interrupt flags. It is called from the protocol interr
  81:../Dave/Generated/UART/uart_conf.c ****  * service handler.
  82:../Dave/Generated/UART/uart_conf.c ****  * Function reads the status of the USIC channel and checks for configured flags in the APP UI.
  83:../Dave/Generated/UART/uart_conf.c ****  * If any callback function is provided in the APP UI, it will be called when the selected flag is 
  84:../Dave/Generated/UART/uart_conf.c ****  */
  85:../Dave/Generated/UART/uart_conf.c **** extern void UART_lProtocolHandler(const UART_t * const handle);
  86:../Dave/Generated/UART/uart_conf.c **** 
  87:../Dave/Generated/UART/uart_conf.c **** 
  88:../Dave/Generated/UART/uart_conf.c **** /**************************************************************************************************
  89:../Dave/Generated/UART/uart_conf.c ****  * DATA STRUCTURES
  90:../Dave/Generated/UART/uart_conf.c ****  **************************************************************************************************
  91:../Dave/Generated/UART/uart_conf.c **** UART_STATUS_t UART_0_init(void);
  92:../Dave/Generated/UART/uart_conf.c **** 
  93:../Dave/Generated/UART/uart_conf.c **** /*USIC channel configuration*/
  94:../Dave/Generated/UART/uart_conf.c **** const XMC_UART_CH_CONFIG_t UART_0_channel_config =
  95:../Dave/Generated/UART/uart_conf.c **** {
  96:../Dave/Generated/UART/uart_conf.c ****   .baudrate      = 128000U,
  97:../Dave/Generated/UART/uart_conf.c ****   .data_bits     = 8U,
  98:../Dave/Generated/UART/uart_conf.c ****   .frame_length  = 8U,
  99:../Dave/Generated/UART/uart_conf.c ****   .stop_bits     = 1U,
 100:../Dave/Generated/UART/uart_conf.c ****   .oversampling  = 16U,
 101:../Dave/Generated/UART/uart_conf.c ****   .parity_mode   = XMC_USIC_CH_PARITY_MODE_NONE
 102:../Dave/Generated/UART/uart_conf.c **** };
 103:../Dave/Generated/UART/uart_conf.c **** /*Transmit pin configuration*/
 104:../Dave/Generated/UART/uart_conf.c **** const XMC_GPIO_CONFIG_t UART_0_tx_pin_config   = 
 105:../Dave/Generated/UART/uart_conf.c **** { 
 106:../Dave/Generated/UART/uart_conf.c ****   .mode             = XMC_GPIO_MODE_OUTPUT_PUSH_PULL_ALT6, 
 107:../Dave/Generated/UART/uart_conf.c ****   .output_level     = XMC_GPIO_OUTPUT_LEVEL_HIGH
 108:../Dave/Generated/UART/uart_conf.c **** };
 109:../Dave/Generated/UART/uart_conf.c **** 
 110:../Dave/Generated/UART/uart_conf.c **** /*Transmit pin configuration used for initializing*/
 111:../Dave/Generated/UART/uart_conf.c **** const UART_TX_CONFIG_t UART_0_tx_pin = 
 112:../Dave/Generated/UART/uart_conf.c **** {
 113:../Dave/Generated/UART/uart_conf.c ****   .port = (XMC_GPIO_PORT_t *)PORT2_BASE,
 114:../Dave/Generated/UART/uart_conf.c ****   .config = &UART_0_tx_pin_config,
 115:../Dave/Generated/UART/uart_conf.c ****   .pin = 0U
 116:../Dave/Generated/UART/uart_conf.c **** };
 117:../Dave/Generated/UART/uart_conf.c **** 
 118:../Dave/Generated/UART/uart_conf.c **** /*UART APP configuration structure*/
 119:../Dave/Generated/UART/uart_conf.c **** const UART_CONFIG_t UART_0_config = 
 120:../Dave/Generated/UART/uart_conf.c **** {
 121:../Dave/Generated/UART/uart_conf.c ****   .channel_config   = &UART_0_channel_config,
 122:../Dave/Generated/UART/uart_conf.c **** 
 123:../Dave/Generated/UART/uart_conf.c **** 
 124:../Dave/Generated/UART/uart_conf.c ****   .fptr_uart_config = UART_0_init,
 125:../Dave/Generated/UART/uart_conf.c ****   .tx_cbhandler = NULL,
 126:../Dave/Generated/UART/uart_conf.c ****   .rx_cbhandler = NULL,  
 127:../Dave/Generated/UART/uart_conf.c ****   .sync_error_cbhandler = NULL,  
 128:../Dave/Generated/UART/uart_conf.c ****   .rx_noise_error_cbhandler = NULL,  
 129:../Dave/Generated/UART/uart_conf.c ****   .format_error_bit0_cbhandler = NULL,  
 130:../Dave/Generated/UART/uart_conf.c ****   .format_error_bit1_cbhandler = NULL,  
 131:../Dave/Generated/UART/uart_conf.c ****   .collision_error_cbhandler = NULL,
 132:../Dave/Generated/UART/uart_conf.c ****   .tx_pin_config    = &UART_0_tx_pin,
 133:../Dave/Generated/UART/uart_conf.c ****   .mode             = UART_MODE_FULLDUPLEX,
 134:../Dave/Generated/UART/uart_conf.c ****   .transmit_mode = UART_TRANSFER_MODE_INTERRUPT,
 135:../Dave/Generated/UART/uart_conf.c ****   .receive_mode = UART_TRANSFER_MODE_INTERRUPT,
 136:../Dave/Generated/UART/uart_conf.c ****   .tx_fifo_size     = XMC_USIC_CH_FIFO_SIZE_16WORDS,
 137:../Dave/Generated/UART/uart_conf.c ****   .rx_fifo_size     = XMC_USIC_CH_FIFO_SIZE_16WORDS,
 138:../Dave/Generated/UART/uart_conf.c ****   .tx_sr   = 0x2U,
 139:../Dave/Generated/UART/uart_conf.c **** };
 140:../Dave/Generated/UART/uart_conf.c **** 
 141:../Dave/Generated/UART/uart_conf.c **** /*Runtime handler*/
 142:../Dave/Generated/UART/uart_conf.c **** UART_RUNTIME_t UART_0_runtime = 
 143:../Dave/Generated/UART/uart_conf.c **** {
 144:../Dave/Generated/UART/uart_conf.c ****   .tx_busy = false,  
 145:../Dave/Generated/UART/uart_conf.c ****   .rx_busy = false,
 146:../Dave/Generated/UART/uart_conf.c **** };
 147:../Dave/Generated/UART/uart_conf.c **** 
 148:../Dave/Generated/UART/uart_conf.c **** /*APP handle structure*/
 149:../Dave/Generated/UART/uart_conf.c **** UART_t UART_0 = 
 150:../Dave/Generated/UART/uart_conf.c **** {
 151:../Dave/Generated/UART/uart_conf.c ****   .channel = XMC_UART0_CH0,
 152:../Dave/Generated/UART/uart_conf.c ****   .config  = &UART_0_config,
 153:../Dave/Generated/UART/uart_conf.c ****   .runtime = &UART_0_runtime
 154:../Dave/Generated/UART/uart_conf.c **** };
 155:../Dave/Generated/UART/uart_conf.c **** 
 156:../Dave/Generated/UART/uart_conf.c **** /*Receive pin configuration*/
 157:../Dave/Generated/UART/uart_conf.c **** const XMC_GPIO_CONFIG_t UART_0_rx_pin_config   = {
 158:../Dave/Generated/UART/uart_conf.c ****   .mode             = XMC_GPIO_MODE_INPUT_TRISTATE,
 159:../Dave/Generated/UART/uart_conf.c ****   .output_level     = XMC_GPIO_OUTPUT_LEVEL_HIGH,
 160:../Dave/Generated/UART/uart_conf.c ****   .input_hysteresis = XMC_GPIO_INPUT_HYSTERESIS_STANDARD
 161:../Dave/Generated/UART/uart_conf.c **** };
 162:../Dave/Generated/UART/uart_conf.c **** /**************************************************************************************************
 163:../Dave/Generated/UART/uart_conf.c ****  * API IMPLEMENTATION
 164:../Dave/Generated/UART/uart_conf.c ****  **************************************************************************************************
 165:../Dave/Generated/UART/uart_conf.c **** /*Channel initialization function*/
 166:../Dave/Generated/UART/uart_conf.c **** UART_STATUS_t UART_0_init()
 167:../Dave/Generated/UART/uart_conf.c **** {
  26              	 .loc 1 167 0
  27              	 .cfi_startproc
  28              	.LVL0:
  29 0000 38B5     	 push {r3,r4,r5,lr}
  30              	.LCFI0:
  31              	 .cfi_def_cfa_offset 16
  32              	 .cfi_offset 3,-16
  33              	 .cfi_offset 4,-12
  34              	 .cfi_offset 5,-8
  35              	 .cfi_offset 14,-4
 168:../Dave/Generated/UART/uart_conf.c ****   UART_STATUS_t status = UART_STATUS_SUCCESS;
 169:../Dave/Generated/UART/uart_conf.c ****   /*Configure Receive pin*/
 170:../Dave/Generated/UART/uart_conf.c ****   XMC_GPIO_Init((XMC_GPIO_PORT_t *)PORT2_BASE, 6U, &UART_0_rx_pin_config);
 171:../Dave/Generated/UART/uart_conf.c ****   /* Initialize USIC channel in UART mode*/
 172:../Dave/Generated/UART/uart_conf.c ****   XMC_UART_CH_Init(XMC_UART0_CH0, &UART_0_channel_config);
  36              	 .loc 1 172 0
  37 0002 9024     	 mov r4,#144
 170:../Dave/Generated/UART/uart_conf.c ****   /* Initialize USIC channel in UART mode*/
  38              	 .loc 1 170 0
  39 0004 2E4D     	 ldr r5,.L2
  40              	 .loc 1 172 0
  41 0006 E405     	 lsl r4,r4,#23
 170:../Dave/Generated/UART/uart_conf.c ****   /* Initialize USIC channel in UART mode*/
  42              	 .loc 1 170 0
  43 0008 281C     	 mov r0,r5
  44 000a 2E4A     	 ldr r2,.L2+4
  45 000c 0621     	 mov r1,#6
  46 000e FFF7FEFF 	 bl XMC_GPIO_Init
  47              	.LVL1:
  48              	 .loc 1 172 0
  49 0012 201C     	 mov r0,r4
  50 0014 2C49     	 ldr r1,.L2+8
  51 0016 FFF7FEFF 	 bl XMC_UART_CH_Init
  52              	.LVL2:
  53              	.LBB34:
  54              	.LBB35:
  55              	 .file 2 "C:/Users/\261\350\260\346\271\316/Desktop/IFX_S2GL-HW-SW_V1.1.3/Firmware_Software/DAVE project/S2GL_Doppler/Libraries/XMCLib/inc/xmc_usic.h"
   1:C:/Users/±è°æ¹Î/Desktop/IFX_S2GL-HW-SW_V1.1.3/Firmware_Software/DAVE project/S2GL_Doppler/Libraries/XMCLib/inc\xmc_usic.h **** /**
   2:C:/Users/±è°æ¹Î/Desktop/IFX_S2GL-HW-SW_V1.1.3/Firmware_Software/DAVE project/S2GL_Doppler/Libraries/XMCLib/inc\xmc_usic.h ****  * @file xmc_usic.h
   3:C:/Users/±è°æ¹Î/Desktop/IFX_S2GL-HW-SW_V1.1.3/Firmware_Software/DAVE project/S2GL_Doppler/Libraries/XMCLib/inc\xmc_usic.h ****  * @date 2016-04-10
   4:C:/Users/±è°æ¹Î/Desktop/IFX_S2GL-HW-SW_V1.1.3/Firmware_Software/DAVE project/S2GL_Doppler/Libraries/XMCLib/inc\xmc_usic.h ****  *
   5:C:/Users/±è°æ¹Î/Desktop/IFX_S2GL-HW-SW_V1.1.3/Firmware_Software/DAVE project/S2GL_Doppler/Libraries/XMCLib/inc\xmc_usic.h ****  * @cond
   6:C:/Users/±è°æ¹Î/Desktop/IFX_S2GL-HW-SW_V1.1.3/Firmware_Software/DAVE project/S2GL_Doppler/Libraries/XMCLib/inc\xmc_usic.h ****   *************************************************************************************************
   7:C:/Users/±è°æ¹Î/Desktop/IFX_S2GL-HW-SW_V1.1.3/Firmware_Software/DAVE project/S2GL_Doppler/Libraries/XMCLib/inc\xmc_usic.h ****  * XMClib v2.1.6 - XMC Peripheral Driver Library 
   8:C:/Users/±è°æ¹Î/Desktop/IFX_S2GL-HW-SW_V1.1.3/Firmware_Software/DAVE project/S2GL_Doppler/Libraries/XMCLib/inc\xmc_usic.h ****  *
   9:C:/Users/±è°æ¹Î/Desktop/IFX_S2GL-HW-SW_V1.1.3/Firmware_Software/DAVE project/S2GL_Doppler/Libraries/XMCLib/inc\xmc_usic.h ****  * Copyright (C) 2015-2019 Infineon Technologies AG
  10:C:/Users/±è°æ¹Î/Desktop/IFX_S2GL-HW-SW_V1.1.3/Firmware_Software/DAVE project/S2GL_Doppler/Libraries/XMCLib/inc\xmc_usic.h ****  * All rights reserved.                        
  11:C:/Users/±è°æ¹Î/Desktop/IFX_S2GL-HW-SW_V1.1.3/Firmware_Software/DAVE project/S2GL_Doppler/Libraries/XMCLib/inc\xmc_usic.h ****  *                                             
  12:C:/Users/±è°æ¹Î/Desktop/IFX_S2GL-HW-SW_V1.1.3/Firmware_Software/DAVE project/S2GL_Doppler/Libraries/XMCLib/inc\xmc_usic.h ****  * Redistribution and use in source and binary forms, with or without modification,are permitted pr
  13:C:/Users/±è°æ¹Î/Desktop/IFX_S2GL-HW-SW_V1.1.3/Firmware_Software/DAVE project/S2GL_Doppler/Libraries/XMCLib/inc\xmc_usic.h ****  * following conditions are met:   
  14:C:/Users/±è°æ¹Î/Desktop/IFX_S2GL-HW-SW_V1.1.3/Firmware_Software/DAVE project/S2GL_Doppler/Libraries/XMCLib/inc\xmc_usic.h ****  *                                                                              
  15:C:/Users/±è°æ¹Î/Desktop/IFX_S2GL-HW-SW_V1.1.3/Firmware_Software/DAVE project/S2GL_Doppler/Libraries/XMCLib/inc\xmc_usic.h ****  * Redistributions of source code must retain the above copyright notice, this list of conditions a
  16:C:/Users/±è°æ¹Î/Desktop/IFX_S2GL-HW-SW_V1.1.3/Firmware_Software/DAVE project/S2GL_Doppler/Libraries/XMCLib/inc\xmc_usic.h ****  * disclaimer.                        
  17:C:/Users/±è°æ¹Î/Desktop/IFX_S2GL-HW-SW_V1.1.3/Firmware_Software/DAVE project/S2GL_Doppler/Libraries/XMCLib/inc\xmc_usic.h ****  * 
  18:C:/Users/±è°æ¹Î/Desktop/IFX_S2GL-HW-SW_V1.1.3/Firmware_Software/DAVE project/S2GL_Doppler/Libraries/XMCLib/inc\xmc_usic.h ****  * Redistributions in binary form must reproduce the above copyright notice, this list of condition
  19:C:/Users/±è°æ¹Î/Desktop/IFX_S2GL-HW-SW_V1.1.3/Firmware_Software/DAVE project/S2GL_Doppler/Libraries/XMCLib/inc\xmc_usic.h ****  * disclaimer in the documentation and/or other materials provided with the distribution.          
  20:C:/Users/±è°æ¹Î/Desktop/IFX_S2GL-HW-SW_V1.1.3/Firmware_Software/DAVE project/S2GL_Doppler/Libraries/XMCLib/inc\xmc_usic.h ****  * 
  21:C:/Users/±è°æ¹Î/Desktop/IFX_S2GL-HW-SW_V1.1.3/Firmware_Software/DAVE project/S2GL_Doppler/Libraries/XMCLib/inc\xmc_usic.h ****  * Neither the name of the copyright holders nor the names of its contributors may be used to endor
  22:C:/Users/±è°æ¹Î/Desktop/IFX_S2GL-HW-SW_V1.1.3/Firmware_Software/DAVE project/S2GL_Doppler/Libraries/XMCLib/inc\xmc_usic.h ****  * products derived from this software without specific prior written permission.                  
  23:C:/Users/±è°æ¹Î/Desktop/IFX_S2GL-HW-SW_V1.1.3/Firmware_Software/DAVE project/S2GL_Doppler/Libraries/XMCLib/inc\xmc_usic.h ****  *                                                                              
  24:C:/Users/±è°æ¹Î/Desktop/IFX_S2GL-HW-SW_V1.1.3/Firmware_Software/DAVE project/S2GL_Doppler/Libraries/XMCLib/inc\xmc_usic.h ****  * THIS SOFTWARE IS PROVIDED BY THE COPYRIGHT HOLDERS AND CONTRIBUTORS "AS IS" AND ANY EXPRESS OR I
  25:C:/Users/±è°æ¹Î/Desktop/IFX_S2GL-HW-SW_V1.1.3/Firmware_Software/DAVE project/S2GL_Doppler/Libraries/XMCLib/inc\xmc_usic.h ****  * INCLUDING, BUT NOT LIMITED TO, THE IMPLIED WARRANTIES OF MERCHANTABILITY AND FITNESS FOR A PARTI
  26:C:/Users/±è°æ¹Î/Desktop/IFX_S2GL-HW-SW_V1.1.3/Firmware_Software/DAVE project/S2GL_Doppler/Libraries/XMCLib/inc\xmc_usic.h ****  * DISCLAIMED. IN NO EVENT SHALL THE COPYRIGHT HOLDER OR CONTRIBUTORS BE LIABLE  FOR ANY DIRECT, IN
  27:C:/Users/±è°æ¹Î/Desktop/IFX_S2GL-HW-SW_V1.1.3/Firmware_Software/DAVE project/S2GL_Doppler/Libraries/XMCLib/inc\xmc_usic.h ****  * SPECIAL, EXEMPLARY, OR CONSEQUENTIAL DAMAGES (INCLUDING, BUT NOT LIMITED TO, PROCUREMENT OF SUBS
  28:C:/Users/±è°æ¹Î/Desktop/IFX_S2GL-HW-SW_V1.1.3/Firmware_Software/DAVE project/S2GL_Doppler/Libraries/XMCLib/inc\xmc_usic.h ****  * SERVICES; LOSS OF USE, DATA, OR PROFITS; OR BUSINESS INTERRUPTION) HOWEVER CAUSED AND ON ANY THE
  29:C:/Users/±è°æ¹Î/Desktop/IFX_S2GL-HW-SW_V1.1.3/Firmware_Software/DAVE project/S2GL_Doppler/Libraries/XMCLib/inc\xmc_usic.h ****  * WHETHER IN CONTRACT, STRICT LIABILITY,OR TORT (INCLUDING NEGLIGENCE OR OTHERWISE) ARISING IN ANY
  30:C:/Users/±è°æ¹Î/Desktop/IFX_S2GL-HW-SW_V1.1.3/Firmware_Software/DAVE project/S2GL_Doppler/Libraries/XMCLib/inc\xmc_usic.h ****  * OF THIS SOFTWARE, EVEN IF ADVISED OF THE POSSIBILITY OF SUCH DAMAGE.                            
  31:C:/Users/±è°æ¹Î/Desktop/IFX_S2GL-HW-SW_V1.1.3/Firmware_Software/DAVE project/S2GL_Doppler/Libraries/XMCLib/inc\xmc_usic.h ****  *                                                                              
  32:C:/Users/±è°æ¹Î/Desktop/IFX_S2GL-HW-SW_V1.1.3/Firmware_Software/DAVE project/S2GL_Doppler/Libraries/XMCLib/inc\xmc_usic.h ****  * To improve the quality of the software, users are encouraged to share modifications, enhancement
  33:C:/Users/±è°æ¹Î/Desktop/IFX_S2GL-HW-SW_V1.1.3/Firmware_Software/DAVE project/S2GL_Doppler/Libraries/XMCLib/inc\xmc_usic.h ****  * Infineon Technologies AG dave@infineon.com).                                                    
  34:C:/Users/±è°æ¹Î/Desktop/IFX_S2GL-HW-SW_V1.1.3/Firmware_Software/DAVE project/S2GL_Doppler/Libraries/XMCLib/inc\xmc_usic.h ****  **************************************************************************************************
  35:C:/Users/±è°æ¹Î/Desktop/IFX_S2GL-HW-SW_V1.1.3/Firmware_Software/DAVE project/S2GL_Doppler/Libraries/XMCLib/inc\xmc_usic.h ****  *
  36:C:/Users/±è°æ¹Î/Desktop/IFX_S2GL-HW-SW_V1.1.3/Firmware_Software/DAVE project/S2GL_Doppler/Libraries/XMCLib/inc\xmc_usic.h ****  * Change History
  37:C:/Users/±è°æ¹Î/Desktop/IFX_S2GL-HW-SW_V1.1.3/Firmware_Software/DAVE project/S2GL_Doppler/Libraries/XMCLib/inc\xmc_usic.h ****  * --------------
  38:C:/Users/±è°æ¹Î/Desktop/IFX_S2GL-HW-SW_V1.1.3/Firmware_Software/DAVE project/S2GL_Doppler/Libraries/XMCLib/inc\xmc_usic.h ****  *
  39:C:/Users/±è°æ¹Î/Desktop/IFX_S2GL-HW-SW_V1.1.3/Firmware_Software/DAVE project/S2GL_Doppler/Libraries/XMCLib/inc\xmc_usic.h ****  * 2015-02-20:
  40:C:/Users/±è°æ¹Î/Desktop/IFX_S2GL-HW-SW_V1.1.3/Firmware_Software/DAVE project/S2GL_Doppler/Libraries/XMCLib/inc\xmc_usic.h ****  *     - Initial draft<br>
  41:C:/Users/±è°æ¹Î/Desktop/IFX_S2GL-HW-SW_V1.1.3/Firmware_Software/DAVE project/S2GL_Doppler/Libraries/XMCLib/inc\xmc_usic.h ****  *     - Documentation improved <br>
  42:C:/Users/±è°æ¹Î/Desktop/IFX_S2GL-HW-SW_V1.1.3/Firmware_Software/DAVE project/S2GL_Doppler/Libraries/XMCLib/inc\xmc_usic.h ****  *
  43:C:/Users/±è°æ¹Î/Desktop/IFX_S2GL-HW-SW_V1.1.3/Firmware_Software/DAVE project/S2GL_Doppler/Libraries/XMCLib/inc\xmc_usic.h ****  * 2015-05-08:
  44:C:/Users/±è°æ¹Î/Desktop/IFX_S2GL-HW-SW_V1.1.3/Firmware_Software/DAVE project/S2GL_Doppler/Libraries/XMCLib/inc\xmc_usic.h ****  *     - Added XMC_USIC_CH_SetInputTriggerCombinationMode() and XMC_USIC_CH_SetTransmitBufferStatus
  45:C:/Users/±è°æ¹Î/Desktop/IFX_S2GL-HW-SW_V1.1.3/Firmware_Software/DAVE project/S2GL_Doppler/Libraries/XMCLib/inc\xmc_usic.h ****  *      
  46:C:/Users/±è°æ¹Î/Desktop/IFX_S2GL-HW-SW_V1.1.3/Firmware_Software/DAVE project/S2GL_Doppler/Libraries/XMCLib/inc\xmc_usic.h ****  * 2015-06-20:
  47:C:/Users/±è°æ¹Î/Desktop/IFX_S2GL-HW-SW_V1.1.3/Firmware_Software/DAVE project/S2GL_Doppler/Libraries/XMCLib/inc\xmc_usic.h ****  *     - Removed version macros and declaration of GetDriverVersion API
  48:C:/Users/±è°æ¹Î/Desktop/IFX_S2GL-HW-SW_V1.1.3/Firmware_Software/DAVE project/S2GL_Doppler/Libraries/XMCLib/inc\xmc_usic.h ****  * 
  49:C:/Users/±è°æ¹Î/Desktop/IFX_S2GL-HW-SW_V1.1.3/Firmware_Software/DAVE project/S2GL_Doppler/Libraries/XMCLib/inc\xmc_usic.h ****  * 2015-08-17:
  50:C:/Users/±è°æ¹Î/Desktop/IFX_S2GL-HW-SW_V1.1.3/Firmware_Software/DAVE project/S2GL_Doppler/Libraries/XMCLib/inc\xmc_usic.h ****  *     - Bug fixed in XMC_USIC_CH_SetTransmitBufferStatus API. OR operator removed.
  51:C:/Users/±è°æ¹Î/Desktop/IFX_S2GL-HW-SW_V1.1.3/Firmware_Software/DAVE project/S2GL_Doppler/Libraries/XMCLib/inc\xmc_usic.h ****  *
  52:C:/Users/±è°æ¹Î/Desktop/IFX_S2GL-HW-SW_V1.1.3/Firmware_Software/DAVE project/S2GL_Doppler/Libraries/XMCLib/inc\xmc_usic.h ****  * 2015-08-24:
  53:C:/Users/±è°æ¹Î/Desktop/IFX_S2GL-HW-SW_V1.1.3/Firmware_Software/DAVE project/S2GL_Doppler/Libraries/XMCLib/inc\xmc_usic.h ****  *     - Added APIs for enabling/disabling delay compensation XMC_USIC_CH_DisableDelayCompensation(
  54:C:/Users/±è°æ¹Î/Desktop/IFX_S2GL-HW-SW_V1.1.3/Firmware_Software/DAVE project/S2GL_Doppler/Libraries/XMCLib/inc\xmc_usic.h ****  *       XMC_USIC_CH_DisableDelayCompensation()
  55:C:/Users/±è°æ¹Î/Desktop/IFX_S2GL-HW-SW_V1.1.3/Firmware_Software/DAVE project/S2GL_Doppler/Libraries/XMCLib/inc\xmc_usic.h ****  *
  56:C:/Users/±è°æ¹Î/Desktop/IFX_S2GL-HW-SW_V1.1.3/Firmware_Software/DAVE project/S2GL_Doppler/Libraries/XMCLib/inc\xmc_usic.h ****  * 2015-08-25:
  57:C:/Users/±è°æ¹Î/Desktop/IFX_S2GL-HW-SW_V1.1.3/Firmware_Software/DAVE project/S2GL_Doppler/Libraries/XMCLib/inc\xmc_usic.h ****  *     - Added APIs for defining if the data shift unit input is derived
  58:C:/Users/±è°æ¹Î/Desktop/IFX_S2GL-HW-SW_V1.1.3/Firmware_Software/DAVE project/S2GL_Doppler/Libraries/XMCLib/inc\xmc_usic.h ****  *       from the input data path DXn or from the selected protocol pre-processors: XMC_USIC_CH_Con
  59:C:/Users/±è°æ¹Î/Desktop/IFX_S2GL-HW-SW_V1.1.3/Firmware_Software/DAVE project/S2GL_Doppler/Libraries/XMCLib/inc\xmc_usic.h ****  *       and XMC_USIC_CH_ConnectInputDataShiftToDataInput()
  60:C:/Users/±è°æ¹Î/Desktop/IFX_S2GL-HW-SW_V1.1.3/Firmware_Software/DAVE project/S2GL_Doppler/Libraries/XMCLib/inc\xmc_usic.h ****  *
  61:C:/Users/±è°æ¹Î/Desktop/IFX_S2GL-HW-SW_V1.1.3/Firmware_Software/DAVE project/S2GL_Doppler/Libraries/XMCLib/inc\xmc_usic.h ****  * 2015-08-27:
  62:C:/Users/±è°æ¹Î/Desktop/IFX_S2GL-HW-SW_V1.1.3/Firmware_Software/DAVE project/S2GL_Doppler/Libraries/XMCLib/inc\xmc_usic.h ****  *     - Fixed bug in XMC_USIC_CH_BRG_CLOCK_SOURCE_DX1T value.
  63:C:/Users/±è°æ¹Î/Desktop/IFX_S2GL-HW-SW_V1.1.3/Firmware_Software/DAVE project/S2GL_Doppler/Libraries/XMCLib/inc\xmc_usic.h ****  *     - Added APIs for direct TBUF access: XMC_USIC_CH_WriteToTBUF() and XMC_USIC_CH_WriteToTBUFTC
  64:C:/Users/±è°æ¹Î/Desktop/IFX_S2GL-HW-SW_V1.1.3/Firmware_Software/DAVE project/S2GL_Doppler/Libraries/XMCLib/inc\xmc_usic.h ****  *     - Added APIs for external input for BRG configuration:XMC_USIC_CH_ConfigExternalInputSignalT
  65:C:/Users/±è°æ¹Î/Desktop/IFX_S2GL-HW-SW_V1.1.3/Firmware_Software/DAVE project/S2GL_Doppler/Libraries/XMCLib/inc\xmc_usic.h ****  *
  66:C:/Users/±è°æ¹Î/Desktop/IFX_S2GL-HW-SW_V1.1.3/Firmware_Software/DAVE project/S2GL_Doppler/Libraries/XMCLib/inc\xmc_usic.h ****  * 2015-08-28:
  67:C:/Users/±è°æ¹Î/Desktop/IFX_S2GL-HW-SW_V1.1.3/Firmware_Software/DAVE project/S2GL_Doppler/Libraries/XMCLib/inc\xmc_usic.h ****  *     - Added API for enabling the transfer trigger unit to set bit TCSR.TE if the trigger signal 
  68:C:/Users/±è°æ¹Î/Desktop/IFX_S2GL-HW-SW_V1.1.3/Firmware_Software/DAVE project/S2GL_Doppler/Libraries/XMCLib/inc\xmc_usic.h ****  *       Clear to Send (CTS) signal: XMC_USIC_CH_EnableTBUFDataValidTrigger() and XMC_USIC_CH_Disab
  69:C:/Users/±è°æ¹Î/Desktop/IFX_S2GL-HW-SW_V1.1.3/Firmware_Software/DAVE project/S2GL_Doppler/Libraries/XMCLib/inc\xmc_usic.h ****  *
  70:C:/Users/±è°æ¹Î/Desktop/IFX_S2GL-HW-SW_V1.1.3/Firmware_Software/DAVE project/S2GL_Doppler/Libraries/XMCLib/inc\xmc_usic.h ****  * 2016-03-09:
  71:C:/Users/±è°æ¹Î/Desktop/IFX_S2GL-HW-SW_V1.1.3/Firmware_Software/DAVE project/S2GL_Doppler/Libraries/XMCLib/inc\xmc_usic.h ****  *     - Optimization of write only registers
  72:C:/Users/±è°æ¹Î/Desktop/IFX_S2GL-HW-SW_V1.1.3/Firmware_Software/DAVE project/S2GL_Doppler/Libraries/XMCLib/inc\xmc_usic.h ****  *
  73:C:/Users/±è°æ¹Î/Desktop/IFX_S2GL-HW-SW_V1.1.3/Firmware_Software/DAVE project/S2GL_Doppler/Libraries/XMCLib/inc\xmc_usic.h ****  * 2016-04-10:
  74:C:/Users/±è°æ¹Î/Desktop/IFX_S2GL-HW-SW_V1.1.3/Firmware_Software/DAVE project/S2GL_Doppler/Libraries/XMCLib/inc\xmc_usic.h ****  *     - Added an API to put the data into FIFO when hardware port control is enabled: XMC_USIC_CH_
  75:C:/Users/±è°æ¹Î/Desktop/IFX_S2GL-HW-SW_V1.1.3/Firmware_Software/DAVE project/S2GL_Doppler/Libraries/XMCLib/inc\xmc_usic.h ****  *
  76:C:/Users/±è°æ¹Î/Desktop/IFX_S2GL-HW-SW_V1.1.3/Firmware_Software/DAVE project/S2GL_Doppler/Libraries/XMCLib/inc\xmc_usic.h ****  * @endcond
  77:C:/Users/±è°æ¹Î/Desktop/IFX_S2GL-HW-SW_V1.1.3/Firmware_Software/DAVE project/S2GL_Doppler/Libraries/XMCLib/inc\xmc_usic.h ****  *
  78:C:/Users/±è°æ¹Î/Desktop/IFX_S2GL-HW-SW_V1.1.3/Firmware_Software/DAVE project/S2GL_Doppler/Libraries/XMCLib/inc\xmc_usic.h ****  */
  79:C:/Users/±è°æ¹Î/Desktop/IFX_S2GL-HW-SW_V1.1.3/Firmware_Software/DAVE project/S2GL_Doppler/Libraries/XMCLib/inc\xmc_usic.h **** 
  80:C:/Users/±è°æ¹Î/Desktop/IFX_S2GL-HW-SW_V1.1.3/Firmware_Software/DAVE project/S2GL_Doppler/Libraries/XMCLib/inc\xmc_usic.h **** #ifndef XMC_USIC_H
  81:C:/Users/±è°æ¹Î/Desktop/IFX_S2GL-HW-SW_V1.1.3/Firmware_Software/DAVE project/S2GL_Doppler/Libraries/XMCLib/inc\xmc_usic.h **** #define XMC_USIC_H
  82:C:/Users/±è°æ¹Î/Desktop/IFX_S2GL-HW-SW_V1.1.3/Firmware_Software/DAVE project/S2GL_Doppler/Libraries/XMCLib/inc\xmc_usic.h **** /*******************************************************************************
  83:C:/Users/±è°æ¹Î/Desktop/IFX_S2GL-HW-SW_V1.1.3/Firmware_Software/DAVE project/S2GL_Doppler/Libraries/XMCLib/inc\xmc_usic.h ****  * HEADER FILES
  84:C:/Users/±è°æ¹Î/Desktop/IFX_S2GL-HW-SW_V1.1.3/Firmware_Software/DAVE project/S2GL_Doppler/Libraries/XMCLib/inc\xmc_usic.h ****  *******************************************************************************/
  85:C:/Users/±è°æ¹Î/Desktop/IFX_S2GL-HW-SW_V1.1.3/Firmware_Software/DAVE project/S2GL_Doppler/Libraries/XMCLib/inc\xmc_usic.h **** 
  86:C:/Users/±è°æ¹Î/Desktop/IFX_S2GL-HW-SW_V1.1.3/Firmware_Software/DAVE project/S2GL_Doppler/Libraries/XMCLib/inc\xmc_usic.h **** #include "xmc_common.h"
  87:C:/Users/±è°æ¹Î/Desktop/IFX_S2GL-HW-SW_V1.1.3/Firmware_Software/DAVE project/S2GL_Doppler/Libraries/XMCLib/inc\xmc_usic.h **** 
  88:C:/Users/±è°æ¹Î/Desktop/IFX_S2GL-HW-SW_V1.1.3/Firmware_Software/DAVE project/S2GL_Doppler/Libraries/XMCLib/inc\xmc_usic.h **** /**
  89:C:/Users/±è°æ¹Î/Desktop/IFX_S2GL-HW-SW_V1.1.3/Firmware_Software/DAVE project/S2GL_Doppler/Libraries/XMCLib/inc\xmc_usic.h ****  * @addtogroup XMClib XMC Peripheral Library
  90:C:/Users/±è°æ¹Î/Desktop/IFX_S2GL-HW-SW_V1.1.3/Firmware_Software/DAVE project/S2GL_Doppler/Libraries/XMCLib/inc\xmc_usic.h ****  * @{
  91:C:/Users/±è°æ¹Î/Desktop/IFX_S2GL-HW-SW_V1.1.3/Firmware_Software/DAVE project/S2GL_Doppler/Libraries/XMCLib/inc\xmc_usic.h ****  */
  92:C:/Users/±è°æ¹Î/Desktop/IFX_S2GL-HW-SW_V1.1.3/Firmware_Software/DAVE project/S2GL_Doppler/Libraries/XMCLib/inc\xmc_usic.h **** 
  93:C:/Users/±è°æ¹Î/Desktop/IFX_S2GL-HW-SW_V1.1.3/Firmware_Software/DAVE project/S2GL_Doppler/Libraries/XMCLib/inc\xmc_usic.h **** /**
  94:C:/Users/±è°æ¹Î/Desktop/IFX_S2GL-HW-SW_V1.1.3/Firmware_Software/DAVE project/S2GL_Doppler/Libraries/XMCLib/inc\xmc_usic.h ****  * @addtogroup USIC
  95:C:/Users/±è°æ¹Î/Desktop/IFX_S2GL-HW-SW_V1.1.3/Firmware_Software/DAVE project/S2GL_Doppler/Libraries/XMCLib/inc\xmc_usic.h ****  * @brief Universal Serial Interface Channel(USIC) driver for serial communication.
  96:C:/Users/±è°æ¹Î/Desktop/IFX_S2GL-HW-SW_V1.1.3/Firmware_Software/DAVE project/S2GL_Doppler/Libraries/XMCLib/inc\xmc_usic.h ****  *
  97:C:/Users/±è°æ¹Î/Desktop/IFX_S2GL-HW-SW_V1.1.3/Firmware_Software/DAVE project/S2GL_Doppler/Libraries/XMCLib/inc\xmc_usic.h ****  * The Universal Serial Interface Channel(USIC) module is a flexible interface module
  98:C:/Users/±è°æ¹Î/Desktop/IFX_S2GL-HW-SW_V1.1.3/Firmware_Software/DAVE project/S2GL_Doppler/Libraries/XMCLib/inc\xmc_usic.h ****  * covering several serial communication protocols. A USIC module contains two
  99:C:/Users/±è°æ¹Î/Desktop/IFX_S2GL-HW-SW_V1.1.3/Firmware_Software/DAVE project/S2GL_Doppler/Libraries/XMCLib/inc\xmc_usic.h ****  * independent communication channels named USICx_CH0 and USICx_CH1, with x
 100:C:/Users/±è°æ¹Î/Desktop/IFX_S2GL-HW-SW_V1.1.3/Firmware_Software/DAVE project/S2GL_Doppler/Libraries/XMCLib/inc\xmc_usic.h ****  * being the number of the USIC module. The user can program, during run-time, which protocol will 
 101:C:/Users/±è°æ¹Î/Desktop/IFX_S2GL-HW-SW_V1.1.3/Firmware_Software/DAVE project/S2GL_Doppler/Libraries/XMCLib/inc\xmc_usic.h ****  * by each communication channel and which pins are used.
 102:C:/Users/±è°æ¹Î/Desktop/IFX_S2GL-HW-SW_V1.1.3/Firmware_Software/DAVE project/S2GL_Doppler/Libraries/XMCLib/inc\xmc_usic.h ****  * The driver provides APIs, configuration structures and enumerations to configure common features
 103:C:/Users/±è°æ¹Î/Desktop/IFX_S2GL-HW-SW_V1.1.3/Firmware_Software/DAVE project/S2GL_Doppler/Libraries/XMCLib/inc\xmc_usic.h ****  * communication protocols.
 104:C:/Users/±è°æ¹Î/Desktop/IFX_S2GL-HW-SW_V1.1.3/Firmware_Software/DAVE project/S2GL_Doppler/Libraries/XMCLib/inc\xmc_usic.h ****  * 
 105:C:/Users/±è°æ¹Î/Desktop/IFX_S2GL-HW-SW_V1.1.3/Firmware_Software/DAVE project/S2GL_Doppler/Libraries/XMCLib/inc\xmc_usic.h ****  * USIC driver features:
 106:C:/Users/±è°æ¹Î/Desktop/IFX_S2GL-HW-SW_V1.1.3/Firmware_Software/DAVE project/S2GL_Doppler/Libraries/XMCLib/inc\xmc_usic.h ****  * -# Allows configuration of FIFO for transmit and receive functions.
 107:C:/Users/±è°æ¹Î/Desktop/IFX_S2GL-HW-SW_V1.1.3/Firmware_Software/DAVE project/S2GL_Doppler/Libraries/XMCLib/inc\xmc_usic.h ****  * -# Provides a structure type XMC_USIC_CH_t to represent the USIC channel registers in a programm
 108:C:/Users/±è°æ¹Î/Desktop/IFX_S2GL-HW-SW_V1.1.3/Firmware_Software/DAVE project/S2GL_Doppler/Libraries/XMCLib/inc\xmc_usic.h ****  friendly format.
 109:C:/Users/±è°æ¹Î/Desktop/IFX_S2GL-HW-SW_V1.1.3/Firmware_Software/DAVE project/S2GL_Doppler/Libraries/XMCLib/inc\xmc_usic.h ****  * -# Allows configuration of automatic update for frame length, word length, slave select or slave
 110:C:/Users/±è°æ¹Î/Desktop/IFX_S2GL-HW-SW_V1.1.3/Firmware_Software/DAVE project/S2GL_Doppler/Libraries/XMCLib/inc\xmc_usic.h ****  * -# Allows transmission of data to FIFO using XMC_USIC_CH_TXFIFO_PutData() and XMC_USIC_CH_TXFIFO
 111:C:/Users/±è°æ¹Î/Desktop/IFX_S2GL-HW-SW_V1.1.3/Firmware_Software/DAVE project/S2GL_Doppler/Libraries/XMCLib/inc\xmc_usic.h ****  * -# Allows reading of received data in FIFO using XMC_USIC_CH_RXFIFO_GetData()
 112:C:/Users/±è°æ¹Î/Desktop/IFX_S2GL-HW-SW_V1.1.3/Firmware_Software/DAVE project/S2GL_Doppler/Libraries/XMCLib/inc\xmc_usic.h ****  * -# Allows configuration of baudrate using XMC_USIC_CH_SetBaudrate()
 113:C:/Users/±è°æ¹Î/Desktop/IFX_S2GL-HW-SW_V1.1.3/Firmware_Software/DAVE project/S2GL_Doppler/Libraries/XMCLib/inc\xmc_usic.h ****  * -# Provides API to trigger interrupts using XMC_USIC_CH_TriggerServiceRequest()
 114:C:/Users/±è°æ¹Î/Desktop/IFX_S2GL-HW-SW_V1.1.3/Firmware_Software/DAVE project/S2GL_Doppler/Libraries/XMCLib/inc\xmc_usic.h ****  * @{
 115:C:/Users/±è°æ¹Î/Desktop/IFX_S2GL-HW-SW_V1.1.3/Firmware_Software/DAVE project/S2GL_Doppler/Libraries/XMCLib/inc\xmc_usic.h ****  */
 116:C:/Users/±è°æ¹Î/Desktop/IFX_S2GL-HW-SW_V1.1.3/Firmware_Software/DAVE project/S2GL_Doppler/Libraries/XMCLib/inc\xmc_usic.h **** 
 117:C:/Users/±è°æ¹Î/Desktop/IFX_S2GL-HW-SW_V1.1.3/Firmware_Software/DAVE project/S2GL_Doppler/Libraries/XMCLib/inc\xmc_usic.h **** /*******************************************************************************
 118:C:/Users/±è°æ¹Î/Desktop/IFX_S2GL-HW-SW_V1.1.3/Firmware_Software/DAVE project/S2GL_Doppler/Libraries/XMCLib/inc\xmc_usic.h ****  * MACROS
 119:C:/Users/±è°æ¹Î/Desktop/IFX_S2GL-HW-SW_V1.1.3/Firmware_Software/DAVE project/S2GL_Doppler/Libraries/XMCLib/inc\xmc_usic.h ****  *******************************************************************************/
 120:C:/Users/±è°æ¹Î/Desktop/IFX_S2GL-HW-SW_V1.1.3/Firmware_Software/DAVE project/S2GL_Doppler/Libraries/XMCLib/inc\xmc_usic.h **** 
 121:C:/Users/±è°æ¹Î/Desktop/IFX_S2GL-HW-SW_V1.1.3/Firmware_Software/DAVE project/S2GL_Doppler/Libraries/XMCLib/inc\xmc_usic.h **** #define XMC_USIC0 ((XMC_USIC_t *)USIC0_BASE)			/**< USIC0 module base address */
 122:C:/Users/±è°æ¹Î/Desktop/IFX_S2GL-HW-SW_V1.1.3/Firmware_Software/DAVE project/S2GL_Doppler/Libraries/XMCLib/inc\xmc_usic.h **** #define XMC_USIC0_CH0 ((XMC_USIC_CH_t *)USIC0_CH0_BASE)	/**< USIC0 channel 0 base address */
 123:C:/Users/±è°æ¹Î/Desktop/IFX_S2GL-HW-SW_V1.1.3/Firmware_Software/DAVE project/S2GL_Doppler/Libraries/XMCLib/inc\xmc_usic.h **** #define XMC_USIC0_CH1 ((XMC_USIC_CH_t *)USIC0_CH1_BASE)	/**< USIC0 channel 1 base address */
 124:C:/Users/±è°æ¹Î/Desktop/IFX_S2GL-HW-SW_V1.1.3/Firmware_Software/DAVE project/S2GL_Doppler/Libraries/XMCLib/inc\xmc_usic.h **** 
 125:C:/Users/±è°æ¹Î/Desktop/IFX_S2GL-HW-SW_V1.1.3/Firmware_Software/DAVE project/S2GL_Doppler/Libraries/XMCLib/inc\xmc_usic.h **** #if defined(USIC1)
 126:C:/Users/±è°æ¹Î/Desktop/IFX_S2GL-HW-SW_V1.1.3/Firmware_Software/DAVE project/S2GL_Doppler/Libraries/XMCLib/inc\xmc_usic.h **** #define XMC_USIC1 ((XMC_USIC_t *)USIC1_BASE)			/**< USIC1 module base address */
 127:C:/Users/±è°æ¹Î/Desktop/IFX_S2GL-HW-SW_V1.1.3/Firmware_Software/DAVE project/S2GL_Doppler/Libraries/XMCLib/inc\xmc_usic.h **** #define XMC_USIC1_CH0 ((XMC_USIC_CH_t *)USIC1_CH0_BASE)	/**< USIC1 channel 0 base address */
 128:C:/Users/±è°æ¹Î/Desktop/IFX_S2GL-HW-SW_V1.1.3/Firmware_Software/DAVE project/S2GL_Doppler/Libraries/XMCLib/inc\xmc_usic.h **** #define XMC_USIC1_CH1 ((XMC_USIC_CH_t *)USIC1_CH1_BASE)	/**< USIC1 channel 1 base address */
 129:C:/Users/±è°æ¹Î/Desktop/IFX_S2GL-HW-SW_V1.1.3/Firmware_Software/DAVE project/S2GL_Doppler/Libraries/XMCLib/inc\xmc_usic.h **** #endif
 130:C:/Users/±è°æ¹Î/Desktop/IFX_S2GL-HW-SW_V1.1.3/Firmware_Software/DAVE project/S2GL_Doppler/Libraries/XMCLib/inc\xmc_usic.h **** 
 131:C:/Users/±è°æ¹Î/Desktop/IFX_S2GL-HW-SW_V1.1.3/Firmware_Software/DAVE project/S2GL_Doppler/Libraries/XMCLib/inc\xmc_usic.h **** #if defined(USIC2)
 132:C:/Users/±è°æ¹Î/Desktop/IFX_S2GL-HW-SW_V1.1.3/Firmware_Software/DAVE project/S2GL_Doppler/Libraries/XMCLib/inc\xmc_usic.h **** #define XMC_USIC2 ((XMC_USIC_t *)USIC2_BASE)			/**< USIC2 module base address */
 133:C:/Users/±è°æ¹Î/Desktop/IFX_S2GL-HW-SW_V1.1.3/Firmware_Software/DAVE project/S2GL_Doppler/Libraries/XMCLib/inc\xmc_usic.h **** #define XMC_USIC2_CH0 ((XMC_USIC_CH_t *)USIC2_CH0_BASE)	/**< USIC2 channel 0 base address */
 134:C:/Users/±è°æ¹Î/Desktop/IFX_S2GL-HW-SW_V1.1.3/Firmware_Software/DAVE project/S2GL_Doppler/Libraries/XMCLib/inc\xmc_usic.h **** #define XMC_USIC2_CH1 ((XMC_USIC_CH_t *)USIC2_CH1_BASE)	/**< USIC2 channel 1 base address */
 135:C:/Users/±è°æ¹Î/Desktop/IFX_S2GL-HW-SW_V1.1.3/Firmware_Software/DAVE project/S2GL_Doppler/Libraries/XMCLib/inc\xmc_usic.h **** #endif
 136:C:/Users/±è°æ¹Î/Desktop/IFX_S2GL-HW-SW_V1.1.3/Firmware_Software/DAVE project/S2GL_Doppler/Libraries/XMCLib/inc\xmc_usic.h **** 
 137:C:/Users/±è°æ¹Î/Desktop/IFX_S2GL-HW-SW_V1.1.3/Firmware_Software/DAVE project/S2GL_Doppler/Libraries/XMCLib/inc\xmc_usic.h **** #define USIC_CH_DXCR_DSEL_Msk  USIC_CH_DX0CR_DSEL_Msk   /**< Common mask for DSEL bitfield mask in 
 138:C:/Users/±è°æ¹Î/Desktop/IFX_S2GL-HW-SW_V1.1.3/Firmware_Software/DAVE project/S2GL_Doppler/Libraries/XMCLib/inc\xmc_usic.h **** #define USIC_CH_DXCR_DSEL_Pos  USIC_CH_DX0CR_DSEL_Pos   /**< Common mask for DSEL bitfield position
 139:C:/Users/±è°æ¹Î/Desktop/IFX_S2GL-HW-SW_V1.1.3/Firmware_Software/DAVE project/S2GL_Doppler/Libraries/XMCLib/inc\xmc_usic.h **** #define USIC_CH_DXCR_SFSEL_Pos USIC_CH_DX0CR_SFSEL_Pos  /**< Common mask for SFSEL bitfield positio
 140:C:/Users/±è°æ¹Î/Desktop/IFX_S2GL-HW-SW_V1.1.3/Firmware_Software/DAVE project/S2GL_Doppler/Libraries/XMCLib/inc\xmc_usic.h **** #define USIC_CH_DXCR_SFSEL_Msk USIC_CH_DX0CR_SFSEL_Msk  /**< Common mask for SFSEL bitfield mask in
 141:C:/Users/±è°æ¹Î/Desktop/IFX_S2GL-HW-SW_V1.1.3/Firmware_Software/DAVE project/S2GL_Doppler/Libraries/XMCLib/inc\xmc_usic.h **** #define USIC_CH_DXCR_DPOL_Msk  USIC_CH_DX0CR_DPOL_Msk   /**< Common mask for DPOL bitfield mask in 
 142:C:/Users/±è°æ¹Î/Desktop/IFX_S2GL-HW-SW_V1.1.3/Firmware_Software/DAVE project/S2GL_Doppler/Libraries/XMCLib/inc\xmc_usic.h **** #define USIC_CH_DXCR_DFEN_Msk  USIC_CH_DX0CR_DFEN_Msk   /**< Common mask for DFEN bitfield mask in 
 143:C:/Users/±è°æ¹Î/Desktop/IFX_S2GL-HW-SW_V1.1.3/Firmware_Software/DAVE project/S2GL_Doppler/Libraries/XMCLib/inc\xmc_usic.h **** #define USIC_CH_DXCR_DSEN_Msk  USIC_CH_DX0CR_DSEN_Msk   /**< Common mask for DSEN bitfield mask in 
 144:C:/Users/±è°æ¹Î/Desktop/IFX_S2GL-HW-SW_V1.1.3/Firmware_Software/DAVE project/S2GL_Doppler/Libraries/XMCLib/inc\xmc_usic.h **** #define USIC_CH_DXCR_CM_Pos    USIC_CH_DX0CR_CM_Pos     /**< Common mask for CM bitfield position i
 145:C:/Users/±è°æ¹Î/Desktop/IFX_S2GL-HW-SW_V1.1.3/Firmware_Software/DAVE project/S2GL_Doppler/Libraries/XMCLib/inc\xmc_usic.h **** #define USIC_CH_DXCR_CM_Msk    USIC_CH_DX0CR_CM_Msk     /**< Common mask for CM bitfield mask in DX
 146:C:/Users/±è°æ¹Î/Desktop/IFX_S2GL-HW-SW_V1.1.3/Firmware_Software/DAVE project/S2GL_Doppler/Libraries/XMCLib/inc\xmc_usic.h **** #define USIC_CH_DXCR_INSW_Msk  USIC_CH_DX0CR_INSW_Msk   /**< Common mask for INSW bitfield mask in 
 147:C:/Users/±è°æ¹Î/Desktop/IFX_S2GL-HW-SW_V1.1.3/Firmware_Software/DAVE project/S2GL_Doppler/Libraries/XMCLib/inc\xmc_usic.h **** #define USIC_CH_DXCR_INSW_pos  USIC_CH_DX0CR_INSW_Pos   /**< Common mask for INSW bitfield position
 148:C:/Users/±è°æ¹Î/Desktop/IFX_S2GL-HW-SW_V1.1.3/Firmware_Software/DAVE project/S2GL_Doppler/Libraries/XMCLib/inc\xmc_usic.h **** 
 149:C:/Users/±è°æ¹Î/Desktop/IFX_S2GL-HW-SW_V1.1.3/Firmware_Software/DAVE project/S2GL_Doppler/Libraries/XMCLib/inc\xmc_usic.h **** #if UC_FAMILY == XMC1
 150:C:/Users/±è°æ¹Î/Desktop/IFX_S2GL-HW-SW_V1.1.3/Firmware_Software/DAVE project/S2GL_Doppler/Libraries/XMCLib/inc\xmc_usic.h ****  #include "xmc1_usic_map.h"
 151:C:/Users/±è°æ¹Î/Desktop/IFX_S2GL-HW-SW_V1.1.3/Firmware_Software/DAVE project/S2GL_Doppler/Libraries/XMCLib/inc\xmc_usic.h **** #endif
 152:C:/Users/±è°æ¹Î/Desktop/IFX_S2GL-HW-SW_V1.1.3/Firmware_Software/DAVE project/S2GL_Doppler/Libraries/XMCLib/inc\xmc_usic.h **** 
 153:C:/Users/±è°æ¹Î/Desktop/IFX_S2GL-HW-SW_V1.1.3/Firmware_Software/DAVE project/S2GL_Doppler/Libraries/XMCLib/inc\xmc_usic.h **** #if UC_FAMILY == XMC4
 154:C:/Users/±è°æ¹Î/Desktop/IFX_S2GL-HW-SW_V1.1.3/Firmware_Software/DAVE project/S2GL_Doppler/Libraries/XMCLib/inc\xmc_usic.h ****  #include "xmc4_usic_map.h"
 155:C:/Users/±è°æ¹Î/Desktop/IFX_S2GL-HW-SW_V1.1.3/Firmware_Software/DAVE project/S2GL_Doppler/Libraries/XMCLib/inc\xmc_usic.h **** #endif
 156:C:/Users/±è°æ¹Î/Desktop/IFX_S2GL-HW-SW_V1.1.3/Firmware_Software/DAVE project/S2GL_Doppler/Libraries/XMCLib/inc\xmc_usic.h **** 
 157:C:/Users/±è°æ¹Î/Desktop/IFX_S2GL-HW-SW_V1.1.3/Firmware_Software/DAVE project/S2GL_Doppler/Libraries/XMCLib/inc\xmc_usic.h **** /*******************************************************************************
 158:C:/Users/±è°æ¹Î/Desktop/IFX_S2GL-HW-SW_V1.1.3/Firmware_Software/DAVE project/S2GL_Doppler/Libraries/XMCLib/inc\xmc_usic.h ****  * ENUMS
 159:C:/Users/±è°æ¹Î/Desktop/IFX_S2GL-HW-SW_V1.1.3/Firmware_Software/DAVE project/S2GL_Doppler/Libraries/XMCLib/inc\xmc_usic.h ****  *******************************************************************************/
 160:C:/Users/±è°æ¹Î/Desktop/IFX_S2GL-HW-SW_V1.1.3/Firmware_Software/DAVE project/S2GL_Doppler/Libraries/XMCLib/inc\xmc_usic.h **** 
 161:C:/Users/±è°æ¹Î/Desktop/IFX_S2GL-HW-SW_V1.1.3/Firmware_Software/DAVE project/S2GL_Doppler/Libraries/XMCLib/inc\xmc_usic.h **** /**
 162:C:/Users/±è°æ¹Î/Desktop/IFX_S2GL-HW-SW_V1.1.3/Firmware_Software/DAVE project/S2GL_Doppler/Libraries/XMCLib/inc\xmc_usic.h ****  * USIC channel driver status
 163:C:/Users/±è°æ¹Î/Desktop/IFX_S2GL-HW-SW_V1.1.3/Firmware_Software/DAVE project/S2GL_Doppler/Libraries/XMCLib/inc\xmc_usic.h ****  */
 164:C:/Users/±è°æ¹Î/Desktop/IFX_S2GL-HW-SW_V1.1.3/Firmware_Software/DAVE project/S2GL_Doppler/Libraries/XMCLib/inc\xmc_usic.h **** typedef enum XMC_USIC_CH_STATUS
 165:C:/Users/±è°æ¹Î/Desktop/IFX_S2GL-HW-SW_V1.1.3/Firmware_Software/DAVE project/S2GL_Doppler/Libraries/XMCLib/inc\xmc_usic.h **** {
 166:C:/Users/±è°æ¹Î/Desktop/IFX_S2GL-HW-SW_V1.1.3/Firmware_Software/DAVE project/S2GL_Doppler/Libraries/XMCLib/inc\xmc_usic.h ****   XMC_USIC_CH_STATUS_OK,    /**< USIC driver status : OK */
 167:C:/Users/±è°æ¹Î/Desktop/IFX_S2GL-HW-SW_V1.1.3/Firmware_Software/DAVE project/S2GL_Doppler/Libraries/XMCLib/inc\xmc_usic.h ****   XMC_USIC_CH_STATUS_ERROR, /**< USIC driver status : ERROR */
 168:C:/Users/±è°æ¹Î/Desktop/IFX_S2GL-HW-SW_V1.1.3/Firmware_Software/DAVE project/S2GL_Doppler/Libraries/XMCLib/inc\xmc_usic.h ****   XMC_USIC_CH_STATUS_BUSY   /**< USIC driver status : BUSY */
 169:C:/Users/±è°æ¹Î/Desktop/IFX_S2GL-HW-SW_V1.1.3/Firmware_Software/DAVE project/S2GL_Doppler/Libraries/XMCLib/inc\xmc_usic.h **** } XMC_USIC_CH_STATUS_t;
 170:C:/Users/±è°æ¹Î/Desktop/IFX_S2GL-HW-SW_V1.1.3/Firmware_Software/DAVE project/S2GL_Doppler/Libraries/XMCLib/inc\xmc_usic.h **** 
 171:C:/Users/±è°æ¹Î/Desktop/IFX_S2GL-HW-SW_V1.1.3/Firmware_Software/DAVE project/S2GL_Doppler/Libraries/XMCLib/inc\xmc_usic.h **** /**
 172:C:/Users/±è°æ¹Î/Desktop/IFX_S2GL-HW-SW_V1.1.3/Firmware_Software/DAVE project/S2GL_Doppler/Libraries/XMCLib/inc\xmc_usic.h **** * USIC channel kernel mode
 173:C:/Users/±è°æ¹Î/Desktop/IFX_S2GL-HW-SW_V1.1.3/Firmware_Software/DAVE project/S2GL_Doppler/Libraries/XMCLib/inc\xmc_usic.h **** */
 174:C:/Users/±è°æ¹Î/Desktop/IFX_S2GL-HW-SW_V1.1.3/Firmware_Software/DAVE project/S2GL_Doppler/Libraries/XMCLib/inc\xmc_usic.h **** typedef enum XMC_USIC_CH_KERNEL_MODE
 175:C:/Users/±è°æ¹Î/Desktop/IFX_S2GL-HW-SW_V1.1.3/Firmware_Software/DAVE project/S2GL_Doppler/Libraries/XMCLib/inc\xmc_usic.h **** {
 176:C:/Users/±è°æ¹Î/Desktop/IFX_S2GL-HW-SW_V1.1.3/Firmware_Software/DAVE project/S2GL_Doppler/Libraries/XMCLib/inc\xmc_usic.h ****   XMC_USIC_CH_KERNEL_MODE_RUN_0  = 0x0UL,  /**< Run mode 0 (transmission and reception possible)*/
 177:C:/Users/±è°æ¹Î/Desktop/IFX_S2GL-HW-SW_V1.1.3/Firmware_Software/DAVE project/S2GL_Doppler/Libraries/XMCLib/inc\xmc_usic.h ****   XMC_USIC_CH_KERNEL_MODE_RUN_1  = 0x1UL << USIC_CH_KSCFG_NOMCFG_Pos,  /**< Run mode 1 (transmissio
 178:C:/Users/±è°æ¹Î/Desktop/IFX_S2GL-HW-SW_V1.1.3/Firmware_Software/DAVE project/S2GL_Doppler/Libraries/XMCLib/inc\xmc_usic.h ****   XMC_USIC_CH_KERNEL_MODE_STOP_0 = 0x2UL << USIC_CH_KSCFG_NOMCFG_Pos,  /**< Stop mode 0 (no transmi
 179:C:/Users/±è°æ¹Î/Desktop/IFX_S2GL-HW-SW_V1.1.3/Firmware_Software/DAVE project/S2GL_Doppler/Libraries/XMCLib/inc\xmc_usic.h ****   XMC_USIC_CH_KERNEL_MODE_STOP_1 = 0x3UL << USIC_CH_KSCFG_NOMCFG_Pos   /**< Stop mode 1 (both trans
 180:C:/Users/±è°æ¹Î/Desktop/IFX_S2GL-HW-SW_V1.1.3/Firmware_Software/DAVE project/S2GL_Doppler/Libraries/XMCLib/inc\xmc_usic.h **** } XMC_USIC_CH_KERNEL_MODE_t;
 181:C:/Users/±è°æ¹Î/Desktop/IFX_S2GL-HW-SW_V1.1.3/Firmware_Software/DAVE project/S2GL_Doppler/Libraries/XMCLib/inc\xmc_usic.h **** 
 182:C:/Users/±è°æ¹Î/Desktop/IFX_S2GL-HW-SW_V1.1.3/Firmware_Software/DAVE project/S2GL_Doppler/Libraries/XMCLib/inc\xmc_usic.h **** /**
 183:C:/Users/±è°æ¹Î/Desktop/IFX_S2GL-HW-SW_V1.1.3/Firmware_Software/DAVE project/S2GL_Doppler/Libraries/XMCLib/inc\xmc_usic.h ****  * USIC channel operating mode
 184:C:/Users/±è°æ¹Î/Desktop/IFX_S2GL-HW-SW_V1.1.3/Firmware_Software/DAVE project/S2GL_Doppler/Libraries/XMCLib/inc\xmc_usic.h ****  */
 185:C:/Users/±è°æ¹Î/Desktop/IFX_S2GL-HW-SW_V1.1.3/Firmware_Software/DAVE project/S2GL_Doppler/Libraries/XMCLib/inc\xmc_usic.h **** typedef enum XMC_USIC_CH_OPERATING_MODE
 186:C:/Users/±è°æ¹Î/Desktop/IFX_S2GL-HW-SW_V1.1.3/Firmware_Software/DAVE project/S2GL_Doppler/Libraries/XMCLib/inc\xmc_usic.h **** {
 187:C:/Users/±è°æ¹Î/Desktop/IFX_S2GL-HW-SW_V1.1.3/Firmware_Software/DAVE project/S2GL_Doppler/Libraries/XMCLib/inc\xmc_usic.h ****   XMC_USIC_CH_OPERATING_MODE_IDLE = 0x0UL, /**< USIC channel idle */
 188:C:/Users/±è°æ¹Î/Desktop/IFX_S2GL-HW-SW_V1.1.3/Firmware_Software/DAVE project/S2GL_Doppler/Libraries/XMCLib/inc\xmc_usic.h ****   XMC_USIC_CH_OPERATING_MODE_SPI  = 0x1UL << USIC_CH_CCR_MODE_Pos, /**< SPI mode */
 189:C:/Users/±è°æ¹Î/Desktop/IFX_S2GL-HW-SW_V1.1.3/Firmware_Software/DAVE project/S2GL_Doppler/Libraries/XMCLib/inc\xmc_usic.h ****   XMC_USIC_CH_OPERATING_MODE_UART = 0x2UL << USIC_CH_CCR_MODE_Pos, /**< UART mode */
 190:C:/Users/±è°æ¹Î/Desktop/IFX_S2GL-HW-SW_V1.1.3/Firmware_Software/DAVE project/S2GL_Doppler/Libraries/XMCLib/inc\xmc_usic.h ****   XMC_USIC_CH_OPERATING_MODE_I2S  = 0x3UL << USIC_CH_CCR_MODE_Pos, /**< I2S mode */
 191:C:/Users/±è°æ¹Î/Desktop/IFX_S2GL-HW-SW_V1.1.3/Firmware_Software/DAVE project/S2GL_Doppler/Libraries/XMCLib/inc\xmc_usic.h ****   XMC_USIC_CH_OPERATING_MODE_I2C  = 0x4UL << USIC_CH_CCR_MODE_Pos  /**< I2C mode */
 192:C:/Users/±è°æ¹Î/Desktop/IFX_S2GL-HW-SW_V1.1.3/Firmware_Software/DAVE project/S2GL_Doppler/Libraries/XMCLib/inc\xmc_usic.h **** } XMC_USIC_CH_OPERATING_MODE_t;
 193:C:/Users/±è°æ¹Î/Desktop/IFX_S2GL-HW-SW_V1.1.3/Firmware_Software/DAVE project/S2GL_Doppler/Libraries/XMCLib/inc\xmc_usic.h **** 
 194:C:/Users/±è°æ¹Î/Desktop/IFX_S2GL-HW-SW_V1.1.3/Firmware_Software/DAVE project/S2GL_Doppler/Libraries/XMCLib/inc\xmc_usic.h **** /**
 195:C:/Users/±è°æ¹Î/Desktop/IFX_S2GL-HW-SW_V1.1.3/Firmware_Software/DAVE project/S2GL_Doppler/Libraries/XMCLib/inc\xmc_usic.h ****  * USIC channel inputs
 196:C:/Users/±è°æ¹Î/Desktop/IFX_S2GL-HW-SW_V1.1.3/Firmware_Software/DAVE project/S2GL_Doppler/Libraries/XMCLib/inc\xmc_usic.h ****  */
 197:C:/Users/±è°æ¹Î/Desktop/IFX_S2GL-HW-SW_V1.1.3/Firmware_Software/DAVE project/S2GL_Doppler/Libraries/XMCLib/inc\xmc_usic.h **** typedef enum XMC_USIC_CH_INPUT
 198:C:/Users/±è°æ¹Î/Desktop/IFX_S2GL-HW-SW_V1.1.3/Firmware_Software/DAVE project/S2GL_Doppler/Libraries/XMCLib/inc\xmc_usic.h **** {
 199:C:/Users/±è°æ¹Î/Desktop/IFX_S2GL-HW-SW_V1.1.3/Firmware_Software/DAVE project/S2GL_Doppler/Libraries/XMCLib/inc\xmc_usic.h ****   XMC_USIC_CH_INPUT_DX0, /**< DX0 input */
 200:C:/Users/±è°æ¹Î/Desktop/IFX_S2GL-HW-SW_V1.1.3/Firmware_Software/DAVE project/S2GL_Doppler/Libraries/XMCLib/inc\xmc_usic.h ****   XMC_USIC_CH_INPUT_DX1, /**< DX1 input */
 201:C:/Users/±è°æ¹Î/Desktop/IFX_S2GL-HW-SW_V1.1.3/Firmware_Software/DAVE project/S2GL_Doppler/Libraries/XMCLib/inc\xmc_usic.h ****   XMC_USIC_CH_INPUT_DX2, /**< DX2 input */
 202:C:/Users/±è°æ¹Î/Desktop/IFX_S2GL-HW-SW_V1.1.3/Firmware_Software/DAVE project/S2GL_Doppler/Libraries/XMCLib/inc\xmc_usic.h ****   XMC_USIC_CH_INPUT_DX3, /**< DX3 input */
 203:C:/Users/±è°æ¹Î/Desktop/IFX_S2GL-HW-SW_V1.1.3/Firmware_Software/DAVE project/S2GL_Doppler/Libraries/XMCLib/inc\xmc_usic.h ****   XMC_USIC_CH_INPUT_DX4, /**< DX4 input */
 204:C:/Users/±è°æ¹Î/Desktop/IFX_S2GL-HW-SW_V1.1.3/Firmware_Software/DAVE project/S2GL_Doppler/Libraries/XMCLib/inc\xmc_usic.h ****   XMC_USIC_CH_INPUT_DX5  /**< DX5 input */
 205:C:/Users/±è°æ¹Î/Desktop/IFX_S2GL-HW-SW_V1.1.3/Firmware_Software/DAVE project/S2GL_Doppler/Libraries/XMCLib/inc\xmc_usic.h **** } XMC_USIC_CH_INPUT_t;
 206:C:/Users/±è°æ¹Î/Desktop/IFX_S2GL-HW-SW_V1.1.3/Firmware_Software/DAVE project/S2GL_Doppler/Libraries/XMCLib/inc\xmc_usic.h **** 
 207:C:/Users/±è°æ¹Î/Desktop/IFX_S2GL-HW-SW_V1.1.3/Firmware_Software/DAVE project/S2GL_Doppler/Libraries/XMCLib/inc\xmc_usic.h **** /**
 208:C:/Users/±è°æ¹Î/Desktop/IFX_S2GL-HW-SW_V1.1.3/Firmware_Software/DAVE project/S2GL_Doppler/Libraries/XMCLib/inc\xmc_usic.h ****  * USIC channel input source sampling frequency
 209:C:/Users/±è°æ¹Î/Desktop/IFX_S2GL-HW-SW_V1.1.3/Firmware_Software/DAVE project/S2GL_Doppler/Libraries/XMCLib/inc\xmc_usic.h ****  */
 210:C:/Users/±è°æ¹Î/Desktop/IFX_S2GL-HW-SW_V1.1.3/Firmware_Software/DAVE project/S2GL_Doppler/Libraries/XMCLib/inc\xmc_usic.h **** typedef enum XMC_USIC_CH_INPUT_SAMPLING_FREQ
 211:C:/Users/±è°æ¹Î/Desktop/IFX_S2GL-HW-SW_V1.1.3/Firmware_Software/DAVE project/S2GL_Doppler/Libraries/XMCLib/inc\xmc_usic.h **** {
 212:C:/Users/±è°æ¹Î/Desktop/IFX_S2GL-HW-SW_V1.1.3/Firmware_Software/DAVE project/S2GL_Doppler/Libraries/XMCLib/inc\xmc_usic.h ****   XMC_USIC_CH_INPUT_SAMPLING_FREQ_FPERIPH            = 0x0UL, /**< Use fperiph frequency for input 
 213:C:/Users/±è°æ¹Î/Desktop/IFX_S2GL-HW-SW_V1.1.3/Firmware_Software/DAVE project/S2GL_Doppler/Libraries/XMCLib/inc\xmc_usic.h ****   XMC_USIC_CH_INPUT_SAMPLING_FREQ_FRACTIONAL_DIVIDER = 0x1UL << USIC_CH_DXCR_SFSEL_Pos  /**< Use fF
 214:C:/Users/±è°æ¹Î/Desktop/IFX_S2GL-HW-SW_V1.1.3/Firmware_Software/DAVE project/S2GL_Doppler/Libraries/XMCLib/inc\xmc_usic.h **** } XMC_USIC_CH_INPUT_SAMPLING_FREQ_t;
 215:C:/Users/±è°æ¹Î/Desktop/IFX_S2GL-HW-SW_V1.1.3/Firmware_Software/DAVE project/S2GL_Doppler/Libraries/XMCLib/inc\xmc_usic.h **** 
 216:C:/Users/±è°æ¹Î/Desktop/IFX_S2GL-HW-SW_V1.1.3/Firmware_Software/DAVE project/S2GL_Doppler/Libraries/XMCLib/inc\xmc_usic.h **** /**
 217:C:/Users/±è°æ¹Î/Desktop/IFX_S2GL-HW-SW_V1.1.3/Firmware_Software/DAVE project/S2GL_Doppler/Libraries/XMCLib/inc\xmc_usic.h ****  * USIC channel input combination mode
 218:C:/Users/±è°æ¹Î/Desktop/IFX_S2GL-HW-SW_V1.1.3/Firmware_Software/DAVE project/S2GL_Doppler/Libraries/XMCLib/inc\xmc_usic.h ****  */
 219:C:/Users/±è°æ¹Î/Desktop/IFX_S2GL-HW-SW_V1.1.3/Firmware_Software/DAVE project/S2GL_Doppler/Libraries/XMCLib/inc\xmc_usic.h **** typedef enum XMC_USIC_CH_INPUT_COMBINATION_MODE
 220:C:/Users/±è°æ¹Î/Desktop/IFX_S2GL-HW-SW_V1.1.3/Firmware_Software/DAVE project/S2GL_Doppler/Libraries/XMCLib/inc\xmc_usic.h **** {
 221:C:/Users/±è°æ¹Î/Desktop/IFX_S2GL-HW-SW_V1.1.3/Firmware_Software/DAVE project/S2GL_Doppler/Libraries/XMCLib/inc\xmc_usic.h ****   XMC_USIC_CH_INPUT_COMBINATION_MODE_TRIGGER_DISABLED = 0x0UL, /**< The trigger activation is disab
 222:C:/Users/±è°æ¹Î/Desktop/IFX_S2GL-HW-SW_V1.1.3/Firmware_Software/DAVE project/S2GL_Doppler/Libraries/XMCLib/inc\xmc_usic.h ****   XMC_USIC_CH_INPUT_COMBINATION_MODE_RISING_EDGE      = 0x1UL, /**< A rising edge activates DXnT*/
 223:C:/Users/±è°æ¹Î/Desktop/IFX_S2GL-HW-SW_V1.1.3/Firmware_Software/DAVE project/S2GL_Doppler/Libraries/XMCLib/inc\xmc_usic.h ****   XMC_USIC_CH_INPUT_COMBINATION_MODE_FALLING_EDGE     = 0x2UL, /**< A falling edge activates DXnT*/
 224:C:/Users/±è°æ¹Î/Desktop/IFX_S2GL-HW-SW_V1.1.3/Firmware_Software/DAVE project/S2GL_Doppler/Libraries/XMCLib/inc\xmc_usic.h ****   XMC_USIC_CH_INPUT_COMBINATION_MODE_BOTH_EDGES       = 0x3UL, /**< Both edges activate DXnT*/
 225:C:/Users/±è°æ¹Î/Desktop/IFX_S2GL-HW-SW_V1.1.3/Firmware_Software/DAVE project/S2GL_Doppler/Libraries/XMCLib/inc\xmc_usic.h **** } XMC_USIC_CH_INPUT_COMBINATION_MODE_t;
 226:C:/Users/±è°æ¹Î/Desktop/IFX_S2GL-HW-SW_V1.1.3/Firmware_Software/DAVE project/S2GL_Doppler/Libraries/XMCLib/inc\xmc_usic.h **** 
 227:C:/Users/±è°æ¹Î/Desktop/IFX_S2GL-HW-SW_V1.1.3/Firmware_Software/DAVE project/S2GL_Doppler/Libraries/XMCLib/inc\xmc_usic.h **** /**
 228:C:/Users/±è°æ¹Î/Desktop/IFX_S2GL-HW-SW_V1.1.3/Firmware_Software/DAVE project/S2GL_Doppler/Libraries/XMCLib/inc\xmc_usic.h ****  * USIC channel data transmission start modes.
 229:C:/Users/±è°æ¹Î/Desktop/IFX_S2GL-HW-SW_V1.1.3/Firmware_Software/DAVE project/S2GL_Doppler/Libraries/XMCLib/inc\xmc_usic.h ****  * Data shifted out of the transmit pin depends on the value configured for the
 230:C:/Users/±è°æ¹Î/Desktop/IFX_S2GL-HW-SW_V1.1.3/Firmware_Software/DAVE project/S2GL_Doppler/Libraries/XMCLib/inc\xmc_usic.h ****  * TDEN bitfield of the TCSR register. Following enum values are used for configuring
 231:C:/Users/±è°æ¹Î/Desktop/IFX_S2GL-HW-SW_V1.1.3/Firmware_Software/DAVE project/S2GL_Doppler/Libraries/XMCLib/inc\xmc_usic.h ****  * the TCSR->TDEN bitfield.
 232:C:/Users/±è°æ¹Î/Desktop/IFX_S2GL-HW-SW_V1.1.3/Firmware_Software/DAVE project/S2GL_Doppler/Libraries/XMCLib/inc\xmc_usic.h ****  */
 233:C:/Users/±è°æ¹Î/Desktop/IFX_S2GL-HW-SW_V1.1.3/Firmware_Software/DAVE project/S2GL_Doppler/Libraries/XMCLib/inc\xmc_usic.h **** typedef enum XMC_USIC_CH_START_TRANSMISION_MODE
 234:C:/Users/±è°æ¹Î/Desktop/IFX_S2GL-HW-SW_V1.1.3/Firmware_Software/DAVE project/S2GL_Doppler/Libraries/XMCLib/inc\xmc_usic.h **** {
 235:C:/Users/±è°æ¹Î/Desktop/IFX_S2GL-HW-SW_V1.1.3/Firmware_Software/DAVE project/S2GL_Doppler/Libraries/XMCLib/inc\xmc_usic.h ****   XMC_USIC_CH_START_TRANSMISION_DISABLED      = 0x0U, /**< Passive data level is sent out on transm
 236:C:/Users/±è°æ¹Î/Desktop/IFX_S2GL-HW-SW_V1.1.3/Firmware_Software/DAVE project/S2GL_Doppler/Libraries/XMCLib/inc\xmc_usic.h ****   XMC_USIC_CH_START_TRANSMISION_ON_TDV        = 0x1UL << USIC_CH_TCSR_TDEN_Pos, /**< Transmission o
 237:C:/Users/±è°æ¹Î/Desktop/IFX_S2GL-HW-SW_V1.1.3/Firmware_Software/DAVE project/S2GL_Doppler/Libraries/XMCLib/inc\xmc_usic.h ****   XMC_USIC_CH_START_TRANSMISION_ON_TDV_DX2S_0 = 0x2UL << USIC_CH_TCSR_TDEN_Pos, /**< Transmission o
 238:C:/Users/±è°æ¹Î/Desktop/IFX_S2GL-HW-SW_V1.1.3/Firmware_Software/DAVE project/S2GL_Doppler/Libraries/XMCLib/inc\xmc_usic.h ****   XMC_USIC_CH_START_TRANSMISION_ON_TDV_DX2S_1 = 0x3UL << USIC_CH_TCSR_TDEN_Pos  /**< Transmission o
 239:C:/Users/±è°æ¹Î/Desktop/IFX_S2GL-HW-SW_V1.1.3/Firmware_Software/DAVE project/S2GL_Doppler/Libraries/XMCLib/inc\xmc_usic.h **** } XMC_USIC_CH_START_TRANSMISION_MODE_t;
 240:C:/Users/±è°æ¹Î/Desktop/IFX_S2GL-HW-SW_V1.1.3/Firmware_Software/DAVE project/S2GL_Doppler/Libraries/XMCLib/inc\xmc_usic.h **** 
 241:C:/Users/±è°æ¹Î/Desktop/IFX_S2GL-HW-SW_V1.1.3/Firmware_Software/DAVE project/S2GL_Doppler/Libraries/XMCLib/inc\xmc_usic.h **** /**
 242:C:/Users/±è°æ¹Î/Desktop/IFX_S2GL-HW-SW_V1.1.3/Firmware_Software/DAVE project/S2GL_Doppler/Libraries/XMCLib/inc\xmc_usic.h ****  * USIC channel interrupt node pointers
 243:C:/Users/±è°æ¹Î/Desktop/IFX_S2GL-HW-SW_V1.1.3/Firmware_Software/DAVE project/S2GL_Doppler/Libraries/XMCLib/inc\xmc_usic.h ****  */
 244:C:/Users/±è°æ¹Î/Desktop/IFX_S2GL-HW-SW_V1.1.3/Firmware_Software/DAVE project/S2GL_Doppler/Libraries/XMCLib/inc\xmc_usic.h **** typedef enum XMC_USIC_CH_INTERRUPT_NODE_POINTER
 245:C:/Users/±è°æ¹Î/Desktop/IFX_S2GL-HW-SW_V1.1.3/Firmware_Software/DAVE project/S2GL_Doppler/Libraries/XMCLib/inc\xmc_usic.h **** {
 246:C:/Users/±è°æ¹Î/Desktop/IFX_S2GL-HW-SW_V1.1.3/Firmware_Software/DAVE project/S2GL_Doppler/Libraries/XMCLib/inc\xmc_usic.h ****   XMC_USIC_CH_INTERRUPT_NODE_POINTER_TRANSMIT_SHIFT      = USIC_CH_INPR_TSINP_Pos, /**< Node pointe
 247:C:/Users/±è°æ¹Î/Desktop/IFX_S2GL-HW-SW_V1.1.3/Firmware_Software/DAVE project/S2GL_Doppler/Libraries/XMCLib/inc\xmc_usic.h ****   XMC_USIC_CH_INTERRUPT_NODE_POINTER_TRANSMIT_BUFFER     = USIC_CH_INPR_TBINP_Pos, /**< Node pointe
 248:C:/Users/±è°æ¹Î/Desktop/IFX_S2GL-HW-SW_V1.1.3/Firmware_Software/DAVE project/S2GL_Doppler/Libraries/XMCLib/inc\xmc_usic.h ****   XMC_USIC_CH_INTERRUPT_NODE_POINTER_RECEIVE             = USIC_CH_INPR_RINP_Pos,  /**< Node pointe
 249:C:/Users/±è°æ¹Î/Desktop/IFX_S2GL-HW-SW_V1.1.3/Firmware_Software/DAVE project/S2GL_Doppler/Libraries/XMCLib/inc\xmc_usic.h ****   XMC_USIC_CH_INTERRUPT_NODE_POINTER_ALTERNATE_RECEIVE   = USIC_CH_INPR_AINP_Pos,  /**< Node pointe
 250:C:/Users/±è°æ¹Î/Desktop/IFX_S2GL-HW-SW_V1.1.3/Firmware_Software/DAVE project/S2GL_Doppler/Libraries/XMCLib/inc\xmc_usic.h ****   XMC_USIC_CH_INTERRUPT_NODE_POINTER_PROTOCOL            = USIC_CH_INPR_PINP_Pos   /**< Node pointe
 251:C:/Users/±è°æ¹Î/Desktop/IFX_S2GL-HW-SW_V1.1.3/Firmware_Software/DAVE project/S2GL_Doppler/Libraries/XMCLib/inc\xmc_usic.h **** } XMC_USIC_CH_INTERRUPT_NODE_POINTER_t;
 252:C:/Users/±è°æ¹Î/Desktop/IFX_S2GL-HW-SW_V1.1.3/Firmware_Software/DAVE project/S2GL_Doppler/Libraries/XMCLib/inc\xmc_usic.h **** 
 253:C:/Users/±è°æ¹Î/Desktop/IFX_S2GL-HW-SW_V1.1.3/Firmware_Software/DAVE project/S2GL_Doppler/Libraries/XMCLib/inc\xmc_usic.h **** /**
 254:C:/Users/±è°æ¹Î/Desktop/IFX_S2GL-HW-SW_V1.1.3/Firmware_Software/DAVE project/S2GL_Doppler/Libraries/XMCLib/inc\xmc_usic.h ****  * USIC channel events
 255:C:/Users/±è°æ¹Î/Desktop/IFX_S2GL-HW-SW_V1.1.3/Firmware_Software/DAVE project/S2GL_Doppler/Libraries/XMCLib/inc\xmc_usic.h ****  */
 256:C:/Users/±è°æ¹Î/Desktop/IFX_S2GL-HW-SW_V1.1.3/Firmware_Software/DAVE project/S2GL_Doppler/Libraries/XMCLib/inc\xmc_usic.h **** typedef enum XMC_USIC_CH_EVENT
 257:C:/Users/±è°æ¹Î/Desktop/IFX_S2GL-HW-SW_V1.1.3/Firmware_Software/DAVE project/S2GL_Doppler/Libraries/XMCLib/inc\xmc_usic.h **** {
 258:C:/Users/±è°æ¹Î/Desktop/IFX_S2GL-HW-SW_V1.1.3/Firmware_Software/DAVE project/S2GL_Doppler/Libraries/XMCLib/inc\xmc_usic.h ****   XMC_USIC_CH_EVENT_RECEIVE_START       = USIC_CH_CCR_RSIEN_Msk, /**< Receive start event */
 259:C:/Users/±è°æ¹Î/Desktop/IFX_S2GL-HW-SW_V1.1.3/Firmware_Software/DAVE project/S2GL_Doppler/Libraries/XMCLib/inc\xmc_usic.h ****   XMC_USIC_CH_EVENT_DATA_LOST           = USIC_CH_CCR_DLIEN_Msk, /**< Data lost event */
 260:C:/Users/±è°æ¹Î/Desktop/IFX_S2GL-HW-SW_V1.1.3/Firmware_Software/DAVE project/S2GL_Doppler/Libraries/XMCLib/inc\xmc_usic.h ****   XMC_USIC_CH_EVENT_TRANSMIT_SHIFT      = USIC_CH_CCR_TSIEN_Msk, /**< Transmit shift event */
 261:C:/Users/±è°æ¹Î/Desktop/IFX_S2GL-HW-SW_V1.1.3/Firmware_Software/DAVE project/S2GL_Doppler/Libraries/XMCLib/inc\xmc_usic.h ****   XMC_USIC_CH_EVENT_TRANSMIT_BUFFER     = USIC_CH_CCR_TBIEN_Msk, /**< Transmit buffer event */
 262:C:/Users/±è°æ¹Î/Desktop/IFX_S2GL-HW-SW_V1.1.3/Firmware_Software/DAVE project/S2GL_Doppler/Libraries/XMCLib/inc\xmc_usic.h ****   XMC_USIC_CH_EVENT_STANDARD_RECEIVE    = USIC_CH_CCR_RIEN_Msk,  /**< Receive event */
 263:C:/Users/±è°æ¹Î/Desktop/IFX_S2GL-HW-SW_V1.1.3/Firmware_Software/DAVE project/S2GL_Doppler/Libraries/XMCLib/inc\xmc_usic.h ****   XMC_USIC_CH_EVENT_ALTERNATIVE_RECEIVE = USIC_CH_CCR_AIEN_Msk,  /**< Alternate receive event */
 264:C:/Users/±è°æ¹Î/Desktop/IFX_S2GL-HW-SW_V1.1.3/Firmware_Software/DAVE project/S2GL_Doppler/Libraries/XMCLib/inc\xmc_usic.h ****   XMC_USIC_CH_EVENT_BAUD_RATE_GENERATOR = USIC_CH_CCR_BRGIEN_Msk /**< Baudrate generator event */
 265:C:/Users/±è°æ¹Î/Desktop/IFX_S2GL-HW-SW_V1.1.3/Firmware_Software/DAVE project/S2GL_Doppler/Libraries/XMCLib/inc\xmc_usic.h **** } XMC_USIC_CH_EVENT_t;
 266:C:/Users/±è°æ¹Î/Desktop/IFX_S2GL-HW-SW_V1.1.3/Firmware_Software/DAVE project/S2GL_Doppler/Libraries/XMCLib/inc\xmc_usic.h **** 
 267:C:/Users/±è°æ¹Î/Desktop/IFX_S2GL-HW-SW_V1.1.3/Firmware_Software/DAVE project/S2GL_Doppler/Libraries/XMCLib/inc\xmc_usic.h **** /**
 268:C:/Users/±è°æ¹Î/Desktop/IFX_S2GL-HW-SW_V1.1.3/Firmware_Software/DAVE project/S2GL_Doppler/Libraries/XMCLib/inc\xmc_usic.h **** * USIC channel parity mode
 269:C:/Users/±è°æ¹Î/Desktop/IFX_S2GL-HW-SW_V1.1.3/Firmware_Software/DAVE project/S2GL_Doppler/Libraries/XMCLib/inc\xmc_usic.h **** */
 270:C:/Users/±è°æ¹Î/Desktop/IFX_S2GL-HW-SW_V1.1.3/Firmware_Software/DAVE project/S2GL_Doppler/Libraries/XMCLib/inc\xmc_usic.h **** typedef enum XMC_USIC_CH_PARITY_MODE
 271:C:/Users/±è°æ¹Î/Desktop/IFX_S2GL-HW-SW_V1.1.3/Firmware_Software/DAVE project/S2GL_Doppler/Libraries/XMCLib/inc\xmc_usic.h **** {
 272:C:/Users/±è°æ¹Î/Desktop/IFX_S2GL-HW-SW_V1.1.3/Firmware_Software/DAVE project/S2GL_Doppler/Libraries/XMCLib/inc\xmc_usic.h ****   XMC_USIC_CH_PARITY_MODE_NONE     = 0x0UL,  /**< Disable parity mode */
 273:C:/Users/±è°æ¹Î/Desktop/IFX_S2GL-HW-SW_V1.1.3/Firmware_Software/DAVE project/S2GL_Doppler/Libraries/XMCLib/inc\xmc_usic.h ****   XMC_USIC_CH_PARITY_MODE_EVEN     = 0x2UL << USIC_CH_CCR_PM_Pos,  /**< Enable even parity mode */
 274:C:/Users/±è°æ¹Î/Desktop/IFX_S2GL-HW-SW_V1.1.3/Firmware_Software/DAVE project/S2GL_Doppler/Libraries/XMCLib/inc\xmc_usic.h ****   XMC_USIC_CH_PARITY_MODE_ODD      = 0x3UL << USIC_CH_CCR_PM_Pos   /**< Enable odd parity mode */
 275:C:/Users/±è°æ¹Î/Desktop/IFX_S2GL-HW-SW_V1.1.3/Firmware_Software/DAVE project/S2GL_Doppler/Libraries/XMCLib/inc\xmc_usic.h **** } XMC_USIC_CH_PARITY_MODE_t;
 276:C:/Users/±è°æ¹Î/Desktop/IFX_S2GL-HW-SW_V1.1.3/Firmware_Software/DAVE project/S2GL_Doppler/Libraries/XMCLib/inc\xmc_usic.h **** 
 277:C:/Users/±è°æ¹Î/Desktop/IFX_S2GL-HW-SW_V1.1.3/Firmware_Software/DAVE project/S2GL_Doppler/Libraries/XMCLib/inc\xmc_usic.h **** /**
 278:C:/Users/±è°æ¹Î/Desktop/IFX_S2GL-HW-SW_V1.1.3/Firmware_Software/DAVE project/S2GL_Doppler/Libraries/XMCLib/inc\xmc_usic.h **** * USIC channel data output mode
 279:C:/Users/±è°æ¹Î/Desktop/IFX_S2GL-HW-SW_V1.1.3/Firmware_Software/DAVE project/S2GL_Doppler/Libraries/XMCLib/inc\xmc_usic.h **** */
 280:C:/Users/±è°æ¹Î/Desktop/IFX_S2GL-HW-SW_V1.1.3/Firmware_Software/DAVE project/S2GL_Doppler/Libraries/XMCLib/inc\xmc_usic.h **** typedef enum XMC_USIC_CH_DATA_OUTPUT_MODE
 281:C:/Users/±è°æ¹Î/Desktop/IFX_S2GL-HW-SW_V1.1.3/Firmware_Software/DAVE project/S2GL_Doppler/Libraries/XMCLib/inc\xmc_usic.h **** {
 282:C:/Users/±è°æ¹Î/Desktop/IFX_S2GL-HW-SW_V1.1.3/Firmware_Software/DAVE project/S2GL_Doppler/Libraries/XMCLib/inc\xmc_usic.h ****   XMC_USIC_CH_DATA_OUTPUT_MODE_NORMAL   = 0x0UL,  /**< Data output normal mode */
 283:C:/Users/±è°æ¹Î/Desktop/IFX_S2GL-HW-SW_V1.1.3/Firmware_Software/DAVE project/S2GL_Doppler/Libraries/XMCLib/inc\xmc_usic.h ****   XMC_USIC_CH_DATA_OUTPUT_MODE_INVERTED = 0x1UL << USIC_CH_SCTR_DOCFG_Pos   /**< Data output invert
 284:C:/Users/±è°æ¹Î/Desktop/IFX_S2GL-HW-SW_V1.1.3/Firmware_Software/DAVE project/S2GL_Doppler/Libraries/XMCLib/inc\xmc_usic.h **** } XMC_USIC_CH_DATA_OUTPUT_MODE_t;
 285:C:/Users/±è°æ¹Î/Desktop/IFX_S2GL-HW-SW_V1.1.3/Firmware_Software/DAVE project/S2GL_Doppler/Libraries/XMCLib/inc\xmc_usic.h **** 
 286:C:/Users/±è°æ¹Î/Desktop/IFX_S2GL-HW-SW_V1.1.3/Firmware_Software/DAVE project/S2GL_Doppler/Libraries/XMCLib/inc\xmc_usic.h **** /**
 287:C:/Users/±è°æ¹Î/Desktop/IFX_S2GL-HW-SW_V1.1.3/Firmware_Software/DAVE project/S2GL_Doppler/Libraries/XMCLib/inc\xmc_usic.h **** * USIC channel data transmit buffer status
 288:C:/Users/±è°æ¹Î/Desktop/IFX_S2GL-HW-SW_V1.1.3/Firmware_Software/DAVE project/S2GL_Doppler/Libraries/XMCLib/inc\xmc_usic.h **** */
 289:C:/Users/±è°æ¹Î/Desktop/IFX_S2GL-HW-SW_V1.1.3/Firmware_Software/DAVE project/S2GL_Doppler/Libraries/XMCLib/inc\xmc_usic.h **** typedef enum XMC_USIC_CH_TBUF_STATUS
 290:C:/Users/±è°æ¹Î/Desktop/IFX_S2GL-HW-SW_V1.1.3/Firmware_Software/DAVE project/S2GL_Doppler/Libraries/XMCLib/inc\xmc_usic.h **** {
 291:C:/Users/±è°æ¹Î/Desktop/IFX_S2GL-HW-SW_V1.1.3/Firmware_Software/DAVE project/S2GL_Doppler/Libraries/XMCLib/inc\xmc_usic.h ****   XMC_USIC_CH_TBUF_STATUS_IDLE = 0x0UL,                 /**< Transfer buffer is currently idle*/
 292:C:/Users/±è°æ¹Î/Desktop/IFX_S2GL-HW-SW_V1.1.3/Firmware_Software/DAVE project/S2GL_Doppler/Libraries/XMCLib/inc\xmc_usic.h ****   XMC_USIC_CH_TBUF_STATUS_BUSY = USIC_CH_TCSR_TDV_Msk   /**< Transfer buffer is currently busy*/
 293:C:/Users/±è°æ¹Î/Desktop/IFX_S2GL-HW-SW_V1.1.3/Firmware_Software/DAVE project/S2GL_Doppler/Libraries/XMCLib/inc\xmc_usic.h **** } XMC_USIC_CH_TBUF_STATUS_t;
 294:C:/Users/±è°æ¹Î/Desktop/IFX_S2GL-HW-SW_V1.1.3/Firmware_Software/DAVE project/S2GL_Doppler/Libraries/XMCLib/inc\xmc_usic.h **** 
 295:C:/Users/±è°æ¹Î/Desktop/IFX_S2GL-HW-SW_V1.1.3/Firmware_Software/DAVE project/S2GL_Doppler/Libraries/XMCLib/inc\xmc_usic.h **** 
 296:C:/Users/±è°æ¹Î/Desktop/IFX_S2GL-HW-SW_V1.1.3/Firmware_Software/DAVE project/S2GL_Doppler/Libraries/XMCLib/inc\xmc_usic.h **** 
 297:C:/Users/±è°æ¹Î/Desktop/IFX_S2GL-HW-SW_V1.1.3/Firmware_Software/DAVE project/S2GL_Doppler/Libraries/XMCLib/inc\xmc_usic.h **** /**
 298:C:/Users/±è°æ¹Î/Desktop/IFX_S2GL-HW-SW_V1.1.3/Firmware_Software/DAVE project/S2GL_Doppler/Libraries/XMCLib/inc\xmc_usic.h **** * USIC channel data transmit buffer status modification
 299:C:/Users/±è°æ¹Î/Desktop/IFX_S2GL-HW-SW_V1.1.3/Firmware_Software/DAVE project/S2GL_Doppler/Libraries/XMCLib/inc\xmc_usic.h **** */
 300:C:/Users/±è°æ¹Î/Desktop/IFX_S2GL-HW-SW_V1.1.3/Firmware_Software/DAVE project/S2GL_Doppler/Libraries/XMCLib/inc\xmc_usic.h **** typedef enum XMC_USIC_CH_TBUF_STATUS_SET
 301:C:/Users/±è°æ¹Î/Desktop/IFX_S2GL-HW-SW_V1.1.3/Firmware_Software/DAVE project/S2GL_Doppler/Libraries/XMCLib/inc\xmc_usic.h **** {
 302:C:/Users/±è°æ¹Î/Desktop/IFX_S2GL-HW-SW_V1.1.3/Firmware_Software/DAVE project/S2GL_Doppler/Libraries/XMCLib/inc\xmc_usic.h ****   XMC_USIC_CH_TBUF_STATUS_SET_BUSY   = 0x1UL, /**< Set Transfer buffer status to busy*/
 303:C:/Users/±è°æ¹Î/Desktop/IFX_S2GL-HW-SW_V1.1.3/Firmware_Software/DAVE project/S2GL_Doppler/Libraries/XMCLib/inc\xmc_usic.h ****   XMC_USIC_CH_TBUF_STATUS_SET_IDLE   = 0x2UL  /**< Set Transfer buffer status to idle*/
 304:C:/Users/±è°æ¹Î/Desktop/IFX_S2GL-HW-SW_V1.1.3/Firmware_Software/DAVE project/S2GL_Doppler/Libraries/XMCLib/inc\xmc_usic.h **** } XMC_USIC_CH_TBUF_STATUS_SET_t;
 305:C:/Users/±è°æ¹Î/Desktop/IFX_S2GL-HW-SW_V1.1.3/Firmware_Software/DAVE project/S2GL_Doppler/Libraries/XMCLib/inc\xmc_usic.h **** 
 306:C:/Users/±è°æ¹Î/Desktop/IFX_S2GL-HW-SW_V1.1.3/Firmware_Software/DAVE project/S2GL_Doppler/Libraries/XMCLib/inc\xmc_usic.h **** /**
 307:C:/Users/±è°æ¹Î/Desktop/IFX_S2GL-HW-SW_V1.1.3/Firmware_Software/DAVE project/S2GL_Doppler/Libraries/XMCLib/inc\xmc_usic.h **** * USIC channel receive buffer status
 308:C:/Users/±è°æ¹Î/Desktop/IFX_S2GL-HW-SW_V1.1.3/Firmware_Software/DAVE project/S2GL_Doppler/Libraries/XMCLib/inc\xmc_usic.h **** */
 309:C:/Users/±è°æ¹Î/Desktop/IFX_S2GL-HW-SW_V1.1.3/Firmware_Software/DAVE project/S2GL_Doppler/Libraries/XMCLib/inc\xmc_usic.h **** typedef enum XMC_USIC_CH_RBUF_STATUS
 310:C:/Users/±è°æ¹Î/Desktop/IFX_S2GL-HW-SW_V1.1.3/Firmware_Software/DAVE project/S2GL_Doppler/Libraries/XMCLib/inc\xmc_usic.h **** {
 311:C:/Users/±è°æ¹Î/Desktop/IFX_S2GL-HW-SW_V1.1.3/Firmware_Software/DAVE project/S2GL_Doppler/Libraries/XMCLib/inc\xmc_usic.h ****   XMC_USIC_CH_RBUF_STATUS_DATA_VALID0 = USIC_CH_RBUFSR_RDV0_Msk, /**< RBUF0 data has not yet been r
 312:C:/Users/±è°æ¹Î/Desktop/IFX_S2GL-HW-SW_V1.1.3/Firmware_Software/DAVE project/S2GL_Doppler/Libraries/XMCLib/inc\xmc_usic.h ****   XMC_USIC_CH_RBUF_STATUS_DATA_VALID1 = USIC_CH_RBUFSR_RDV1_Msk  /**< RBUF1 data has not yet been r
 313:C:/Users/±è°æ¹Î/Desktop/IFX_S2GL-HW-SW_V1.1.3/Firmware_Software/DAVE project/S2GL_Doppler/Libraries/XMCLib/inc\xmc_usic.h **** } XMC_USIC_CH_RBUF_STATUS_t;
 314:C:/Users/±è°æ¹Î/Desktop/IFX_S2GL-HW-SW_V1.1.3/Firmware_Software/DAVE project/S2GL_Doppler/Libraries/XMCLib/inc\xmc_usic.h **** 
 315:C:/Users/±è°æ¹Î/Desktop/IFX_S2GL-HW-SW_V1.1.3/Firmware_Software/DAVE project/S2GL_Doppler/Libraries/XMCLib/inc\xmc_usic.h **** /**
 316:C:/Users/±è°æ¹Î/Desktop/IFX_S2GL-HW-SW_V1.1.3/Firmware_Software/DAVE project/S2GL_Doppler/Libraries/XMCLib/inc\xmc_usic.h ****  * USIC channel output signal passive data level
 317:C:/Users/±è°æ¹Î/Desktop/IFX_S2GL-HW-SW_V1.1.3/Firmware_Software/DAVE project/S2GL_Doppler/Libraries/XMCLib/inc\xmc_usic.h **** */
 318:C:/Users/±è°æ¹Î/Desktop/IFX_S2GL-HW-SW_V1.1.3/Firmware_Software/DAVE project/S2GL_Doppler/Libraries/XMCLib/inc\xmc_usic.h **** typedef enum XMC_USCI_CH_PASSIVE_DATA_LEVEL
 319:C:/Users/±è°æ¹Î/Desktop/IFX_S2GL-HW-SW_V1.1.3/Firmware_Software/DAVE project/S2GL_Doppler/Libraries/XMCLib/inc\xmc_usic.h **** {
 320:C:/Users/±è°æ¹Î/Desktop/IFX_S2GL-HW-SW_V1.1.3/Firmware_Software/DAVE project/S2GL_Doppler/Libraries/XMCLib/inc\xmc_usic.h ****   XMC_USIC_CH_PASSIVE_DATA_LEVEL0 = 0x0UL, /**< Passive level(idle mode signal level) 0 */
 321:C:/Users/±è°æ¹Î/Desktop/IFX_S2GL-HW-SW_V1.1.3/Firmware_Software/DAVE project/S2GL_Doppler/Libraries/XMCLib/inc\xmc_usic.h ****   XMC_USIC_CH_PASSIVE_DATA_LEVEL1 = 0x1UL << USIC_CH_SCTR_PDL_Pos  /**< Passive level(idle mode sig
 322:C:/Users/±è°æ¹Î/Desktop/IFX_S2GL-HW-SW_V1.1.3/Firmware_Software/DAVE project/S2GL_Doppler/Libraries/XMCLib/inc\xmc_usic.h **** } XMC_USIC_CH_PASSIVE_DATA_LEVEL_t;
 323:C:/Users/±è°æ¹Î/Desktop/IFX_S2GL-HW-SW_V1.1.3/Firmware_Software/DAVE project/S2GL_Doppler/Libraries/XMCLib/inc\xmc_usic.h **** 
 324:C:/Users/±è°æ¹Î/Desktop/IFX_S2GL-HW-SW_V1.1.3/Firmware_Software/DAVE project/S2GL_Doppler/Libraries/XMCLib/inc\xmc_usic.h **** /**
 325:C:/Users/±è°æ¹Î/Desktop/IFX_S2GL-HW-SW_V1.1.3/Firmware_Software/DAVE project/S2GL_Doppler/Libraries/XMCLib/inc\xmc_usic.h **** * USIC channel receive FIFO size
 326:C:/Users/±è°æ¹Î/Desktop/IFX_S2GL-HW-SW_V1.1.3/Firmware_Software/DAVE project/S2GL_Doppler/Libraries/XMCLib/inc\xmc_usic.h **** */
 327:C:/Users/±è°æ¹Î/Desktop/IFX_S2GL-HW-SW_V1.1.3/Firmware_Software/DAVE project/S2GL_Doppler/Libraries/XMCLib/inc\xmc_usic.h **** typedef enum XMC_USIC_CH_FIFO_SIZE
 328:C:/Users/±è°æ¹Î/Desktop/IFX_S2GL-HW-SW_V1.1.3/Firmware_Software/DAVE project/S2GL_Doppler/Libraries/XMCLib/inc\xmc_usic.h **** {
 329:C:/Users/±è°æ¹Î/Desktop/IFX_S2GL-HW-SW_V1.1.3/Firmware_Software/DAVE project/S2GL_Doppler/Libraries/XMCLib/inc\xmc_usic.h ****   XMC_USIC_CH_FIFO_DISABLED     = 0x0U,  /**< FIFO Disabled */
 330:C:/Users/±è°æ¹Î/Desktop/IFX_S2GL-HW-SW_V1.1.3/Firmware_Software/DAVE project/S2GL_Doppler/Libraries/XMCLib/inc\xmc_usic.h ****   XMC_USIC_CH_FIFO_SIZE_2WORDS  = 0x1U,  /**< FIFO size: 2 words */
 331:C:/Users/±è°æ¹Î/Desktop/IFX_S2GL-HW-SW_V1.1.3/Firmware_Software/DAVE project/S2GL_Doppler/Libraries/XMCLib/inc\xmc_usic.h ****   XMC_USIC_CH_FIFO_SIZE_4WORDS  = 0x2U,  /**< FIFO size: 4 words */
 332:C:/Users/±è°æ¹Î/Desktop/IFX_S2GL-HW-SW_V1.1.3/Firmware_Software/DAVE project/S2GL_Doppler/Libraries/XMCLib/inc\xmc_usic.h ****   XMC_USIC_CH_FIFO_SIZE_8WORDS  = 0x3U,  /**< FIFO size: 8 words */
 333:C:/Users/±è°æ¹Î/Desktop/IFX_S2GL-HW-SW_V1.1.3/Firmware_Software/DAVE project/S2GL_Doppler/Libraries/XMCLib/inc\xmc_usic.h ****   XMC_USIC_CH_FIFO_SIZE_16WORDS = 0x4U,  /**< FIFO size: 16 words */
 334:C:/Users/±è°æ¹Î/Desktop/IFX_S2GL-HW-SW_V1.1.3/Firmware_Software/DAVE project/S2GL_Doppler/Libraries/XMCLib/inc\xmc_usic.h ****   XMC_USIC_CH_FIFO_SIZE_32WORDS = 0x5U,  /**< FIFO size: 32 words */
 335:C:/Users/±è°æ¹Î/Desktop/IFX_S2GL-HW-SW_V1.1.3/Firmware_Software/DAVE project/S2GL_Doppler/Libraries/XMCLib/inc\xmc_usic.h ****   XMC_USIC_CH_FIFO_SIZE_64WORDS = 0x6U   /**< FIFO size: 64 words */
 336:C:/Users/±è°æ¹Î/Desktop/IFX_S2GL-HW-SW_V1.1.3/Firmware_Software/DAVE project/S2GL_Doppler/Libraries/XMCLib/inc\xmc_usic.h **** } XMC_USIC_CH_FIFO_SIZE_t;
 337:C:/Users/±è°æ¹Î/Desktop/IFX_S2GL-HW-SW_V1.1.3/Firmware_Software/DAVE project/S2GL_Doppler/Libraries/XMCLib/inc\xmc_usic.h **** 
 338:C:/Users/±è°æ¹Î/Desktop/IFX_S2GL-HW-SW_V1.1.3/Firmware_Software/DAVE project/S2GL_Doppler/Libraries/XMCLib/inc\xmc_usic.h **** /**
 339:C:/Users/±è°æ¹Î/Desktop/IFX_S2GL-HW-SW_V1.1.3/Firmware_Software/DAVE project/S2GL_Doppler/Libraries/XMCLib/inc\xmc_usic.h **** * USIC channel transmit FIFO interrupt node pointers
 340:C:/Users/±è°æ¹Î/Desktop/IFX_S2GL-HW-SW_V1.1.3/Firmware_Software/DAVE project/S2GL_Doppler/Libraries/XMCLib/inc\xmc_usic.h **** */
 341:C:/Users/±è°æ¹Î/Desktop/IFX_S2GL-HW-SW_V1.1.3/Firmware_Software/DAVE project/S2GL_Doppler/Libraries/XMCLib/inc\xmc_usic.h **** typedef enum XMC_USIC_CH_TXFIFO_INTERRUPT_NODE_POINTER
 342:C:/Users/±è°æ¹Î/Desktop/IFX_S2GL-HW-SW_V1.1.3/Firmware_Software/DAVE project/S2GL_Doppler/Libraries/XMCLib/inc\xmc_usic.h **** {
 343:C:/Users/±è°æ¹Î/Desktop/IFX_S2GL-HW-SW_V1.1.3/Firmware_Software/DAVE project/S2GL_Doppler/Libraries/XMCLib/inc\xmc_usic.h ****   XMC_USIC_CH_TXFIFO_INTERRUPT_NODE_POINTER_STANDARD  = USIC_CH_TBCTR_STBINP_Pos,  /**< Node pointe
 344:C:/Users/±è°æ¹Î/Desktop/IFX_S2GL-HW-SW_V1.1.3/Firmware_Software/DAVE project/S2GL_Doppler/Libraries/XMCLib/inc\xmc_usic.h ****   XMC_USIC_CH_TXFIFO_INTERRUPT_NODE_POINTER_ALTERNATE = USIC_CH_TBCTR_ATBINP_Pos   /**< Node pointe
 345:C:/Users/±è°æ¹Î/Desktop/IFX_S2GL-HW-SW_V1.1.3/Firmware_Software/DAVE project/S2GL_Doppler/Libraries/XMCLib/inc\xmc_usic.h **** } XMC_USIC_CH_TXFIFO_INTERRUPT_NODE_POINTER_t;
 346:C:/Users/±è°æ¹Î/Desktop/IFX_S2GL-HW-SW_V1.1.3/Firmware_Software/DAVE project/S2GL_Doppler/Libraries/XMCLib/inc\xmc_usic.h **** 
 347:C:/Users/±è°æ¹Î/Desktop/IFX_S2GL-HW-SW_V1.1.3/Firmware_Software/DAVE project/S2GL_Doppler/Libraries/XMCLib/inc\xmc_usic.h **** /**
 348:C:/Users/±è°æ¹Î/Desktop/IFX_S2GL-HW-SW_V1.1.3/Firmware_Software/DAVE project/S2GL_Doppler/Libraries/XMCLib/inc\xmc_usic.h **** * USIC channel transmit FIFO event configuration
 349:C:/Users/±è°æ¹Î/Desktop/IFX_S2GL-HW-SW_V1.1.3/Firmware_Software/DAVE project/S2GL_Doppler/Libraries/XMCLib/inc\xmc_usic.h **** */
 350:C:/Users/±è°æ¹Î/Desktop/IFX_S2GL-HW-SW_V1.1.3/Firmware_Software/DAVE project/S2GL_Doppler/Libraries/XMCLib/inc\xmc_usic.h **** typedef enum XMC_USIC_CH_TXFIFO_EVENT_CONF
 351:C:/Users/±è°æ¹Î/Desktop/IFX_S2GL-HW-SW_V1.1.3/Firmware_Software/DAVE project/S2GL_Doppler/Libraries/XMCLib/inc\xmc_usic.h **** {
 352:C:/Users/±è°æ¹Î/Desktop/IFX_S2GL-HW-SW_V1.1.3/Firmware_Software/DAVE project/S2GL_Doppler/Libraries/XMCLib/inc\xmc_usic.h ****   XMC_USIC_CH_TXFIFO_EVENT_CONF_STANDARD  = USIC_CH_TBCTR_STBIEN_Msk,   /**< Enable FIFO standard t
 353:C:/Users/±è°æ¹Î/Desktop/IFX_S2GL-HW-SW_V1.1.3/Firmware_Software/DAVE project/S2GL_Doppler/Libraries/XMCLib/inc\xmc_usic.h ****   XMC_USIC_CH_TXFIFO_EVENT_CONF_ERROR     = (int32_t)USIC_CH_TBCTR_TBERIEN_Msk  /**< Enable transmi
 354:C:/Users/±è°æ¹Î/Desktop/IFX_S2GL-HW-SW_V1.1.3/Firmware_Software/DAVE project/S2GL_Doppler/Libraries/XMCLib/inc\xmc_usic.h **** } XMC_USIC_CH_TXFIFO_EVENT_CONF_t;
 355:C:/Users/±è°æ¹Î/Desktop/IFX_S2GL-HW-SW_V1.1.3/Firmware_Software/DAVE project/S2GL_Doppler/Libraries/XMCLib/inc\xmc_usic.h **** 
 356:C:/Users/±è°æ¹Î/Desktop/IFX_S2GL-HW-SW_V1.1.3/Firmware_Software/DAVE project/S2GL_Doppler/Libraries/XMCLib/inc\xmc_usic.h **** /**
 357:C:/Users/±è°æ¹Î/Desktop/IFX_S2GL-HW-SW_V1.1.3/Firmware_Software/DAVE project/S2GL_Doppler/Libraries/XMCLib/inc\xmc_usic.h **** * USIC channel transmit FIFO status
 358:C:/Users/±è°æ¹Î/Desktop/IFX_S2GL-HW-SW_V1.1.3/Firmware_Software/DAVE project/S2GL_Doppler/Libraries/XMCLib/inc\xmc_usic.h **** */
 359:C:/Users/±è°æ¹Î/Desktop/IFX_S2GL-HW-SW_V1.1.3/Firmware_Software/DAVE project/S2GL_Doppler/Libraries/XMCLib/inc\xmc_usic.h **** typedef enum XMC_USIC_CH_TXFIFO_EVENT
 360:C:/Users/±è°æ¹Î/Desktop/IFX_S2GL-HW-SW_V1.1.3/Firmware_Software/DAVE project/S2GL_Doppler/Libraries/XMCLib/inc\xmc_usic.h **** {
 361:C:/Users/±è°æ¹Î/Desktop/IFX_S2GL-HW-SW_V1.1.3/Firmware_Software/DAVE project/S2GL_Doppler/Libraries/XMCLib/inc\xmc_usic.h ****   XMC_USIC_CH_TXFIFO_EVENT_STANDARD = USIC_CH_TRBSR_STBI_Msk,    /**< Transmit FIFO status: Standar
 362:C:/Users/±è°æ¹Î/Desktop/IFX_S2GL-HW-SW_V1.1.3/Firmware_Software/DAVE project/S2GL_Doppler/Libraries/XMCLib/inc\xmc_usic.h ****   XMC_USIC_CH_TXFIFO_EVENT_ERROR    = USIC_CH_TRBSR_TBERI_Msk    /**< Transmit FIFO status: Error e
 363:C:/Users/±è°æ¹Î/Desktop/IFX_S2GL-HW-SW_V1.1.3/Firmware_Software/DAVE project/S2GL_Doppler/Libraries/XMCLib/inc\xmc_usic.h **** } XMC_USIC_CH_TXFIFO_EVENT_t;
 364:C:/Users/±è°æ¹Î/Desktop/IFX_S2GL-HW-SW_V1.1.3/Firmware_Software/DAVE project/S2GL_Doppler/Libraries/XMCLib/inc\xmc_usic.h **** 
 365:C:/Users/±è°æ¹Î/Desktop/IFX_S2GL-HW-SW_V1.1.3/Firmware_Software/DAVE project/S2GL_Doppler/Libraries/XMCLib/inc\xmc_usic.h **** /**
 366:C:/Users/±è°æ¹Î/Desktop/IFX_S2GL-HW-SW_V1.1.3/Firmware_Software/DAVE project/S2GL_Doppler/Libraries/XMCLib/inc\xmc_usic.h **** * USIC channel receive FIFO interrupt node pointers
 367:C:/Users/±è°æ¹Î/Desktop/IFX_S2GL-HW-SW_V1.1.3/Firmware_Software/DAVE project/S2GL_Doppler/Libraries/XMCLib/inc\xmc_usic.h **** */
 368:C:/Users/±è°æ¹Î/Desktop/IFX_S2GL-HW-SW_V1.1.3/Firmware_Software/DAVE project/S2GL_Doppler/Libraries/XMCLib/inc\xmc_usic.h **** typedef enum XMC_USIC_CH_RXFIFO_INTERRUPT_NODE_POINTER
 369:C:/Users/±è°æ¹Î/Desktop/IFX_S2GL-HW-SW_V1.1.3/Firmware_Software/DAVE project/S2GL_Doppler/Libraries/XMCLib/inc\xmc_usic.h **** {
 370:C:/Users/±è°æ¹Î/Desktop/IFX_S2GL-HW-SW_V1.1.3/Firmware_Software/DAVE project/S2GL_Doppler/Libraries/XMCLib/inc\xmc_usic.h ****   XMC_USIC_CH_RXFIFO_INTERRUPT_NODE_POINTER_STANDARD  = USIC_CH_RBCTR_SRBINP_Pos, /**< Node pointer
 371:C:/Users/±è°æ¹Î/Desktop/IFX_S2GL-HW-SW_V1.1.3/Firmware_Software/DAVE project/S2GL_Doppler/Libraries/XMCLib/inc\xmc_usic.h ****   XMC_USIC_CH_RXFIFO_INTERRUPT_NODE_POINTER_ALTERNATE = USIC_CH_RBCTR_ARBINP_Pos  /**< Node pointer
 372:C:/Users/±è°æ¹Î/Desktop/IFX_S2GL-HW-SW_V1.1.3/Firmware_Software/DAVE project/S2GL_Doppler/Libraries/XMCLib/inc\xmc_usic.h **** } XMC_USIC_CH_RXFIFO_INTERRUPT_NODE_POINTER_t;
 373:C:/Users/±è°æ¹Î/Desktop/IFX_S2GL-HW-SW_V1.1.3/Firmware_Software/DAVE project/S2GL_Doppler/Libraries/XMCLib/inc\xmc_usic.h **** 
 374:C:/Users/±è°æ¹Î/Desktop/IFX_S2GL-HW-SW_V1.1.3/Firmware_Software/DAVE project/S2GL_Doppler/Libraries/XMCLib/inc\xmc_usic.h **** /**
 375:C:/Users/±è°æ¹Î/Desktop/IFX_S2GL-HW-SW_V1.1.3/Firmware_Software/DAVE project/S2GL_Doppler/Libraries/XMCLib/inc\xmc_usic.h **** * USIC channel receive FIFO event configuration
 376:C:/Users/±è°æ¹Î/Desktop/IFX_S2GL-HW-SW_V1.1.3/Firmware_Software/DAVE project/S2GL_Doppler/Libraries/XMCLib/inc\xmc_usic.h **** */
 377:C:/Users/±è°æ¹Î/Desktop/IFX_S2GL-HW-SW_V1.1.3/Firmware_Software/DAVE project/S2GL_Doppler/Libraries/XMCLib/inc\xmc_usic.h **** typedef enum XMC_USIC_CH_RXFIFO_EVENT_CONF
 378:C:/Users/±è°æ¹Î/Desktop/IFX_S2GL-HW-SW_V1.1.3/Firmware_Software/DAVE project/S2GL_Doppler/Libraries/XMCLib/inc\xmc_usic.h **** {
 379:C:/Users/±è°æ¹Î/Desktop/IFX_S2GL-HW-SW_V1.1.3/Firmware_Software/DAVE project/S2GL_Doppler/Libraries/XMCLib/inc\xmc_usic.h ****   XMC_USIC_CH_RXFIFO_EVENT_CONF_STANDARD  = USIC_CH_RBCTR_SRBIEN_Msk,   /**< Enable FIFO standard r
 380:C:/Users/±è°æ¹Î/Desktop/IFX_S2GL-HW-SW_V1.1.3/Firmware_Software/DAVE project/S2GL_Doppler/Libraries/XMCLib/inc\xmc_usic.h ****   XMC_USIC_CH_RXFIFO_EVENT_CONF_ERROR     = (int32_t)USIC_CH_RBCTR_RBERIEN_Msk,  /**< Enable receiv
 381:C:/Users/±è°æ¹Î/Desktop/IFX_S2GL-HW-SW_V1.1.3/Firmware_Software/DAVE project/S2GL_Doppler/Libraries/XMCLib/inc\xmc_usic.h ****   XMC_USIC_CH_RXFIFO_EVENT_CONF_ALTERNATE = USIC_CH_RBCTR_ARBIEN_Msk   /**< Enable FIFO alternative
 382:C:/Users/±è°æ¹Î/Desktop/IFX_S2GL-HW-SW_V1.1.3/Firmware_Software/DAVE project/S2GL_Doppler/Libraries/XMCLib/inc\xmc_usic.h **** } XMC_USIC_CH_RXFIFO_EVENT_CONF_t;
 383:C:/Users/±è°æ¹Î/Desktop/IFX_S2GL-HW-SW_V1.1.3/Firmware_Software/DAVE project/S2GL_Doppler/Libraries/XMCLib/inc\xmc_usic.h **** 
 384:C:/Users/±è°æ¹Î/Desktop/IFX_S2GL-HW-SW_V1.1.3/Firmware_Software/DAVE project/S2GL_Doppler/Libraries/XMCLib/inc\xmc_usic.h **** /**
 385:C:/Users/±è°æ¹Î/Desktop/IFX_S2GL-HW-SW_V1.1.3/Firmware_Software/DAVE project/S2GL_Doppler/Libraries/XMCLib/inc\xmc_usic.h **** * USIC channel receive FIFO status
 386:C:/Users/±è°æ¹Î/Desktop/IFX_S2GL-HW-SW_V1.1.3/Firmware_Software/DAVE project/S2GL_Doppler/Libraries/XMCLib/inc\xmc_usic.h **** */
 387:C:/Users/±è°æ¹Î/Desktop/IFX_S2GL-HW-SW_V1.1.3/Firmware_Software/DAVE project/S2GL_Doppler/Libraries/XMCLib/inc\xmc_usic.h **** typedef enum XMC_USIC_CH_RXFIFO_EVENT
 388:C:/Users/±è°æ¹Î/Desktop/IFX_S2GL-HW-SW_V1.1.3/Firmware_Software/DAVE project/S2GL_Doppler/Libraries/XMCLib/inc\xmc_usic.h **** {
 389:C:/Users/±è°æ¹Î/Desktop/IFX_S2GL-HW-SW_V1.1.3/Firmware_Software/DAVE project/S2GL_Doppler/Libraries/XMCLib/inc\xmc_usic.h ****   XMC_USIC_CH_RXFIFO_EVENT_STANDARD  = USIC_CH_TRBSR_SRBI_Msk,   /**< Receive FIFO status: Standard
 390:C:/Users/±è°æ¹Î/Desktop/IFX_S2GL-HW-SW_V1.1.3/Firmware_Software/DAVE project/S2GL_Doppler/Libraries/XMCLib/inc\xmc_usic.h ****   XMC_USIC_CH_RXFIFO_EVENT_ERROR     = USIC_CH_TRBSR_RBERI_Msk,  /**< Receive FIFO status: Error ev
 391:C:/Users/±è°æ¹Î/Desktop/IFX_S2GL-HW-SW_V1.1.3/Firmware_Software/DAVE project/S2GL_Doppler/Libraries/XMCLib/inc\xmc_usic.h ****   XMC_USIC_CH_RXFIFO_EVENT_ALTERNATE = USIC_CH_TRBSR_ARBI_Msk    /**< Receive FIFO status: Alternat
 392:C:/Users/±è°æ¹Î/Desktop/IFX_S2GL-HW-SW_V1.1.3/Firmware_Software/DAVE project/S2GL_Doppler/Libraries/XMCLib/inc\xmc_usic.h **** } XMC_USIC_CH_RXFIFO_EVENT_t;
 393:C:/Users/±è°æ¹Î/Desktop/IFX_S2GL-HW-SW_V1.1.3/Firmware_Software/DAVE project/S2GL_Doppler/Libraries/XMCLib/inc\xmc_usic.h **** 
 394:C:/Users/±è°æ¹Î/Desktop/IFX_S2GL-HW-SW_V1.1.3/Firmware_Software/DAVE project/S2GL_Doppler/Libraries/XMCLib/inc\xmc_usic.h **** /**
 395:C:/Users/±è°æ¹Î/Desktop/IFX_S2GL-HW-SW_V1.1.3/Firmware_Software/DAVE project/S2GL_Doppler/Libraries/XMCLib/inc\xmc_usic.h **** * USIC channel baudrate generator clock source
 396:C:/Users/±è°æ¹Î/Desktop/IFX_S2GL-HW-SW_V1.1.3/Firmware_Software/DAVE project/S2GL_Doppler/Libraries/XMCLib/inc\xmc_usic.h **** */
 397:C:/Users/±è°æ¹Î/Desktop/IFX_S2GL-HW-SW_V1.1.3/Firmware_Software/DAVE project/S2GL_Doppler/Libraries/XMCLib/inc\xmc_usic.h **** typedef enum XMC_USIC_CH_BRG_CLOCK_SOURCE
 398:C:/Users/±è°æ¹Î/Desktop/IFX_S2GL-HW-SW_V1.1.3/Firmware_Software/DAVE project/S2GL_Doppler/Libraries/XMCLib/inc\xmc_usic.h **** {
 399:C:/Users/±è°æ¹Î/Desktop/IFX_S2GL-HW-SW_V1.1.3/Firmware_Software/DAVE project/S2GL_Doppler/Libraries/XMCLib/inc\xmc_usic.h ****   XMC_USIC_CH_BRG_CLOCK_SOURCE_DIVIDER = 0x0UL, /**< Baudrate generator clock source : Source divid
 400:C:/Users/±è°æ¹Î/Desktop/IFX_S2GL-HW-SW_V1.1.3/Firmware_Software/DAVE project/S2GL_Doppler/Libraries/XMCLib/inc\xmc_usic.h ****   XMC_USIC_CH_BRG_CLOCK_SOURCE_DX1T    = 0x2UL << USIC_CH_BRG_CLKSEL_Pos  /**< Baudrate generator c
 401:C:/Users/±è°æ¹Î/Desktop/IFX_S2GL-HW-SW_V1.1.3/Firmware_Software/DAVE project/S2GL_Doppler/Libraries/XMCLib/inc\xmc_usic.h **** } XMC_USIC_CH_BRG_CLOCK_SOURCE_t;
 402:C:/Users/±è°æ¹Î/Desktop/IFX_S2GL-HW-SW_V1.1.3/Firmware_Software/DAVE project/S2GL_Doppler/Libraries/XMCLib/inc\xmc_usic.h **** 
 403:C:/Users/±è°æ¹Î/Desktop/IFX_S2GL-HW-SW_V1.1.3/Firmware_Software/DAVE project/S2GL_Doppler/Libraries/XMCLib/inc\xmc_usic.h **** /**
 404:C:/Users/±è°æ¹Î/Desktop/IFX_S2GL-HW-SW_V1.1.3/Firmware_Software/DAVE project/S2GL_Doppler/Libraries/XMCLib/inc\xmc_usic.h **** * USIC channel baudrate generator divider mode
 405:C:/Users/±è°æ¹Î/Desktop/IFX_S2GL-HW-SW_V1.1.3/Firmware_Software/DAVE project/S2GL_Doppler/Libraries/XMCLib/inc\xmc_usic.h **** */
 406:C:/Users/±è°æ¹Î/Desktop/IFX_S2GL-HW-SW_V1.1.3/Firmware_Software/DAVE project/S2GL_Doppler/Libraries/XMCLib/inc\xmc_usic.h **** typedef enum XMC_USIC_CH_BRG_CLOCK_DIVIDER_MODE
 407:C:/Users/±è°æ¹Î/Desktop/IFX_S2GL-HW-SW_V1.1.3/Firmware_Software/DAVE project/S2GL_Doppler/Libraries/XMCLib/inc\xmc_usic.h **** {
 408:C:/Users/±è°æ¹Î/Desktop/IFX_S2GL-HW-SW_V1.1.3/Firmware_Software/DAVE project/S2GL_Doppler/Libraries/XMCLib/inc\xmc_usic.h ****   XMC_USIC_CH_BRG_CLOCK_DIVIDER_MODE_DISABLED   = 0x0UL, /**< Baudrate generator clock divider: Dis
 409:C:/Users/±è°æ¹Î/Desktop/IFX_S2GL-HW-SW_V1.1.3/Firmware_Software/DAVE project/S2GL_Doppler/Libraries/XMCLib/inc\xmc_usic.h ****   XMC_USIC_CH_BRG_CLOCK_DIVIDER_MODE_NORMAL     = 0x1UL << USIC_CH_FDR_DM_Pos, /**< Baudrate genera
 410:C:/Users/±è°æ¹Î/Desktop/IFX_S2GL-HW-SW_V1.1.3/Firmware_Software/DAVE project/S2GL_Doppler/Libraries/XMCLib/inc\xmc_usic.h ****   XMC_USIC_CH_BRG_CLOCK_DIVIDER_MODE_FRACTIONAL = 0x2UL << USIC_CH_FDR_DM_Pos  /**< Baudrate genera
 411:C:/Users/±è°æ¹Î/Desktop/IFX_S2GL-HW-SW_V1.1.3/Firmware_Software/DAVE project/S2GL_Doppler/Libraries/XMCLib/inc\xmc_usic.h **** } XMC_USIC_CH_BRG_CLOCK_DIVIDER_MODE_t;
 412:C:/Users/±è°æ¹Î/Desktop/IFX_S2GL-HW-SW_V1.1.3/Firmware_Software/DAVE project/S2GL_Doppler/Libraries/XMCLib/inc\xmc_usic.h **** 
 413:C:/Users/±è°æ¹Î/Desktop/IFX_S2GL-HW-SW_V1.1.3/Firmware_Software/DAVE project/S2GL_Doppler/Libraries/XMCLib/inc\xmc_usic.h **** /**
 414:C:/Users/±è°æ¹Î/Desktop/IFX_S2GL-HW-SW_V1.1.3/Firmware_Software/DAVE project/S2GL_Doppler/Libraries/XMCLib/inc\xmc_usic.h **** * USIC channel baudrate generator master clock passive level
 415:C:/Users/±è°æ¹Î/Desktop/IFX_S2GL-HW-SW_V1.1.3/Firmware_Software/DAVE project/S2GL_Doppler/Libraries/XMCLib/inc\xmc_usic.h **** */
 416:C:/Users/±è°æ¹Î/Desktop/IFX_S2GL-HW-SW_V1.1.3/Firmware_Software/DAVE project/S2GL_Doppler/Libraries/XMCLib/inc\xmc_usic.h **** typedef enum XMC_USIC_CH_BRG_MASTER_CLOCK_PASSIVE_LEVEL
 417:C:/Users/±è°æ¹Î/Desktop/IFX_S2GL-HW-SW_V1.1.3/Firmware_Software/DAVE project/S2GL_Doppler/Libraries/XMCLib/inc\xmc_usic.h **** {
 418:C:/Users/±è°æ¹Î/Desktop/IFX_S2GL-HW-SW_V1.1.3/Firmware_Software/DAVE project/S2GL_Doppler/Libraries/XMCLib/inc\xmc_usic.h ****   XMC_USIC_CH_BRG_MASTER_CLOCK_PASSIVE_LEVEL_0 = 0x0UL, /**< Baudrate generator master clock passiv
 419:C:/Users/±è°æ¹Î/Desktop/IFX_S2GL-HW-SW_V1.1.3/Firmware_Software/DAVE project/S2GL_Doppler/Libraries/XMCLib/inc\xmc_usic.h ****   XMC_USIC_CH_BRG_MASTER_CLOCK_PASSIVE_LEVEL_1 = 0x1UL << USIC_CH_BRG_MCLKCFG_Pos  /**< Baudrate ge
 420:C:/Users/±è°æ¹Î/Desktop/IFX_S2GL-HW-SW_V1.1.3/Firmware_Software/DAVE project/S2GL_Doppler/Libraries/XMCLib/inc\xmc_usic.h **** } XMC_USIC_CH_BRG_MASTER_CLOCK_PASSIVE_LEVEL_t;
 421:C:/Users/±è°æ¹Î/Desktop/IFX_S2GL-HW-SW_V1.1.3/Firmware_Software/DAVE project/S2GL_Doppler/Libraries/XMCLib/inc\xmc_usic.h **** 
 422:C:/Users/±è°æ¹Î/Desktop/IFX_S2GL-HW-SW_V1.1.3/Firmware_Software/DAVE project/S2GL_Doppler/Libraries/XMCLib/inc\xmc_usic.h **** /**
 423:C:/Users/±è°æ¹Î/Desktop/IFX_S2GL-HW-SW_V1.1.3/Firmware_Software/DAVE project/S2GL_Doppler/Libraries/XMCLib/inc\xmc_usic.h **** * USIC channel baudrate generator shift clock passive level
 424:C:/Users/±è°æ¹Î/Desktop/IFX_S2GL-HW-SW_V1.1.3/Firmware_Software/DAVE project/S2GL_Doppler/Libraries/XMCLib/inc\xmc_usic.h **** */
 425:C:/Users/±è°æ¹Î/Desktop/IFX_S2GL-HW-SW_V1.1.3/Firmware_Software/DAVE project/S2GL_Doppler/Libraries/XMCLib/inc\xmc_usic.h **** typedef enum XMC_USIC_CH_BRG_SHIFT_CLOCK_PASSIVE_LEVEL
 426:C:/Users/±è°æ¹Î/Desktop/IFX_S2GL-HW-SW_V1.1.3/Firmware_Software/DAVE project/S2GL_Doppler/Libraries/XMCLib/inc\xmc_usic.h **** {
 427:C:/Users/±è°æ¹Î/Desktop/IFX_S2GL-HW-SW_V1.1.3/Firmware_Software/DAVE project/S2GL_Doppler/Libraries/XMCLib/inc\xmc_usic.h ****   XMC_USIC_CH_BRG_SHIFT_CLOCK_PASSIVE_LEVEL_0_DELAY_DISABLED = 0x0UL, /**< Shift clock passive leve
 428:C:/Users/±è°æ¹Î/Desktop/IFX_S2GL-HW-SW_V1.1.3/Firmware_Software/DAVE project/S2GL_Doppler/Libraries/XMCLib/inc\xmc_usic.h ****   XMC_USIC_CH_BRG_SHIFT_CLOCK_PASSIVE_LEVEL_1_DELAY_DISABLED = 0x1UL << USIC_CH_BRG_SCLKCFG_Pos, /*
 429:C:/Users/±è°æ¹Î/Desktop/IFX_S2GL-HW-SW_V1.1.3/Firmware_Software/DAVE project/S2GL_Doppler/Libraries/XMCLib/inc\xmc_usic.h ****   XMC_USIC_CH_BRG_SHIFT_CLOCK_PASSIVE_LEVEL_0_DELAY_ENABLED  = (int32_t)(0x2UL << USIC_CH_BRG_SCLKC
 430:C:/Users/±è°æ¹Î/Desktop/IFX_S2GL-HW-SW_V1.1.3/Firmware_Software/DAVE project/S2GL_Doppler/Libraries/XMCLib/inc\xmc_usic.h ****   XMC_USIC_CH_BRG_SHIFT_CLOCK_PASSIVE_LEVEL_1_DELAY_ENABLED  = (int32_t)(0x3UL << USIC_CH_BRG_SCLKC
 431:C:/Users/±è°æ¹Î/Desktop/IFX_S2GL-HW-SW_V1.1.3/Firmware_Software/DAVE project/S2GL_Doppler/Libraries/XMCLib/inc\xmc_usic.h **** } XMC_USIC_CH_BRG_SHIFT_CLOCK_PASSIVE_LEVEL_t;
 432:C:/Users/±è°æ¹Î/Desktop/IFX_S2GL-HW-SW_V1.1.3/Firmware_Software/DAVE project/S2GL_Doppler/Libraries/XMCLib/inc\xmc_usic.h **** 
 433:C:/Users/±è°æ¹Î/Desktop/IFX_S2GL-HW-SW_V1.1.3/Firmware_Software/DAVE project/S2GL_Doppler/Libraries/XMCLib/inc\xmc_usic.h **** /**
 434:C:/Users/±è°æ¹Î/Desktop/IFX_S2GL-HW-SW_V1.1.3/Firmware_Software/DAVE project/S2GL_Doppler/Libraries/XMCLib/inc\xmc_usic.h **** * USIC channel baudrate generator shift clock output
 435:C:/Users/±è°æ¹Î/Desktop/IFX_S2GL-HW-SW_V1.1.3/Firmware_Software/DAVE project/S2GL_Doppler/Libraries/XMCLib/inc\xmc_usic.h **** */
 436:C:/Users/±è°æ¹Î/Desktop/IFX_S2GL-HW-SW_V1.1.3/Firmware_Software/DAVE project/S2GL_Doppler/Libraries/XMCLib/inc\xmc_usic.h **** typedef enum XMC_USIC_CH_BRG_SHIFT_CLOCK_OUTPUT
 437:C:/Users/±è°æ¹Î/Desktop/IFX_S2GL-HW-SW_V1.1.3/Firmware_Software/DAVE project/S2GL_Doppler/Libraries/XMCLib/inc\xmc_usic.h **** {
 438:C:/Users/±è°æ¹Î/Desktop/IFX_S2GL-HW-SW_V1.1.3/Firmware_Software/DAVE project/S2GL_Doppler/Libraries/XMCLib/inc\xmc_usic.h ****   XMC_USIC_CH_BRG_SHIFT_CLOCK_OUTPUT_SCLK = 0x0UL, /**< Baudrate generator shift clock output: SCL.
 439:C:/Users/±è°æ¹Î/Desktop/IFX_S2GL-HW-SW_V1.1.3/Firmware_Software/DAVE project/S2GL_Doppler/Libraries/XMCLib/inc\xmc_usic.h ****   XMC_USIC_CH_BRG_SHIFT_CLOCK_OUTPUT_DX1 = 0x1UL << USIC_CH_BRG_SCLKOSEL_Pos   /**< Baudrate genera
 440:C:/Users/±è°æ¹Î/Desktop/IFX_S2GL-HW-SW_V1.1.3/Firmware_Software/DAVE project/S2GL_Doppler/Libraries/XMCLib/inc\xmc_usic.h **** } XMC_USIC_CH_BRG_SHIFT_CLOCK_OUTPUT_t;
 441:C:/Users/±è°æ¹Î/Desktop/IFX_S2GL-HW-SW_V1.1.3/Firmware_Software/DAVE project/S2GL_Doppler/Libraries/XMCLib/inc\xmc_usic.h **** 
 442:C:/Users/±è°æ¹Î/Desktop/IFX_S2GL-HW-SW_V1.1.3/Firmware_Software/DAVE project/S2GL_Doppler/Libraries/XMCLib/inc\xmc_usic.h **** /*******************************************************************************
 443:C:/Users/±è°æ¹Î/Desktop/IFX_S2GL-HW-SW_V1.1.3/Firmware_Software/DAVE project/S2GL_Doppler/Libraries/XMCLib/inc\xmc_usic.h ****  * DATA STRUCTURES
 444:C:/Users/±è°æ¹Î/Desktop/IFX_S2GL-HW-SW_V1.1.3/Firmware_Software/DAVE project/S2GL_Doppler/Libraries/XMCLib/inc\xmc_usic.h ****  *******************************************************************************/
 445:C:/Users/±è°æ¹Î/Desktop/IFX_S2GL-HW-SW_V1.1.3/Firmware_Software/DAVE project/S2GL_Doppler/Libraries/XMCLib/inc\xmc_usic.h **** 
 446:C:/Users/±è°æ¹Î/Desktop/IFX_S2GL-HW-SW_V1.1.3/Firmware_Software/DAVE project/S2GL_Doppler/Libraries/XMCLib/inc\xmc_usic.h **** /*Anonymous structure/union guard start*/
 447:C:/Users/±è°æ¹Î/Desktop/IFX_S2GL-HW-SW_V1.1.3/Firmware_Software/DAVE project/S2GL_Doppler/Libraries/XMCLib/inc\xmc_usic.h **** #if defined(__CC_ARM)
 448:C:/Users/±è°æ¹Î/Desktop/IFX_S2GL-HW-SW_V1.1.3/Firmware_Software/DAVE project/S2GL_Doppler/Libraries/XMCLib/inc\xmc_usic.h ****   #pragma push
 449:C:/Users/±è°æ¹Î/Desktop/IFX_S2GL-HW-SW_V1.1.3/Firmware_Software/DAVE project/S2GL_Doppler/Libraries/XMCLib/inc\xmc_usic.h ****   #pragma anon_unions
 450:C:/Users/±è°æ¹Î/Desktop/IFX_S2GL-HW-SW_V1.1.3/Firmware_Software/DAVE project/S2GL_Doppler/Libraries/XMCLib/inc\xmc_usic.h **** #elif defined(__TASKING__)
 451:C:/Users/±è°æ¹Î/Desktop/IFX_S2GL-HW-SW_V1.1.3/Firmware_Software/DAVE project/S2GL_Doppler/Libraries/XMCLib/inc\xmc_usic.h ****   #pragma warning 586
 452:C:/Users/±è°æ¹Î/Desktop/IFX_S2GL-HW-SW_V1.1.3/Firmware_Software/DAVE project/S2GL_Doppler/Libraries/XMCLib/inc\xmc_usic.h **** #endif
 453:C:/Users/±è°æ¹Î/Desktop/IFX_S2GL-HW-SW_V1.1.3/Firmware_Software/DAVE project/S2GL_Doppler/Libraries/XMCLib/inc\xmc_usic.h **** 
 454:C:/Users/±è°æ¹Î/Desktop/IFX_S2GL-HW-SW_V1.1.3/Firmware_Software/DAVE project/S2GL_Doppler/Libraries/XMCLib/inc\xmc_usic.h **** /**
 455:C:/Users/±è°æ¹Î/Desktop/IFX_S2GL-HW-SW_V1.1.3/Firmware_Software/DAVE project/S2GL_Doppler/Libraries/XMCLib/inc\xmc_usic.h ****  * USIC module structure
 456:C:/Users/±è°æ¹Î/Desktop/IFX_S2GL-HW-SW_V1.1.3/Firmware_Software/DAVE project/S2GL_Doppler/Libraries/XMCLib/inc\xmc_usic.h ****  */
 457:C:/Users/±è°æ¹Î/Desktop/IFX_S2GL-HW-SW_V1.1.3/Firmware_Software/DAVE project/S2GL_Doppler/Libraries/XMCLib/inc\xmc_usic.h **** typedef USIC_GLOBAL_TypeDef XMC_USIC_t;
 458:C:/Users/±è°æ¹Î/Desktop/IFX_S2GL-HW-SW_V1.1.3/Firmware_Software/DAVE project/S2GL_Doppler/Libraries/XMCLib/inc\xmc_usic.h **** 
 459:C:/Users/±è°æ¹Î/Desktop/IFX_S2GL-HW-SW_V1.1.3/Firmware_Software/DAVE project/S2GL_Doppler/Libraries/XMCLib/inc\xmc_usic.h **** /**
 460:C:/Users/±è°æ¹Î/Desktop/IFX_S2GL-HW-SW_V1.1.3/Firmware_Software/DAVE project/S2GL_Doppler/Libraries/XMCLib/inc\xmc_usic.h ****  * USIC channel structure.<br> The members of the structure are same as in the device header file, 
 461:C:/Users/±è°æ¹Î/Desktop/IFX_S2GL-HW-SW_V1.1.3/Firmware_Software/DAVE project/S2GL_Doppler/Libraries/XMCLib/inc\xmc_usic.h ****  * except for some registers.
 462:C:/Users/±è°æ¹Î/Desktop/IFX_S2GL-HW-SW_V1.1.3/Firmware_Software/DAVE project/S2GL_Doppler/Libraries/XMCLib/inc\xmc_usic.h ****  * DX0CR, DX1CR, DX2CR, DX3CR, DX4CR and DX5CR are replaced with the array DXCR[6].
 463:C:/Users/±è°æ¹Î/Desktop/IFX_S2GL-HW-SW_V1.1.3/Firmware_Software/DAVE project/S2GL_Doppler/Libraries/XMCLib/inc\xmc_usic.h ****  * TBUF0 to TBUF31 are replaced with TBUF[32].
 464:C:/Users/±è°æ¹Î/Desktop/IFX_S2GL-HW-SW_V1.1.3/Firmware_Software/DAVE project/S2GL_Doppler/Libraries/XMCLib/inc\xmc_usic.h ****  * IN0 to IN31 are replaced with IN[32].
 465:C:/Users/±è°æ¹Î/Desktop/IFX_S2GL-HW-SW_V1.1.3/Firmware_Software/DAVE project/S2GL_Doppler/Libraries/XMCLib/inc\xmc_usic.h ****  */
 466:C:/Users/±è°æ¹Î/Desktop/IFX_S2GL-HW-SW_V1.1.3/Firmware_Software/DAVE project/S2GL_Doppler/Libraries/XMCLib/inc\xmc_usic.h **** typedef struct XMC_USIC_CH
 467:C:/Users/±è°æ¹Î/Desktop/IFX_S2GL-HW-SW_V1.1.3/Firmware_Software/DAVE project/S2GL_Doppler/Libraries/XMCLib/inc\xmc_usic.h **** {
 468:C:/Users/±è°æ¹Î/Desktop/IFX_S2GL-HW-SW_V1.1.3/Firmware_Software/DAVE project/S2GL_Doppler/Libraries/XMCLib/inc\xmc_usic.h ****   __I  uint32_t  RESERVED0;
 469:C:/Users/±è°æ¹Î/Desktop/IFX_S2GL-HW-SW_V1.1.3/Firmware_Software/DAVE project/S2GL_Doppler/Libraries/XMCLib/inc\xmc_usic.h ****   __I  uint32_t  CCFG;			/**< Channel configuration register*/
 470:C:/Users/±è°æ¹Î/Desktop/IFX_S2GL-HW-SW_V1.1.3/Firmware_Software/DAVE project/S2GL_Doppler/Libraries/XMCLib/inc\xmc_usic.h ****   __I  uint32_t  RESERVED1;
 471:C:/Users/±è°æ¹Î/Desktop/IFX_S2GL-HW-SW_V1.1.3/Firmware_Software/DAVE project/S2GL_Doppler/Libraries/XMCLib/inc\xmc_usic.h ****   __IO uint32_t  KSCFG;			/**< Kernel state configuration register*/
 472:C:/Users/±è°æ¹Î/Desktop/IFX_S2GL-HW-SW_V1.1.3/Firmware_Software/DAVE project/S2GL_Doppler/Libraries/XMCLib/inc\xmc_usic.h ****   __IO uint32_t  FDR;			/**< Fractional divider configuration register*/
 473:C:/Users/±è°æ¹Î/Desktop/IFX_S2GL-HW-SW_V1.1.3/Firmware_Software/DAVE project/S2GL_Doppler/Libraries/XMCLib/inc\xmc_usic.h ****   __IO uint32_t  BRG;			/**< Baud rate generator register*/
 474:C:/Users/±è°æ¹Î/Desktop/IFX_S2GL-HW-SW_V1.1.3/Firmware_Software/DAVE project/S2GL_Doppler/Libraries/XMCLib/inc\xmc_usic.h ****   __IO uint32_t  INPR;			/**< Interrupt node pointer register*/
 475:C:/Users/±è°æ¹Î/Desktop/IFX_S2GL-HW-SW_V1.1.3/Firmware_Software/DAVE project/S2GL_Doppler/Libraries/XMCLib/inc\xmc_usic.h ****   __IO uint32_t  DXCR[6];		/**< Input control registers DX0 to DX5.*/
 476:C:/Users/±è°æ¹Î/Desktop/IFX_S2GL-HW-SW_V1.1.3/Firmware_Software/DAVE project/S2GL_Doppler/Libraries/XMCLib/inc\xmc_usic.h ****   __IO uint32_t  SCTR;			/**< Shift control register*/
 477:C:/Users/±è°æ¹Î/Desktop/IFX_S2GL-HW-SW_V1.1.3/Firmware_Software/DAVE project/S2GL_Doppler/Libraries/XMCLib/inc\xmc_usic.h ****   __IO uint32_t  TCSR;
 478:C:/Users/±è°æ¹Î/Desktop/IFX_S2GL-HW-SW_V1.1.3/Firmware_Software/DAVE project/S2GL_Doppler/Libraries/XMCLib/inc\xmc_usic.h **** 
 479:C:/Users/±è°æ¹Î/Desktop/IFX_S2GL-HW-SW_V1.1.3/Firmware_Software/DAVE project/S2GL_Doppler/Libraries/XMCLib/inc\xmc_usic.h ****   union {
 480:C:/Users/±è°æ¹Î/Desktop/IFX_S2GL-HW-SW_V1.1.3/Firmware_Software/DAVE project/S2GL_Doppler/Libraries/XMCLib/inc\xmc_usic.h ****     __IO uint32_t  PCR_IICMode;	/**< I2C protocol configuration register*/
 481:C:/Users/±è°æ¹Î/Desktop/IFX_S2GL-HW-SW_V1.1.3/Firmware_Software/DAVE project/S2GL_Doppler/Libraries/XMCLib/inc\xmc_usic.h ****     __IO uint32_t  PCR_IISMode; /**< I2S protocol configuration register*/
 482:C:/Users/±è°æ¹Î/Desktop/IFX_S2GL-HW-SW_V1.1.3/Firmware_Software/DAVE project/S2GL_Doppler/Libraries/XMCLib/inc\xmc_usic.h ****     __IO uint32_t  PCR_SSCMode;	/**< SPI protocol configuration register*/
 483:C:/Users/±è°æ¹Î/Desktop/IFX_S2GL-HW-SW_V1.1.3/Firmware_Software/DAVE project/S2GL_Doppler/Libraries/XMCLib/inc\xmc_usic.h ****     __IO uint32_t  PCR;			/**< Protocol configuration register*/
 484:C:/Users/±è°æ¹Î/Desktop/IFX_S2GL-HW-SW_V1.1.3/Firmware_Software/DAVE project/S2GL_Doppler/Libraries/XMCLib/inc\xmc_usic.h ****     __IO uint32_t  PCR_ASCMode;	/**< UART protocol configuration register*/
 485:C:/Users/±è°æ¹Î/Desktop/IFX_S2GL-HW-SW_V1.1.3/Firmware_Software/DAVE project/S2GL_Doppler/Libraries/XMCLib/inc\xmc_usic.h ****   };
 486:C:/Users/±è°æ¹Î/Desktop/IFX_S2GL-HW-SW_V1.1.3/Firmware_Software/DAVE project/S2GL_Doppler/Libraries/XMCLib/inc\xmc_usic.h ****   __IO uint32_t  CCR;			/**< Channel control register*/
 487:C:/Users/±è°æ¹Î/Desktop/IFX_S2GL-HW-SW_V1.1.3/Firmware_Software/DAVE project/S2GL_Doppler/Libraries/XMCLib/inc\xmc_usic.h ****   __IO uint32_t  CMTR;			/**< Capture mode timer register*/
 488:C:/Users/±è°æ¹Î/Desktop/IFX_S2GL-HW-SW_V1.1.3/Firmware_Software/DAVE project/S2GL_Doppler/Libraries/XMCLib/inc\xmc_usic.h **** 
 489:C:/Users/±è°æ¹Î/Desktop/IFX_S2GL-HW-SW_V1.1.3/Firmware_Software/DAVE project/S2GL_Doppler/Libraries/XMCLib/inc\xmc_usic.h ****   union {
 490:C:/Users/±è°æ¹Î/Desktop/IFX_S2GL-HW-SW_V1.1.3/Firmware_Software/DAVE project/S2GL_Doppler/Libraries/XMCLib/inc\xmc_usic.h ****     __IO uint32_t  PSR_IICMode;	/**< I2C protocol status register*/
 491:C:/Users/±è°æ¹Î/Desktop/IFX_S2GL-HW-SW_V1.1.3/Firmware_Software/DAVE project/S2GL_Doppler/Libraries/XMCLib/inc\xmc_usic.h ****     __IO uint32_t  PSR_IISMode;	/**< I2S protocol status register*/
 492:C:/Users/±è°æ¹Î/Desktop/IFX_S2GL-HW-SW_V1.1.3/Firmware_Software/DAVE project/S2GL_Doppler/Libraries/XMCLib/inc\xmc_usic.h ****     __IO uint32_t  PSR_SSCMode;	/**< SPI protocol status register*/
 493:C:/Users/±è°æ¹Î/Desktop/IFX_S2GL-HW-SW_V1.1.3/Firmware_Software/DAVE project/S2GL_Doppler/Libraries/XMCLib/inc\xmc_usic.h ****     __IO uint32_t  PSR;			/**< Protocol status register*/
 494:C:/Users/±è°æ¹Î/Desktop/IFX_S2GL-HW-SW_V1.1.3/Firmware_Software/DAVE project/S2GL_Doppler/Libraries/XMCLib/inc\xmc_usic.h ****     __IO uint32_t  PSR_ASCMode;	/**< UART protocol status register*/
 495:C:/Users/±è°æ¹Î/Desktop/IFX_S2GL-HW-SW_V1.1.3/Firmware_Software/DAVE project/S2GL_Doppler/Libraries/XMCLib/inc\xmc_usic.h ****   };
 496:C:/Users/±è°æ¹Î/Desktop/IFX_S2GL-HW-SW_V1.1.3/Firmware_Software/DAVE project/S2GL_Doppler/Libraries/XMCLib/inc\xmc_usic.h ****   __O  uint32_t  PSCR;			/**< Protocol status clear register*/
 497:C:/Users/±è°æ¹Î/Desktop/IFX_S2GL-HW-SW_V1.1.3/Firmware_Software/DAVE project/S2GL_Doppler/Libraries/XMCLib/inc\xmc_usic.h ****   __I  uint32_t  RBUFSR;		/**< Receive buffer status register*/
 498:C:/Users/±è°æ¹Î/Desktop/IFX_S2GL-HW-SW_V1.1.3/Firmware_Software/DAVE project/S2GL_Doppler/Libraries/XMCLib/inc\xmc_usic.h ****   __I  uint32_t  RBUF;			/**< Receive buffer register*/
 499:C:/Users/±è°æ¹Î/Desktop/IFX_S2GL-HW-SW_V1.1.3/Firmware_Software/DAVE project/S2GL_Doppler/Libraries/XMCLib/inc\xmc_usic.h ****   __I  uint32_t  RBUFD;			/**< Debug mode receive buffer register*/
 500:C:/Users/±è°æ¹Î/Desktop/IFX_S2GL-HW-SW_V1.1.3/Firmware_Software/DAVE project/S2GL_Doppler/Libraries/XMCLib/inc\xmc_usic.h ****   __I  uint32_t  RBUF0;			/**< Receive buffer 0*/
 501:C:/Users/±è°æ¹Î/Desktop/IFX_S2GL-HW-SW_V1.1.3/Firmware_Software/DAVE project/S2GL_Doppler/Libraries/XMCLib/inc\xmc_usic.h ****   __I  uint32_t  RBUF1;			/**< Receive buffer 1*/
 502:C:/Users/±è°æ¹Î/Desktop/IFX_S2GL-HW-SW_V1.1.3/Firmware_Software/DAVE project/S2GL_Doppler/Libraries/XMCLib/inc\xmc_usic.h ****   __I  uint32_t  RBUF01SR;		/**< Receive buffer status register*/
 503:C:/Users/±è°æ¹Î/Desktop/IFX_S2GL-HW-SW_V1.1.3/Firmware_Software/DAVE project/S2GL_Doppler/Libraries/XMCLib/inc\xmc_usic.h ****   __O  uint32_t  FMR;			/**< Flag modification register*/
 504:C:/Users/±è°æ¹Î/Desktop/IFX_S2GL-HW-SW_V1.1.3/Firmware_Software/DAVE project/S2GL_Doppler/Libraries/XMCLib/inc\xmc_usic.h ****   __I  uint32_t  RESERVED2[5];
 505:C:/Users/±è°æ¹Î/Desktop/IFX_S2GL-HW-SW_V1.1.3/Firmware_Software/DAVE project/S2GL_Doppler/Libraries/XMCLib/inc\xmc_usic.h ****   __IO uint32_t  TBUF[32];		/**< Tranmsit buffer registers*/
 506:C:/Users/±è°æ¹Î/Desktop/IFX_S2GL-HW-SW_V1.1.3/Firmware_Software/DAVE project/S2GL_Doppler/Libraries/XMCLib/inc\xmc_usic.h ****   __IO uint32_t  BYP;			/**< FIFO bypass register*/
 507:C:/Users/±è°æ¹Î/Desktop/IFX_S2GL-HW-SW_V1.1.3/Firmware_Software/DAVE project/S2GL_Doppler/Libraries/XMCLib/inc\xmc_usic.h ****   __IO uint32_t  BYPCR;			/**< FIFO bypass control register*/
 508:C:/Users/±è°æ¹Î/Desktop/IFX_S2GL-HW-SW_V1.1.3/Firmware_Software/DAVE project/S2GL_Doppler/Libraries/XMCLib/inc\xmc_usic.h ****   __IO uint32_t  TBCTR;			/**< Transmit FIFO control register*/
 509:C:/Users/±è°æ¹Î/Desktop/IFX_S2GL-HW-SW_V1.1.3/Firmware_Software/DAVE project/S2GL_Doppler/Libraries/XMCLib/inc\xmc_usic.h ****   __IO uint32_t  RBCTR;			/**< Receive FIFO control register*/
 510:C:/Users/±è°æ¹Î/Desktop/IFX_S2GL-HW-SW_V1.1.3/Firmware_Software/DAVE project/S2GL_Doppler/Libraries/XMCLib/inc\xmc_usic.h ****   __I  uint32_t  TRBPTR;		/**< Transmit/recive buffer pointer register*/
 511:C:/Users/±è°æ¹Î/Desktop/IFX_S2GL-HW-SW_V1.1.3/Firmware_Software/DAVE project/S2GL_Doppler/Libraries/XMCLib/inc\xmc_usic.h ****   __IO uint32_t  TRBSR;			/**< Transmit/receive buffer status register*/
 512:C:/Users/±è°æ¹Î/Desktop/IFX_S2GL-HW-SW_V1.1.3/Firmware_Software/DAVE project/S2GL_Doppler/Libraries/XMCLib/inc\xmc_usic.h ****   __O  uint32_t  TRBSCR;		/**< Transmit/receive buffer status clear register*/
 513:C:/Users/±è°æ¹Î/Desktop/IFX_S2GL-HW-SW_V1.1.3/Firmware_Software/DAVE project/S2GL_Doppler/Libraries/XMCLib/inc\xmc_usic.h ****   __I  uint32_t  OUTR;			/**< Receive FIFO output register*/
 514:C:/Users/±è°æ¹Î/Desktop/IFX_S2GL-HW-SW_V1.1.3/Firmware_Software/DAVE project/S2GL_Doppler/Libraries/XMCLib/inc\xmc_usic.h ****   __I  uint32_t  OUTDR;			/**< Receive FIFO debug output register*/
 515:C:/Users/±è°æ¹Î/Desktop/IFX_S2GL-HW-SW_V1.1.3/Firmware_Software/DAVE project/S2GL_Doppler/Libraries/XMCLib/inc\xmc_usic.h ****   __I  uint32_t  RESERVED3[23];
 516:C:/Users/±è°æ¹Î/Desktop/IFX_S2GL-HW-SW_V1.1.3/Firmware_Software/DAVE project/S2GL_Doppler/Libraries/XMCLib/inc\xmc_usic.h ****   __O  uint32_t  IN[32];		/**< Transmit FIFO input register*/
 517:C:/Users/±è°æ¹Î/Desktop/IFX_S2GL-HW-SW_V1.1.3/Firmware_Software/DAVE project/S2GL_Doppler/Libraries/XMCLib/inc\xmc_usic.h **** } XMC_USIC_CH_t;
 518:C:/Users/±è°æ¹Î/Desktop/IFX_S2GL-HW-SW_V1.1.3/Firmware_Software/DAVE project/S2GL_Doppler/Libraries/XMCLib/inc\xmc_usic.h **** 
 519:C:/Users/±è°æ¹Î/Desktop/IFX_S2GL-HW-SW_V1.1.3/Firmware_Software/DAVE project/S2GL_Doppler/Libraries/XMCLib/inc\xmc_usic.h **** 
 520:C:/Users/±è°æ¹Î/Desktop/IFX_S2GL-HW-SW_V1.1.3/Firmware_Software/DAVE project/S2GL_Doppler/Libraries/XMCLib/inc\xmc_usic.h **** /*Anonymous structure/union guard end*/
 521:C:/Users/±è°æ¹Î/Desktop/IFX_S2GL-HW-SW_V1.1.3/Firmware_Software/DAVE project/S2GL_Doppler/Libraries/XMCLib/inc\xmc_usic.h **** #if defined(__CC_ARM)
 522:C:/Users/±è°æ¹Î/Desktop/IFX_S2GL-HW-SW_V1.1.3/Firmware_Software/DAVE project/S2GL_Doppler/Libraries/XMCLib/inc\xmc_usic.h ****   #pragma pop
 523:C:/Users/±è°æ¹Î/Desktop/IFX_S2GL-HW-SW_V1.1.3/Firmware_Software/DAVE project/S2GL_Doppler/Libraries/XMCLib/inc\xmc_usic.h **** #elif defined(__TASKING__)
 524:C:/Users/±è°æ¹Î/Desktop/IFX_S2GL-HW-SW_V1.1.3/Firmware_Software/DAVE project/S2GL_Doppler/Libraries/XMCLib/inc\xmc_usic.h ****   #pragma warning restore
 525:C:/Users/±è°æ¹Î/Desktop/IFX_S2GL-HW-SW_V1.1.3/Firmware_Software/DAVE project/S2GL_Doppler/Libraries/XMCLib/inc\xmc_usic.h **** #endif
 526:C:/Users/±è°æ¹Î/Desktop/IFX_S2GL-HW-SW_V1.1.3/Firmware_Software/DAVE project/S2GL_Doppler/Libraries/XMCLib/inc\xmc_usic.h **** 
 527:C:/Users/±è°æ¹Î/Desktop/IFX_S2GL-HW-SW_V1.1.3/Firmware_Software/DAVE project/S2GL_Doppler/Libraries/XMCLib/inc\xmc_usic.h **** /*******************************************************************************
 528:C:/Users/±è°æ¹Î/Desktop/IFX_S2GL-HW-SW_V1.1.3/Firmware_Software/DAVE project/S2GL_Doppler/Libraries/XMCLib/inc\xmc_usic.h ****  * API PROTOTYPES
 529:C:/Users/±è°æ¹Î/Desktop/IFX_S2GL-HW-SW_V1.1.3/Firmware_Software/DAVE project/S2GL_Doppler/Libraries/XMCLib/inc\xmc_usic.h ****  ******************************************************************************/
 530:C:/Users/±è°æ¹Î/Desktop/IFX_S2GL-HW-SW_V1.1.3/Firmware_Software/DAVE project/S2GL_Doppler/Libraries/XMCLib/inc\xmc_usic.h **** 
 531:C:/Users/±è°æ¹Î/Desktop/IFX_S2GL-HW-SW_V1.1.3/Firmware_Software/DAVE project/S2GL_Doppler/Libraries/XMCLib/inc\xmc_usic.h **** #ifdef __cplusplus
 532:C:/Users/±è°æ¹Î/Desktop/IFX_S2GL-HW-SW_V1.1.3/Firmware_Software/DAVE project/S2GL_Doppler/Libraries/XMCLib/inc\xmc_usic.h **** extern "C" {
 533:C:/Users/±è°æ¹Î/Desktop/IFX_S2GL-HW-SW_V1.1.3/Firmware_Software/DAVE project/S2GL_Doppler/Libraries/XMCLib/inc\xmc_usic.h **** #endif
 534:C:/Users/±è°æ¹Î/Desktop/IFX_S2GL-HW-SW_V1.1.3/Firmware_Software/DAVE project/S2GL_Doppler/Libraries/XMCLib/inc\xmc_usic.h **** 
 535:C:/Users/±è°æ¹Î/Desktop/IFX_S2GL-HW-SW_V1.1.3/Firmware_Software/DAVE project/S2GL_Doppler/Libraries/XMCLib/inc\xmc_usic.h **** __STATIC_INLINE bool XMC_USIC_IsModuleValid(const XMC_USIC_t *const module)
 536:C:/Users/±è°æ¹Î/Desktop/IFX_S2GL-HW-SW_V1.1.3/Firmware_Software/DAVE project/S2GL_Doppler/Libraries/XMCLib/inc\xmc_usic.h **** {
 537:C:/Users/±è°æ¹Î/Desktop/IFX_S2GL-HW-SW_V1.1.3/Firmware_Software/DAVE project/S2GL_Doppler/Libraries/XMCLib/inc\xmc_usic.h ****   bool tmp;
 538:C:/Users/±è°æ¹Î/Desktop/IFX_S2GL-HW-SW_V1.1.3/Firmware_Software/DAVE project/S2GL_Doppler/Libraries/XMCLib/inc\xmc_usic.h **** 
 539:C:/Users/±è°æ¹Î/Desktop/IFX_S2GL-HW-SW_V1.1.3/Firmware_Software/DAVE project/S2GL_Doppler/Libraries/XMCLib/inc\xmc_usic.h ****   tmp = (module == XMC_USIC0);
 540:C:/Users/±è°æ¹Î/Desktop/IFX_S2GL-HW-SW_V1.1.3/Firmware_Software/DAVE project/S2GL_Doppler/Libraries/XMCLib/inc\xmc_usic.h **** #if defined(XMC_USIC1)  
 541:C:/Users/±è°æ¹Î/Desktop/IFX_S2GL-HW-SW_V1.1.3/Firmware_Software/DAVE project/S2GL_Doppler/Libraries/XMCLib/inc\xmc_usic.h ****   tmp = tmp || (module == XMC_USIC1);
 542:C:/Users/±è°æ¹Î/Desktop/IFX_S2GL-HW-SW_V1.1.3/Firmware_Software/DAVE project/S2GL_Doppler/Libraries/XMCLib/inc\xmc_usic.h **** #endif
 543:C:/Users/±è°æ¹Î/Desktop/IFX_S2GL-HW-SW_V1.1.3/Firmware_Software/DAVE project/S2GL_Doppler/Libraries/XMCLib/inc\xmc_usic.h **** #if defined(XMC_USIC2)  
 544:C:/Users/±è°æ¹Î/Desktop/IFX_S2GL-HW-SW_V1.1.3/Firmware_Software/DAVE project/S2GL_Doppler/Libraries/XMCLib/inc\xmc_usic.h ****   tmp = tmp || (module == XMC_USIC2);
 545:C:/Users/±è°æ¹Î/Desktop/IFX_S2GL-HW-SW_V1.1.3/Firmware_Software/DAVE project/S2GL_Doppler/Libraries/XMCLib/inc\xmc_usic.h **** #endif
 546:C:/Users/±è°æ¹Î/Desktop/IFX_S2GL-HW-SW_V1.1.3/Firmware_Software/DAVE project/S2GL_Doppler/Libraries/XMCLib/inc\xmc_usic.h **** 
 547:C:/Users/±è°æ¹Î/Desktop/IFX_S2GL-HW-SW_V1.1.3/Firmware_Software/DAVE project/S2GL_Doppler/Libraries/XMCLib/inc\xmc_usic.h ****   return tmp;
 548:C:/Users/±è°æ¹Î/Desktop/IFX_S2GL-HW-SW_V1.1.3/Firmware_Software/DAVE project/S2GL_Doppler/Libraries/XMCLib/inc\xmc_usic.h **** }
 549:C:/Users/±è°æ¹Î/Desktop/IFX_S2GL-HW-SW_V1.1.3/Firmware_Software/DAVE project/S2GL_Doppler/Libraries/XMCLib/inc\xmc_usic.h **** 
 550:C:/Users/±è°æ¹Î/Desktop/IFX_S2GL-HW-SW_V1.1.3/Firmware_Software/DAVE project/S2GL_Doppler/Libraries/XMCLib/inc\xmc_usic.h **** __STATIC_INLINE bool XMC_USIC_IsChannelValid(const XMC_USIC_CH_t *const channel)
 551:C:/Users/±è°æ¹Î/Desktop/IFX_S2GL-HW-SW_V1.1.3/Firmware_Software/DAVE project/S2GL_Doppler/Libraries/XMCLib/inc\xmc_usic.h **** {
 552:C:/Users/±è°æ¹Î/Desktop/IFX_S2GL-HW-SW_V1.1.3/Firmware_Software/DAVE project/S2GL_Doppler/Libraries/XMCLib/inc\xmc_usic.h ****   bool tmp;
 553:C:/Users/±è°æ¹Î/Desktop/IFX_S2GL-HW-SW_V1.1.3/Firmware_Software/DAVE project/S2GL_Doppler/Libraries/XMCLib/inc\xmc_usic.h **** 
 554:C:/Users/±è°æ¹Î/Desktop/IFX_S2GL-HW-SW_V1.1.3/Firmware_Software/DAVE project/S2GL_Doppler/Libraries/XMCLib/inc\xmc_usic.h ****   tmp = ((channel == XMC_USIC0_CH0) || (channel == XMC_USIC0_CH1));
 555:C:/Users/±è°æ¹Î/Desktop/IFX_S2GL-HW-SW_V1.1.3/Firmware_Software/DAVE project/S2GL_Doppler/Libraries/XMCLib/inc\xmc_usic.h **** #if defined(XMC_USIC1)  
 556:C:/Users/±è°æ¹Î/Desktop/IFX_S2GL-HW-SW_V1.1.3/Firmware_Software/DAVE project/S2GL_Doppler/Libraries/XMCLib/inc\xmc_usic.h ****   tmp = tmp || ((channel == XMC_USIC1_CH0) || (channel == XMC_USIC1_CH1));
 557:C:/Users/±è°æ¹Î/Desktop/IFX_S2GL-HW-SW_V1.1.3/Firmware_Software/DAVE project/S2GL_Doppler/Libraries/XMCLib/inc\xmc_usic.h **** #endif
 558:C:/Users/±è°æ¹Î/Desktop/IFX_S2GL-HW-SW_V1.1.3/Firmware_Software/DAVE project/S2GL_Doppler/Libraries/XMCLib/inc\xmc_usic.h **** #if defined(XMC_USIC2)  
 559:C:/Users/±è°æ¹Î/Desktop/IFX_S2GL-HW-SW_V1.1.3/Firmware_Software/DAVE project/S2GL_Doppler/Libraries/XMCLib/inc\xmc_usic.h ****   tmp = tmp || ((channel == XMC_USIC2_CH0) || (channel == XMC_USIC2_CH1));
 560:C:/Users/±è°æ¹Î/Desktop/IFX_S2GL-HW-SW_V1.1.3/Firmware_Software/DAVE project/S2GL_Doppler/Libraries/XMCLib/inc\xmc_usic.h **** #endif
 561:C:/Users/±è°æ¹Î/Desktop/IFX_S2GL-HW-SW_V1.1.3/Firmware_Software/DAVE project/S2GL_Doppler/Libraries/XMCLib/inc\xmc_usic.h **** 
 562:C:/Users/±è°æ¹Î/Desktop/IFX_S2GL-HW-SW_V1.1.3/Firmware_Software/DAVE project/S2GL_Doppler/Libraries/XMCLib/inc\xmc_usic.h ****   return tmp;
 563:C:/Users/±è°æ¹Î/Desktop/IFX_S2GL-HW-SW_V1.1.3/Firmware_Software/DAVE project/S2GL_Doppler/Libraries/XMCLib/inc\xmc_usic.h **** }
 564:C:/Users/±è°æ¹Î/Desktop/IFX_S2GL-HW-SW_V1.1.3/Firmware_Software/DAVE project/S2GL_Doppler/Libraries/XMCLib/inc\xmc_usic.h **** 
 565:C:/Users/±è°æ¹Î/Desktop/IFX_S2GL-HW-SW_V1.1.3/Firmware_Software/DAVE project/S2GL_Doppler/Libraries/XMCLib/inc\xmc_usic.h **** /* Common APIs */
 566:C:/Users/±è°æ¹Î/Desktop/IFX_S2GL-HW-SW_V1.1.3/Firmware_Software/DAVE project/S2GL_Doppler/Libraries/XMCLib/inc\xmc_usic.h **** 
 567:C:/Users/±è°æ¹Î/Desktop/IFX_S2GL-HW-SW_V1.1.3/Firmware_Software/DAVE project/S2GL_Doppler/Libraries/XMCLib/inc\xmc_usic.h **** /**
 568:C:/Users/±è°æ¹Î/Desktop/IFX_S2GL-HW-SW_V1.1.3/Firmware_Software/DAVE project/S2GL_Doppler/Libraries/XMCLib/inc\xmc_usic.h ****  * @param  usic Pointer to USIC module handler of type @ref XMC_USIC_t.\n
 569:C:/Users/±è°æ¹Î/Desktop/IFX_S2GL-HW-SW_V1.1.3/Firmware_Software/DAVE project/S2GL_Doppler/Libraries/XMCLib/inc\xmc_usic.h ****  * 				\b Range: @ref XMC_USIC0 to @ref XMC_USIC2 based on device support.
 570:C:/Users/±è°æ¹Î/Desktop/IFX_S2GL-HW-SW_V1.1.3/Firmware_Software/DAVE project/S2GL_Doppler/Libraries/XMCLib/inc\xmc_usic.h ****  * @return None
 571:C:/Users/±è°æ¹Î/Desktop/IFX_S2GL-HW-SW_V1.1.3/Firmware_Software/DAVE project/S2GL_Doppler/Libraries/XMCLib/inc\xmc_usic.h ****  * 
 572:C:/Users/±è°æ¹Î/Desktop/IFX_S2GL-HW-SW_V1.1.3/Firmware_Software/DAVE project/S2GL_Doppler/Libraries/XMCLib/inc\xmc_usic.h ****  * \par<b>Description</b><br>
 573:C:/Users/±è°æ¹Î/Desktop/IFX_S2GL-HW-SW_V1.1.3/Firmware_Software/DAVE project/S2GL_Doppler/Libraries/XMCLib/inc\xmc_usic.h ****  * Enables the USIC module.\n\n
 574:C:/Users/±è°æ¹Î/Desktop/IFX_S2GL-HW-SW_V1.1.3/Firmware_Software/DAVE project/S2GL_Doppler/Libraries/XMCLib/inc\xmc_usic.h ****  * Enables the clock for the USIC module by following the
 575:C:/Users/±è°æ¹Î/Desktop/IFX_S2GL-HW-SW_V1.1.3/Firmware_Software/DAVE project/S2GL_Doppler/Libraries/XMCLib/inc\xmc_usic.h ****  * clock enabling sequence for the selected device.
 576:C:/Users/±è°æ¹Î/Desktop/IFX_S2GL-HW-SW_V1.1.3/Firmware_Software/DAVE project/S2GL_Doppler/Libraries/XMCLib/inc\xmc_usic.h ****  *
 577:C:/Users/±è°æ¹Î/Desktop/IFX_S2GL-HW-SW_V1.1.3/Firmware_Software/DAVE project/S2GL_Doppler/Libraries/XMCLib/inc\xmc_usic.h ****  * \par<b>Related APIs:</b><BR>
 578:C:/Users/±è°æ¹Î/Desktop/IFX_S2GL-HW-SW_V1.1.3/Firmware_Software/DAVE project/S2GL_Doppler/Libraries/XMCLib/inc\xmc_usic.h ****  * XMC_USIC_CH_Enable(), XMC_USIC_Disable() \n\n\n
 579:C:/Users/±è°æ¹Î/Desktop/IFX_S2GL-HW-SW_V1.1.3/Firmware_Software/DAVE project/S2GL_Doppler/Libraries/XMCLib/inc\xmc_usic.h ****  */
 580:C:/Users/±è°æ¹Î/Desktop/IFX_S2GL-HW-SW_V1.1.3/Firmware_Software/DAVE project/S2GL_Doppler/Libraries/XMCLib/inc\xmc_usic.h **** void XMC_USIC_Enable(XMC_USIC_t *const usic);
 581:C:/Users/±è°æ¹Î/Desktop/IFX_S2GL-HW-SW_V1.1.3/Firmware_Software/DAVE project/S2GL_Doppler/Libraries/XMCLib/inc\xmc_usic.h **** /**
 582:C:/Users/±è°æ¹Î/Desktop/IFX_S2GL-HW-SW_V1.1.3/Firmware_Software/DAVE project/S2GL_Doppler/Libraries/XMCLib/inc\xmc_usic.h ****  * @param  usic Pointer to USIC module handler of type @ref XMC_USIC_t.\n
 583:C:/Users/±è°æ¹Î/Desktop/IFX_S2GL-HW-SW_V1.1.3/Firmware_Software/DAVE project/S2GL_Doppler/Libraries/XMCLib/inc\xmc_usic.h ****  * 				\b Range: @ref XMC_USIC0 to @ref XMC_USIC2 based on device support.
 584:C:/Users/±è°æ¹Î/Desktop/IFX_S2GL-HW-SW_V1.1.3/Firmware_Software/DAVE project/S2GL_Doppler/Libraries/XMCLib/inc\xmc_usic.h ****  * @return None
 585:C:/Users/±è°æ¹Î/Desktop/IFX_S2GL-HW-SW_V1.1.3/Firmware_Software/DAVE project/S2GL_Doppler/Libraries/XMCLib/inc\xmc_usic.h ****  *
 586:C:/Users/±è°æ¹Î/Desktop/IFX_S2GL-HW-SW_V1.1.3/Firmware_Software/DAVE project/S2GL_Doppler/Libraries/XMCLib/inc\xmc_usic.h ****  * \par<b>Description</b><br>
 587:C:/Users/±è°æ¹Î/Desktop/IFX_S2GL-HW-SW_V1.1.3/Firmware_Software/DAVE project/S2GL_Doppler/Libraries/XMCLib/inc\xmc_usic.h ****  * Disables the USIC module.\n\n
 588:C:/Users/±è°æ¹Î/Desktop/IFX_S2GL-HW-SW_V1.1.3/Firmware_Software/DAVE project/S2GL_Doppler/Libraries/XMCLib/inc\xmc_usic.h ****  * Disables the clock for the USIC module by following the clock
 589:C:/Users/±è°æ¹Î/Desktop/IFX_S2GL-HW-SW_V1.1.3/Firmware_Software/DAVE project/S2GL_Doppler/Libraries/XMCLib/inc\xmc_usic.h ****  * disabling sequence for the selected device.
 590:C:/Users/±è°æ¹Î/Desktop/IFX_S2GL-HW-SW_V1.1.3/Firmware_Software/DAVE project/S2GL_Doppler/Libraries/XMCLib/inc\xmc_usic.h ****  *
 591:C:/Users/±è°æ¹Î/Desktop/IFX_S2GL-HW-SW_V1.1.3/Firmware_Software/DAVE project/S2GL_Doppler/Libraries/XMCLib/inc\xmc_usic.h ****  * \par<b>Related APIs:</b><BR>
 592:C:/Users/±è°æ¹Î/Desktop/IFX_S2GL-HW-SW_V1.1.3/Firmware_Software/DAVE project/S2GL_Doppler/Libraries/XMCLib/inc\xmc_usic.h ****  * XMC_USIC_CH_Disable(), XMC_USIC_Enable() \n\n\n
 593:C:/Users/±è°æ¹Î/Desktop/IFX_S2GL-HW-SW_V1.1.3/Firmware_Software/DAVE project/S2GL_Doppler/Libraries/XMCLib/inc\xmc_usic.h ****  */
 594:C:/Users/±è°æ¹Î/Desktop/IFX_S2GL-HW-SW_V1.1.3/Firmware_Software/DAVE project/S2GL_Doppler/Libraries/XMCLib/inc\xmc_usic.h **** void XMC_USIC_Disable(XMC_USIC_t *const usic);
 595:C:/Users/±è°æ¹Î/Desktop/IFX_S2GL-HW-SW_V1.1.3/Firmware_Software/DAVE project/S2GL_Doppler/Libraries/XMCLib/inc\xmc_usic.h **** /**
 596:C:/Users/±è°æ¹Î/Desktop/IFX_S2GL-HW-SW_V1.1.3/Firmware_Software/DAVE project/S2GL_Doppler/Libraries/XMCLib/inc\xmc_usic.h ****  * @param  channel Pointer to USIC channel handler of type @ref XMC_USIC_CH_t \n
 597:C:/Users/±è°æ¹Î/Desktop/IFX_S2GL-HW-SW_V1.1.3/Firmware_Software/DAVE project/S2GL_Doppler/Libraries/XMCLib/inc\xmc_usic.h ****  * 				   \b Range: @ref XMC_USIC0_CH0, @ref XMC_USIC0_CH1 to @ref XMC_USIC2_CH1 based on device su
 598:C:/Users/±è°æ¹Î/Desktop/IFX_S2GL-HW-SW_V1.1.3/Firmware_Software/DAVE project/S2GL_Doppler/Libraries/XMCLib/inc\xmc_usic.h ****  * @return None
 599:C:/Users/±è°æ¹Î/Desktop/IFX_S2GL-HW-SW_V1.1.3/Firmware_Software/DAVE project/S2GL_Doppler/Libraries/XMCLib/inc\xmc_usic.h ****  *
 600:C:/Users/±è°æ¹Î/Desktop/IFX_S2GL-HW-SW_V1.1.3/Firmware_Software/DAVE project/S2GL_Doppler/Libraries/XMCLib/inc\xmc_usic.h ****  * \par<b>Description</b><br>
 601:C:/Users/±è°æ¹Î/Desktop/IFX_S2GL-HW-SW_V1.1.3/Firmware_Software/DAVE project/S2GL_Doppler/Libraries/XMCLib/inc\xmc_usic.h ****  * Enables the USIC channel. \n\n
 602:C:/Users/±è°æ¹Î/Desktop/IFX_S2GL-HW-SW_V1.1.3/Firmware_Software/DAVE project/S2GL_Doppler/Libraries/XMCLib/inc\xmc_usic.h ****  * USIC channel is enabled by setting the module enable bit in KSCFG register bitfield MODEN.
 603:C:/Users/±è°æ¹Î/Desktop/IFX_S2GL-HW-SW_V1.1.3/Firmware_Software/DAVE project/S2GL_Doppler/Libraries/XMCLib/inc\xmc_usic.h ****  * On enabling, the channel is set to idle mode.
 604:C:/Users/±è°æ¹Î/Desktop/IFX_S2GL-HW-SW_V1.1.3/Firmware_Software/DAVE project/S2GL_Doppler/Libraries/XMCLib/inc\xmc_usic.h ****  *
 605:C:/Users/±è°æ¹Î/Desktop/IFX_S2GL-HW-SW_V1.1.3/Firmware_Software/DAVE project/S2GL_Doppler/Libraries/XMCLib/inc\xmc_usic.h ****  * \par<b>Related APIs:</b><BR>
 606:C:/Users/±è°æ¹Î/Desktop/IFX_S2GL-HW-SW_V1.1.3/Firmware_Software/DAVE project/S2GL_Doppler/Libraries/XMCLib/inc\xmc_usic.h ****  * XMC_USIC_CH_Disable(), XMC_USIC_Enable() \n\n\n
 607:C:/Users/±è°æ¹Î/Desktop/IFX_S2GL-HW-SW_V1.1.3/Firmware_Software/DAVE project/S2GL_Doppler/Libraries/XMCLib/inc\xmc_usic.h ****  */
 608:C:/Users/±è°æ¹Î/Desktop/IFX_S2GL-HW-SW_V1.1.3/Firmware_Software/DAVE project/S2GL_Doppler/Libraries/XMCLib/inc\xmc_usic.h **** void XMC_USIC_CH_Enable(XMC_USIC_CH_t *const channel);
 609:C:/Users/±è°æ¹Î/Desktop/IFX_S2GL-HW-SW_V1.1.3/Firmware_Software/DAVE project/S2GL_Doppler/Libraries/XMCLib/inc\xmc_usic.h **** /**
 610:C:/Users/±è°æ¹Î/Desktop/IFX_S2GL-HW-SW_V1.1.3/Firmware_Software/DAVE project/S2GL_Doppler/Libraries/XMCLib/inc\xmc_usic.h ****  * @param  channel Pointer to USIC channel handler of type @ref XMC_USIC_CH_t \n
 611:C:/Users/±è°æ¹Î/Desktop/IFX_S2GL-HW-SW_V1.1.3/Firmware_Software/DAVE project/S2GL_Doppler/Libraries/XMCLib/inc\xmc_usic.h ****  * 				   \b Range: @ref XMC_USIC0_CH0, @ref XMC_USIC0_CH1 to @ref XMC_USIC2_CH1 based on device su
 612:C:/Users/±è°æ¹Î/Desktop/IFX_S2GL-HW-SW_V1.1.3/Firmware_Software/DAVE project/S2GL_Doppler/Libraries/XMCLib/inc\xmc_usic.h ****  * @return None
 613:C:/Users/±è°æ¹Î/Desktop/IFX_S2GL-HW-SW_V1.1.3/Firmware_Software/DAVE project/S2GL_Doppler/Libraries/XMCLib/inc\xmc_usic.h ****  *
 614:C:/Users/±è°æ¹Î/Desktop/IFX_S2GL-HW-SW_V1.1.3/Firmware_Software/DAVE project/S2GL_Doppler/Libraries/XMCLib/inc\xmc_usic.h ****  * \par<b>Description</b><br>
 615:C:/Users/±è°æ¹Î/Desktop/IFX_S2GL-HW-SW_V1.1.3/Firmware_Software/DAVE project/S2GL_Doppler/Libraries/XMCLib/inc\xmc_usic.h ****  * Disables the USIC channel.\n\n
 616:C:/Users/±è°æ¹Î/Desktop/IFX_S2GL-HW-SW_V1.1.3/Firmware_Software/DAVE project/S2GL_Doppler/Libraries/XMCLib/inc\xmc_usic.h ****  * USIC channel is disabled by setting the module enable bit(MDEN) to 0 in the register KSCFG.
 617:C:/Users/±è°æ¹Î/Desktop/IFX_S2GL-HW-SW_V1.1.3/Firmware_Software/DAVE project/S2GL_Doppler/Libraries/XMCLib/inc\xmc_usic.h ****  *
 618:C:/Users/±è°æ¹Î/Desktop/IFX_S2GL-HW-SW_V1.1.3/Firmware_Software/DAVE project/S2GL_Doppler/Libraries/XMCLib/inc\xmc_usic.h ****  * \par<b>Related APIs:</b><BR>
 619:C:/Users/±è°æ¹Î/Desktop/IFX_S2GL-HW-SW_V1.1.3/Firmware_Software/DAVE project/S2GL_Doppler/Libraries/XMCLib/inc\xmc_usic.h ****  * XMC_USIC_CH_Enable(), XMC_USIC_Disable() \n\n\n
 620:C:/Users/±è°æ¹Î/Desktop/IFX_S2GL-HW-SW_V1.1.3/Firmware_Software/DAVE project/S2GL_Doppler/Libraries/XMCLib/inc\xmc_usic.h ****  */
 621:C:/Users/±è°æ¹Î/Desktop/IFX_S2GL-HW-SW_V1.1.3/Firmware_Software/DAVE project/S2GL_Doppler/Libraries/XMCLib/inc\xmc_usic.h **** void XMC_USIC_CH_Disable(XMC_USIC_CH_t *const channel);
 622:C:/Users/±è°æ¹Î/Desktop/IFX_S2GL-HW-SW_V1.1.3/Firmware_Software/DAVE project/S2GL_Doppler/Libraries/XMCLib/inc\xmc_usic.h **** 
 623:C:/Users/±è°æ¹Î/Desktop/IFX_S2GL-HW-SW_V1.1.3/Firmware_Software/DAVE project/S2GL_Doppler/Libraries/XMCLib/inc\xmc_usic.h **** /**
 624:C:/Users/±è°æ¹Î/Desktop/IFX_S2GL-HW-SW_V1.1.3/Firmware_Software/DAVE project/S2GL_Doppler/Libraries/XMCLib/inc\xmc_usic.h ****  * @param  channel Pointer to USIC channel handler of type @ref XMC_USIC_CH_t \n
 625:C:/Users/±è°æ¹Î/Desktop/IFX_S2GL-HW-SW_V1.1.3/Firmware_Software/DAVE project/S2GL_Doppler/Libraries/XMCLib/inc\xmc_usic.h ****  * 				   \b Range: @ref XMC_USIC0_CH0, @ref XMC_USIC0_CH1 to @ref XMC_USIC2_CH1 based on device su
 626:C:/Users/±è°æ¹Î/Desktop/IFX_S2GL-HW-SW_V1.1.3/Firmware_Software/DAVE project/S2GL_Doppler/Libraries/XMCLib/inc\xmc_usic.h ****  * @param  rate Desired baudrate. \b Range: minimum value = 100, maximum value depends on the perip
 627:C:/Users/±è°æ¹Î/Desktop/IFX_S2GL-HW-SW_V1.1.3/Firmware_Software/DAVE project/S2GL_Doppler/Libraries/XMCLib/inc\xmc_usic.h ****  * 				and \a oversampling. Maximum baudrate can be derived using the formula: (fperiph * 1023)/(10
 628:C:/Users/±è°æ¹Î/Desktop/IFX_S2GL-HW-SW_V1.1.3/Firmware_Software/DAVE project/S2GL_Doppler/Libraries/XMCLib/inc\xmc_usic.h ****  * @param  oversampling Required oversampling. The value indicates the number of time quanta for on
 629:C:/Users/±è°æ¹Î/Desktop/IFX_S2GL-HW-SW_V1.1.3/Firmware_Software/DAVE project/S2GL_Doppler/Libraries/XMCLib/inc\xmc_usic.h ****  * 						This can be related to the number of samples for each logic state of the data signal. \n
 630:C:/Users/±è°æ¹Î/Desktop/IFX_S2GL-HW-SW_V1.1.3/Firmware_Software/DAVE project/S2GL_Doppler/Libraries/XMCLib/inc\xmc_usic.h ****  * 						\b Range: 1 to 32. Value should be chosen based on the protocol used.
 631:C:/Users/±è°æ¹Î/Desktop/IFX_S2GL-HW-SW_V1.1.3/Firmware_Software/DAVE project/S2GL_Doppler/Libraries/XMCLib/inc\xmc_usic.h ****  * @return Status indicating the baudrate configuration.\n
 632:C:/Users/±è°æ¹Î/Desktop/IFX_S2GL-HW-SW_V1.1.3/Firmware_Software/DAVE project/S2GL_Doppler/Libraries/XMCLib/inc\xmc_usic.h ****  * 			\b Range: @ref XMC_USIC_CH_STATUS_OK if baudrate is successfully configured,
 633:C:/Users/±è°æ¹Î/Desktop/IFX_S2GL-HW-SW_V1.1.3/Firmware_Software/DAVE project/S2GL_Doppler/Libraries/XMCLib/inc\xmc_usic.h ****  * 					  @ref XMC_USIC_CH_STATUS_ERROR if desired baudrate or oversampling is invalid.
 634:C:/Users/±è°æ¹Î/Desktop/IFX_S2GL-HW-SW_V1.1.3/Firmware_Software/DAVE project/S2GL_Doppler/Libraries/XMCLib/inc\xmc_usic.h ****  *
 635:C:/Users/±è°æ¹Î/Desktop/IFX_S2GL-HW-SW_V1.1.3/Firmware_Software/DAVE project/S2GL_Doppler/Libraries/XMCLib/inc\xmc_usic.h ****  * \par<b>Description</b><br>
 636:C:/Users/±è°æ¹Î/Desktop/IFX_S2GL-HW-SW_V1.1.3/Firmware_Software/DAVE project/S2GL_Doppler/Libraries/XMCLib/inc\xmc_usic.h ****  * Configures the baudrate of the USIC channel. \n\n
 637:C:/Users/±è°æ¹Î/Desktop/IFX_S2GL-HW-SW_V1.1.3/Firmware_Software/DAVE project/S2GL_Doppler/Libraries/XMCLib/inc\xmc_usic.h ****  * Baudrate is configured by considering the peripheral frequency and the desired baudrate.
 638:C:/Users/±è°æ¹Î/Desktop/IFX_S2GL-HW-SW_V1.1.3/Firmware_Software/DAVE project/S2GL_Doppler/Libraries/XMCLib/inc\xmc_usic.h ****  * Optimum values of FDR->STEP and BRG->PDIV are calulated and used for generating the desired
 639:C:/Users/±è°æ¹Î/Desktop/IFX_S2GL-HW-SW_V1.1.3/Firmware_Software/DAVE project/S2GL_Doppler/Libraries/XMCLib/inc\xmc_usic.h ****  * baudrate.
 640:C:/Users/±è°æ¹Î/Desktop/IFX_S2GL-HW-SW_V1.1.3/Firmware_Software/DAVE project/S2GL_Doppler/Libraries/XMCLib/inc\xmc_usic.h ****  *
 641:C:/Users/±è°æ¹Î/Desktop/IFX_S2GL-HW-SW_V1.1.3/Firmware_Software/DAVE project/S2GL_Doppler/Libraries/XMCLib/inc\xmc_usic.h ****  * \par<b>Related APIs:</b><BR>
 642:C:/Users/±è°æ¹Î/Desktop/IFX_S2GL-HW-SW_V1.1.3/Firmware_Software/DAVE project/S2GL_Doppler/Libraries/XMCLib/inc\xmc_usic.h ****  * XMC_USIC_CH_SetStartTransmisionMode(), XMC_USIC_CH_SetInputSource() \n\n\n
 643:C:/Users/±è°æ¹Î/Desktop/IFX_S2GL-HW-SW_V1.1.3/Firmware_Software/DAVE project/S2GL_Doppler/Libraries/XMCLib/inc\xmc_usic.h ****  */
 644:C:/Users/±è°æ¹Î/Desktop/IFX_S2GL-HW-SW_V1.1.3/Firmware_Software/DAVE project/S2GL_Doppler/Libraries/XMCLib/inc\xmc_usic.h **** XMC_USIC_CH_STATUS_t XMC_USIC_CH_SetBaudrate(XMC_USIC_CH_t *const channel, uint32_t rate, uint32_t 
 645:C:/Users/±è°æ¹Î/Desktop/IFX_S2GL-HW-SW_V1.1.3/Firmware_Software/DAVE project/S2GL_Doppler/Libraries/XMCLib/inc\xmc_usic.h **** 
 646:C:/Users/±è°æ¹Î/Desktop/IFX_S2GL-HW-SW_V1.1.3/Firmware_Software/DAVE project/S2GL_Doppler/Libraries/XMCLib/inc\xmc_usic.h **** /**
 647:C:/Users/±è°æ¹Î/Desktop/IFX_S2GL-HW-SW_V1.1.3/Firmware_Software/DAVE project/S2GL_Doppler/Libraries/XMCLib/inc\xmc_usic.h ****  * @param  channel Pointer to USIC channel handler of type @ref XMC_USIC_CH_t \n
 648:C:/Users/±è°æ¹Î/Desktop/IFX_S2GL-HW-SW_V1.1.3/Firmware_Software/DAVE project/S2GL_Doppler/Libraries/XMCLib/inc\xmc_usic.h ****  * 				   \b Range: @ref XMC_USIC0_CH0, @ref XMC_USIC0_CH1 to @ref XMC_USIC2_CH1 based on device su
 649:C:/Users/±è°æ¹Î/Desktop/IFX_S2GL-HW-SW_V1.1.3/Firmware_Software/DAVE project/S2GL_Doppler/Libraries/XMCLib/inc\xmc_usic.h ****  * @param  pdiv Desired divider for the external frequency input. \b Range: minimum value = 1, maxi
 650:C:/Users/±è°æ¹Î/Desktop/IFX_S2GL-HW-SW_V1.1.3/Firmware_Software/DAVE project/S2GL_Doppler/Libraries/XMCLib/inc\xmc_usic.h ****  * @param  oversampling Required oversampling. The value indicates the number of time quanta for on
 651:C:/Users/±è°æ¹Î/Desktop/IFX_S2GL-HW-SW_V1.1.3/Firmware_Software/DAVE project/S2GL_Doppler/Libraries/XMCLib/inc\xmc_usic.h ****  * 						This can be related to the number of samples for each logic state of the data signal. \n
 652:C:/Users/±è°æ¹Î/Desktop/IFX_S2GL-HW-SW_V1.1.3/Firmware_Software/DAVE project/S2GL_Doppler/Libraries/XMCLib/inc\xmc_usic.h ****  * 						\b Range: 1 to 32. Value should be chosen based on the protocol used.
 653:C:/Users/±è°æ¹Î/Desktop/IFX_S2GL-HW-SW_V1.1.3/Firmware_Software/DAVE project/S2GL_Doppler/Libraries/XMCLib/inc\xmc_usic.h ****  * @param  combination_mode Selects which edge of the synchronized(and optionally filtered) signal 
 654:C:/Users/±è°æ¹Î/Desktop/IFX_S2GL-HW-SW_V1.1.3/Firmware_Software/DAVE project/S2GL_Doppler/Libraries/XMCLib/inc\xmc_usic.h ****  *                          output DXnT of the input stage.
 655:C:/Users/±è°æ¹Î/Desktop/IFX_S2GL-HW-SW_V1.1.3/Firmware_Software/DAVE project/S2GL_Doppler/Libraries/XMCLib/inc\xmc_usic.h ****  *
 656:C:/Users/±è°æ¹Î/Desktop/IFX_S2GL-HW-SW_V1.1.3/Firmware_Software/DAVE project/S2GL_Doppler/Libraries/XMCLib/inc\xmc_usic.h ****  * @return None
 657:C:/Users/±è°æ¹Î/Desktop/IFX_S2GL-HW-SW_V1.1.3/Firmware_Software/DAVE project/S2GL_Doppler/Libraries/XMCLib/inc\xmc_usic.h ****  *
 658:C:/Users/±è°æ¹Î/Desktop/IFX_S2GL-HW-SW_V1.1.3/Firmware_Software/DAVE project/S2GL_Doppler/Libraries/XMCLib/inc\xmc_usic.h ****  * \par<b>Description</b><br>
 659:C:/Users/±è°æ¹Î/Desktop/IFX_S2GL-HW-SW_V1.1.3/Firmware_Software/DAVE project/S2GL_Doppler/Libraries/XMCLib/inc\xmc_usic.h ****  * Enables the external frequency input for the Baudrate Generator and configures the divider, over
 660:C:/Users/±è°æ¹Î/Desktop/IFX_S2GL-HW-SW_V1.1.3/Firmware_Software/DAVE project/S2GL_Doppler/Libraries/XMCLib/inc\xmc_usic.h ****  * the combination mode of the USIC channel. \n\n
 661:C:/Users/±è°æ¹Î/Desktop/IFX_S2GL-HW-SW_V1.1.3/Firmware_Software/DAVE project/S2GL_Doppler/Libraries/XMCLib/inc\xmc_usic.h ****  *
 662:C:/Users/±è°æ¹Î/Desktop/IFX_S2GL-HW-SW_V1.1.3/Firmware_Software/DAVE project/S2GL_Doppler/Libraries/XMCLib/inc\xmc_usic.h ****  * \par<b>Related APIs:</b><BR>
 663:C:/Users/±è°æ¹Î/Desktop/IFX_S2GL-HW-SW_V1.1.3/Firmware_Software/DAVE project/S2GL_Doppler/Libraries/XMCLib/inc\xmc_usic.h ****  * XMC_USIC_CH_SetBRGInputClockSource(), XMC_USIC_CH_SetInputTriggerCombinationMode() \n\n\n
 664:C:/Users/±è°æ¹Î/Desktop/IFX_S2GL-HW-SW_V1.1.3/Firmware_Software/DAVE project/S2GL_Doppler/Libraries/XMCLib/inc\xmc_usic.h ****  */
 665:C:/Users/±è°æ¹Î/Desktop/IFX_S2GL-HW-SW_V1.1.3/Firmware_Software/DAVE project/S2GL_Doppler/Libraries/XMCLib/inc\xmc_usic.h **** void XMC_USIC_CH_ConfigExternalInputSignalToBRG(XMC_USIC_CH_t *const channel,
 666:C:/Users/±è°æ¹Î/Desktop/IFX_S2GL-HW-SW_V1.1.3/Firmware_Software/DAVE project/S2GL_Doppler/Libraries/XMCLib/inc\xmc_usic.h **** 		                                         const uint16_t pdiv,
 667:C:/Users/±è°æ¹Î/Desktop/IFX_S2GL-HW-SW_V1.1.3/Firmware_Software/DAVE project/S2GL_Doppler/Libraries/XMCLib/inc\xmc_usic.h **** 												 const uint32_t oversampling,
 668:C:/Users/±è°æ¹Î/Desktop/IFX_S2GL-HW-SW_V1.1.3/Firmware_Software/DAVE project/S2GL_Doppler/Libraries/XMCLib/inc\xmc_usic.h **** 												 const XMC_USIC_CH_INPUT_COMBINATION_MODE_t combination_mode);
 669:C:/Users/±è°æ¹Î/Desktop/IFX_S2GL-HW-SW_V1.1.3/Firmware_Software/DAVE project/S2GL_Doppler/Libraries/XMCLib/inc\xmc_usic.h **** 
 670:C:/Users/±è°æ¹Î/Desktop/IFX_S2GL-HW-SW_V1.1.3/Firmware_Software/DAVE project/S2GL_Doppler/Libraries/XMCLib/inc\xmc_usic.h **** /**
 671:C:/Users/±è°æ¹Î/Desktop/IFX_S2GL-HW-SW_V1.1.3/Firmware_Software/DAVE project/S2GL_Doppler/Libraries/XMCLib/inc\xmc_usic.h ****  * @param  channel Pointer to USIC channel handler of type @ref XMC_USIC_CH_t \n
 672:C:/Users/±è°æ¹Î/Desktop/IFX_S2GL-HW-SW_V1.1.3/Firmware_Software/DAVE project/S2GL_Doppler/Libraries/XMCLib/inc\xmc_usic.h ****  * 				   \b Range: @ref XMC_USIC0_CH0, @ref XMC_USIC0_CH1 to @ref XMC_USIC2_CH1 based on device su
 673:C:/Users/±è°æ¹Î/Desktop/IFX_S2GL-HW-SW_V1.1.3/Firmware_Software/DAVE project/S2GL_Doppler/Libraries/XMCLib/inc\xmc_usic.h ****  * @param  input USIC channel input stage of type @ref XMC_USIC_CH_INPUT_t. \n
 674:C:/Users/±è°æ¹Î/Desktop/IFX_S2GL-HW-SW_V1.1.3/Firmware_Software/DAVE project/S2GL_Doppler/Libraries/XMCLib/inc\xmc_usic.h ****  * 				 \b Range: @ref XMC_USIC_CH_INPUT_DX0 to @ref XMC_USIC_CH_INPUT_DX5
 675:C:/Users/±è°æ¹Î/Desktop/IFX_S2GL-HW-SW_V1.1.3/Firmware_Software/DAVE project/S2GL_Doppler/Libraries/XMCLib/inc\xmc_usic.h ****  * @param  source Input source select for the input stage. The table below maps the enum value with
 676:C:/Users/±è°æ¹Î/Desktop/IFX_S2GL-HW-SW_V1.1.3/Firmware_Software/DAVE project/S2GL_Doppler/Libraries/XMCLib/inc\xmc_usic.h ****  * <table><tr><td>0</td><td>DXnA</td></tr><tr><td>1</td><td>DXnB</td></tr><tr><td>2</td><td>DXnC</t
 677:C:/Users/±è°æ¹Î/Desktop/IFX_S2GL-HW-SW_V1.1.3/Firmware_Software/DAVE project/S2GL_Doppler/Libraries/XMCLib/inc\xmc_usic.h ****  * <tr><td>4</td><td>DXnE</td></tr><tr><td>5</td><td>DXnF</td></tr><tr><td>6</td><td>DXnG</td></tr>
 678:C:/Users/±è°æ¹Î/Desktop/IFX_S2GL-HW-SW_V1.1.3/Firmware_Software/DAVE project/S2GL_Doppler/Libraries/XMCLib/inc\xmc_usic.h ****  * </tr></table>
 679:C:/Users/±è°æ¹Î/Desktop/IFX_S2GL-HW-SW_V1.1.3/Firmware_Software/DAVE project/S2GL_Doppler/Libraries/XMCLib/inc\xmc_usic.h ****  * @return None
 680:C:/Users/±è°æ¹Î/Desktop/IFX_S2GL-HW-SW_V1.1.3/Firmware_Software/DAVE project/S2GL_Doppler/Libraries/XMCLib/inc\xmc_usic.h ****  *
 681:C:/Users/±è°æ¹Î/Desktop/IFX_S2GL-HW-SW_V1.1.3/Firmware_Software/DAVE project/S2GL_Doppler/Libraries/XMCLib/inc\xmc_usic.h ****  * \par<b>Description</b><br>
 682:C:/Users/±è°æ¹Î/Desktop/IFX_S2GL-HW-SW_V1.1.3/Firmware_Software/DAVE project/S2GL_Doppler/Libraries/XMCLib/inc\xmc_usic.h ****  * Selects the data source for USIC input stage.\n\n
 683:C:/Users/±è°æ¹Î/Desktop/IFX_S2GL-HW-SW_V1.1.3/Firmware_Software/DAVE project/S2GL_Doppler/Libraries/XMCLib/inc\xmc_usic.h ****  * Selects the input data signal source among DXnA, DXnB.. DXnG for the input stage. The API can be
 684:C:/Users/±è°æ¹Î/Desktop/IFX_S2GL-HW-SW_V1.1.3/Firmware_Software/DAVE project/S2GL_Doppler/Libraries/XMCLib/inc\xmc_usic.h ****  * like DX0CR, DX1CR etc. 
 685:C:/Users/±è°æ¹Î/Desktop/IFX_S2GL-HW-SW_V1.1.3/Firmware_Software/DAVE project/S2GL_Doppler/Libraries/XMCLib/inc\xmc_usic.h ****  *  
 686:C:/Users/±è°æ¹Î/Desktop/IFX_S2GL-HW-SW_V1.1.3/Firmware_Software/DAVE project/S2GL_Doppler/Libraries/XMCLib/inc\xmc_usic.h ****  * \par<b>Related APIs:</b><BR>
 687:C:/Users/±è°æ¹Î/Desktop/IFX_S2GL-HW-SW_V1.1.3/Firmware_Software/DAVE project/S2GL_Doppler/Libraries/XMCLib/inc\xmc_usic.h ****  * XMC_USIC_CH_EnableInputInversion(), XMC_USIC_CH_EnableInputDigitalFilter(), XMC_USIC_CH_EnableIn
 688:C:/Users/±è°æ¹Î/Desktop/IFX_S2GL-HW-SW_V1.1.3/Firmware_Software/DAVE project/S2GL_Doppler/Libraries/XMCLib/inc\xmc_usic.h ****  * XMC_USIC_CH_SetInputSamplingFreq()\n\n\n
 689:C:/Users/±è°æ¹Î/Desktop/IFX_S2GL-HW-SW_V1.1.3/Firmware_Software/DAVE project/S2GL_Doppler/Libraries/XMCLib/inc\xmc_usic.h ****  */
 690:C:/Users/±è°æ¹Î/Desktop/IFX_S2GL-HW-SW_V1.1.3/Firmware_Software/DAVE project/S2GL_Doppler/Libraries/XMCLib/inc\xmc_usic.h **** __STATIC_INLINE void XMC_USIC_CH_SetInputSource(XMC_USIC_CH_t *const channel, const XMC_USIC_CH_INP
 691:C:/Users/±è°æ¹Î/Desktop/IFX_S2GL-HW-SW_V1.1.3/Firmware_Software/DAVE project/S2GL_Doppler/Libraries/XMCLib/inc\xmc_usic.h **** {
 692:C:/Users/±è°æ¹Î/Desktop/IFX_S2GL-HW-SW_V1.1.3/Firmware_Software/DAVE project/S2GL_Doppler/Libraries/XMCLib/inc\xmc_usic.h ****   channel->DXCR[input] = (uint32_t)((channel->DXCR[input] & (uint32_t)(~USIC_CH_DXCR_DSEL_Msk)) |
  56              	 .loc 2 692 0
  57 001a 0722     	 mov r2,#7
  58 001c 0621     	 mov r1,#6
  59 001e E369     	 ldr r3,[r4,#28]
  60              	.LBE35:
  61              	.LBE34:
 173:../Dave/Generated/UART/uart_conf.c ****   /*Set input source path*/
 174:../Dave/Generated/UART/uart_conf.c ****   XMC_USIC_CH_SetInputSource(XMC_UART0_CH0, XMC_USIC_CH_INPUT_DX0, 6U);
 175:../Dave/Generated/UART/uart_conf.c ****   XMC_USIC_CH_SetInputSource(XMC_UART0_CH0, XMC_USIC_CH_INPUT_DX3, 4U);
 176:../Dave/Generated/UART/uart_conf.c ****   XMC_USIC_CH_SetInputSource(XMC_UART0_CH0, XMC_USIC_CH_INPUT_DX5, 0U);
 177:../Dave/Generated/UART/uart_conf.c ****   /*Configure transmit FIFO*/
 178:../Dave/Generated/UART/uart_conf.c ****   XMC_USIC_CH_TXFIFO_Configure(XMC_UART0_CH0,
  62              	 .loc 1 178 0
  63 0020 201C     	 mov r0,r4
  64              	.LBB37:
  65              	.LBB36:
  66              	 .loc 2 692 0
  67 0022 9343     	 bic r3,r2
  68 0024 0B43     	 orr r3,r1
  69 0026 E361     	 str r3,[r4,#28]
  70              	.LVL3:
  71              	.LBE36:
  72              	.LBE37:
  73              	.LBB38:
  74              	.LBB39:
  75 0028 A36A     	 ldr r3,[r4,#40]
  76 002a 0239     	 sub r1,r1,#2
  77 002c 9343     	 bic r3,r2
  78 002e 0B43     	 orr r3,r1
  79 0030 A362     	 str r3,[r4,#40]
  80              	.LVL4:
  81              	.LBE39:
  82              	.LBE38:
  83              	.LBB40:
  84              	.LBB41:
  85 0032 236B     	 ldr r3,[r4,#48]
  86              	.LBE41:
  87              	.LBE40:
  88              	 .loc 1 178 0
  89 0034 0C31     	 add r1,r1,#12
  90              	.LBB43:
  91              	.LBB42:
  92              	 .loc 2 692 0
  93 0036 9343     	 bic r3,r2
  94 0038 2363     	 str r3,[r4,#48]
  95              	.LBE42:
  96              	.LBE43:
  97              	 .loc 1 178 0
  98 003a 033A     	 sub r2,r2,#3
  99 003c 0123     	 mov r3,#1
 100 003e FFF7FEFF 	 bl XMC_USIC_CH_TXFIFO_Configure
 101              	.LVL5:
 179:../Dave/Generated/UART/uart_conf.c ****         16U,
 180:../Dave/Generated/UART/uart_conf.c ****         XMC_USIC_CH_FIFO_SIZE_16WORDS,
 181:../Dave/Generated/UART/uart_conf.c ****         1U);
 182:../Dave/Generated/UART/uart_conf.c ****   /*Configure receive FIFO*/
 183:../Dave/Generated/UART/uart_conf.c ****   XMC_USIC_CH_RXFIFO_Configure(XMC_UART0_CH0,
 102              	 .loc 1 183 0
 103 0042 201C     	 mov r0,r4
 104 0044 0021     	 mov r1,#0
 105 0046 0422     	 mov r2,#4
 106 0048 0023     	 mov r3,#0
 107 004a FFF7FEFF 	 bl XMC_USIC_CH_RXFIFO_Configure
 108              	.LVL6:
 109              	.LBB44:
 110              	.LBB45:
 111              	 .file 3 "C:/Users/\261\350\260\346\271\316/Desktop/IFX_S2GL-HW-SW_V1.1.3/Firmware_Software/DAVE project/S2GL_Doppler/Libraries/XMCLib/inc/xmc_uart.h"
   1:C:/Users/±è°æ¹Î/Desktop/IFX_S2GL-HW-SW_V1.1.3/Firmware_Software/DAVE project/S2GL_Doppler/Libraries/XMCLib/inc\xmc_uart.h ****  /**
   2:C:/Users/±è°æ¹Î/Desktop/IFX_S2GL-HW-SW_V1.1.3/Firmware_Software/DAVE project/S2GL_Doppler/Libraries/XMCLib/inc\xmc_uart.h ****  * @file xmc_uart.h
   3:C:/Users/±è°æ¹Î/Desktop/IFX_S2GL-HW-SW_V1.1.3/Firmware_Software/DAVE project/S2GL_Doppler/Libraries/XMCLib/inc\xmc_uart.h ****  * @date 2015-09-01
   4:C:/Users/±è°æ¹Î/Desktop/IFX_S2GL-HW-SW_V1.1.3/Firmware_Software/DAVE project/S2GL_Doppler/Libraries/XMCLib/inc\xmc_uart.h ****  *
   5:C:/Users/±è°æ¹Î/Desktop/IFX_S2GL-HW-SW_V1.1.3/Firmware_Software/DAVE project/S2GL_Doppler/Libraries/XMCLib/inc\xmc_uart.h ****  * @cond
   6:C:/Users/±è°æ¹Î/Desktop/IFX_S2GL-HW-SW_V1.1.3/Firmware_Software/DAVE project/S2GL_Doppler/Libraries/XMCLib/inc\xmc_uart.h **** ***************************************************************************************************
   7:C:/Users/±è°æ¹Î/Desktop/IFX_S2GL-HW-SW_V1.1.3/Firmware_Software/DAVE project/S2GL_Doppler/Libraries/XMCLib/inc\xmc_uart.h ****  * XMClib v2.1.6 - XMC Peripheral Driver Library 
   8:C:/Users/±è°æ¹Î/Desktop/IFX_S2GL-HW-SW_V1.1.3/Firmware_Software/DAVE project/S2GL_Doppler/Libraries/XMCLib/inc\xmc_uart.h ****  *
   9:C:/Users/±è°æ¹Î/Desktop/IFX_S2GL-HW-SW_V1.1.3/Firmware_Software/DAVE project/S2GL_Doppler/Libraries/XMCLib/inc\xmc_uart.h ****  * Copyright (C) 2015-2019 Infineon Technologies AG
  10:C:/Users/±è°æ¹Î/Desktop/IFX_S2GL-HW-SW_V1.1.3/Firmware_Software/DAVE project/S2GL_Doppler/Libraries/XMCLib/inc\xmc_uart.h ****  * All rights reserved.                        
  11:C:/Users/±è°æ¹Î/Desktop/IFX_S2GL-HW-SW_V1.1.3/Firmware_Software/DAVE project/S2GL_Doppler/Libraries/XMCLib/inc\xmc_uart.h ****  *                                             
  12:C:/Users/±è°æ¹Î/Desktop/IFX_S2GL-HW-SW_V1.1.3/Firmware_Software/DAVE project/S2GL_Doppler/Libraries/XMCLib/inc\xmc_uart.h ****  * Redistribution and use in source and binary forms, with or without modification,are permitted pr
  13:C:/Users/±è°æ¹Î/Desktop/IFX_S2GL-HW-SW_V1.1.3/Firmware_Software/DAVE project/S2GL_Doppler/Libraries/XMCLib/inc\xmc_uart.h ****  * following conditions are met:   
  14:C:/Users/±è°æ¹Î/Desktop/IFX_S2GL-HW-SW_V1.1.3/Firmware_Software/DAVE project/S2GL_Doppler/Libraries/XMCLib/inc\xmc_uart.h ****  *                                                                              
  15:C:/Users/±è°æ¹Î/Desktop/IFX_S2GL-HW-SW_V1.1.3/Firmware_Software/DAVE project/S2GL_Doppler/Libraries/XMCLib/inc\xmc_uart.h ****  * Redistributions of source code must retain the above copyright notice, this list of conditions a
  16:C:/Users/±è°æ¹Î/Desktop/IFX_S2GL-HW-SW_V1.1.3/Firmware_Software/DAVE project/S2GL_Doppler/Libraries/XMCLib/inc\xmc_uart.h ****  * disclaimer.                        
  17:C:/Users/±è°æ¹Î/Desktop/IFX_S2GL-HW-SW_V1.1.3/Firmware_Software/DAVE project/S2GL_Doppler/Libraries/XMCLib/inc\xmc_uart.h ****  * 
  18:C:/Users/±è°æ¹Î/Desktop/IFX_S2GL-HW-SW_V1.1.3/Firmware_Software/DAVE project/S2GL_Doppler/Libraries/XMCLib/inc\xmc_uart.h ****  * Redistributions in binary form must reproduce the above copyright notice, this list of condition
  19:C:/Users/±è°æ¹Î/Desktop/IFX_S2GL-HW-SW_V1.1.3/Firmware_Software/DAVE project/S2GL_Doppler/Libraries/XMCLib/inc\xmc_uart.h ****  * disclaimer in the documentation and/or other materials provided with the distribution.          
  20:C:/Users/±è°æ¹Î/Desktop/IFX_S2GL-HW-SW_V1.1.3/Firmware_Software/DAVE project/S2GL_Doppler/Libraries/XMCLib/inc\xmc_uart.h ****  * 
  21:C:/Users/±è°æ¹Î/Desktop/IFX_S2GL-HW-SW_V1.1.3/Firmware_Software/DAVE project/S2GL_Doppler/Libraries/XMCLib/inc\xmc_uart.h ****  * Neither the name of the copyright holders nor the names of its contributors may be used to endor
  22:C:/Users/±è°æ¹Î/Desktop/IFX_S2GL-HW-SW_V1.1.3/Firmware_Software/DAVE project/S2GL_Doppler/Libraries/XMCLib/inc\xmc_uart.h ****  * products derived from this software without specific prior written permission.                  
  23:C:/Users/±è°æ¹Î/Desktop/IFX_S2GL-HW-SW_V1.1.3/Firmware_Software/DAVE project/S2GL_Doppler/Libraries/XMCLib/inc\xmc_uart.h ****  *                                                                              
  24:C:/Users/±è°æ¹Î/Desktop/IFX_S2GL-HW-SW_V1.1.3/Firmware_Software/DAVE project/S2GL_Doppler/Libraries/XMCLib/inc\xmc_uart.h ****  * THIS SOFTWARE IS PROVIDED BY THE COPYRIGHT HOLDERS AND CONTRIBUTORS "AS IS" AND ANY EXPRESS OR I
  25:C:/Users/±è°æ¹Î/Desktop/IFX_S2GL-HW-SW_V1.1.3/Firmware_Software/DAVE project/S2GL_Doppler/Libraries/XMCLib/inc\xmc_uart.h ****  * INCLUDING, BUT NOT LIMITED TO, THE IMPLIED WARRANTIES OF MERCHANTABILITY AND FITNESS FOR A PARTI
  26:C:/Users/±è°æ¹Î/Desktop/IFX_S2GL-HW-SW_V1.1.3/Firmware_Software/DAVE project/S2GL_Doppler/Libraries/XMCLib/inc\xmc_uart.h ****  * DISCLAIMED. IN NO EVENT SHALL THE COPYRIGHT HOLDER OR CONTRIBUTORS BE LIABLE  FOR ANY DIRECT, IN
  27:C:/Users/±è°æ¹Î/Desktop/IFX_S2GL-HW-SW_V1.1.3/Firmware_Software/DAVE project/S2GL_Doppler/Libraries/XMCLib/inc\xmc_uart.h ****  * SPECIAL, EXEMPLARY, OR CONSEQUENTIAL DAMAGES (INCLUDING, BUT NOT LIMITED TO, PROCUREMENT OF SUBS
  28:C:/Users/±è°æ¹Î/Desktop/IFX_S2GL-HW-SW_V1.1.3/Firmware_Software/DAVE project/S2GL_Doppler/Libraries/XMCLib/inc\xmc_uart.h ****  * SERVICES; LOSS OF USE, DATA, OR PROFITS; OR BUSINESS INTERRUPTION) HOWEVER CAUSED AND ON ANY THE
  29:C:/Users/±è°æ¹Î/Desktop/IFX_S2GL-HW-SW_V1.1.3/Firmware_Software/DAVE project/S2GL_Doppler/Libraries/XMCLib/inc\xmc_uart.h ****  * WHETHER IN CONTRACT, STRICT LIABILITY,OR TORT (INCLUDING NEGLIGENCE OR OTHERWISE) ARISING IN ANY
  30:C:/Users/±è°æ¹Î/Desktop/IFX_S2GL-HW-SW_V1.1.3/Firmware_Software/DAVE project/S2GL_Doppler/Libraries/XMCLib/inc\xmc_uart.h ****  * OF THIS SOFTWARE, EVEN IF ADVISED OF THE POSSIBILITY OF SUCH DAMAGE.                            
  31:C:/Users/±è°æ¹Î/Desktop/IFX_S2GL-HW-SW_V1.1.3/Firmware_Software/DAVE project/S2GL_Doppler/Libraries/XMCLib/inc\xmc_uart.h ****  *                                                                              
  32:C:/Users/±è°æ¹Î/Desktop/IFX_S2GL-HW-SW_V1.1.3/Firmware_Software/DAVE project/S2GL_Doppler/Libraries/XMCLib/inc\xmc_uart.h ****  * To improve the quality of the software, users are encouraged to share modifications, enhancement
  33:C:/Users/±è°æ¹Î/Desktop/IFX_S2GL-HW-SW_V1.1.3/Firmware_Software/DAVE project/S2GL_Doppler/Libraries/XMCLib/inc\xmc_uart.h ****  * Infineon Technologies AG dave@infineon.com).                                                    
  34:C:/Users/±è°æ¹Î/Desktop/IFX_S2GL-HW-SW_V1.1.3/Firmware_Software/DAVE project/S2GL_Doppler/Libraries/XMCLib/inc\xmc_uart.h ****  **************************************************************************************************
  35:C:/Users/±è°æ¹Î/Desktop/IFX_S2GL-HW-SW_V1.1.3/Firmware_Software/DAVE project/S2GL_Doppler/Libraries/XMCLib/inc\xmc_uart.h ****  *
  36:C:/Users/±è°æ¹Î/Desktop/IFX_S2GL-HW-SW_V1.1.3/Firmware_Software/DAVE project/S2GL_Doppler/Libraries/XMCLib/inc\xmc_uart.h ****  * Change History
  37:C:/Users/±è°æ¹Î/Desktop/IFX_S2GL-HW-SW_V1.1.3/Firmware_Software/DAVE project/S2GL_Doppler/Libraries/XMCLib/inc\xmc_uart.h ****  * --------------
  38:C:/Users/±è°æ¹Î/Desktop/IFX_S2GL-HW-SW_V1.1.3/Firmware_Software/DAVE project/S2GL_Doppler/Libraries/XMCLib/inc\xmc_uart.h ****  *
  39:C:/Users/±è°æ¹Î/Desktop/IFX_S2GL-HW-SW_V1.1.3/Firmware_Software/DAVE project/S2GL_Doppler/Libraries/XMCLib/inc\xmc_uart.h ****  * 2015-02-20:
  40:C:/Users/±è°æ¹Î/Desktop/IFX_S2GL-HW-SW_V1.1.3/Firmware_Software/DAVE project/S2GL_Doppler/Libraries/XMCLib/inc\xmc_uart.h ****  *     - Initial
  41:C:/Users/±è°æ¹Î/Desktop/IFX_S2GL-HW-SW_V1.1.3/Firmware_Software/DAVE project/S2GL_Doppler/Libraries/XMCLib/inc\xmc_uart.h ****  *      
  42:C:/Users/±è°æ¹Î/Desktop/IFX_S2GL-HW-SW_V1.1.3/Firmware_Software/DAVE project/S2GL_Doppler/Libraries/XMCLib/inc\xmc_uart.h ****  * 2015-05-20:
  43:C:/Users/±è°æ¹Î/Desktop/IFX_S2GL-HW-SW_V1.1.3/Firmware_Software/DAVE project/S2GL_Doppler/Libraries/XMCLib/inc\xmc_uart.h ****  *     - Description updated <br>
  44:C:/Users/±è°æ¹Î/Desktop/IFX_S2GL-HW-SW_V1.1.3/Firmware_Software/DAVE project/S2GL_Doppler/Libraries/XMCLib/inc\xmc_uart.h ****  *     - Added XMC_UART_CH_TriggerServiceRequest() and XMC_UART_CH_SelectInterruptNodePointer <br>
  45:C:/Users/±è°æ¹Î/Desktop/IFX_S2GL-HW-SW_V1.1.3/Firmware_Software/DAVE project/S2GL_Doppler/Libraries/XMCLib/inc\xmc_uart.h ****  *
  46:C:/Users/±è°æ¹Î/Desktop/IFX_S2GL-HW-SW_V1.1.3/Firmware_Software/DAVE project/S2GL_Doppler/Libraries/XMCLib/inc\xmc_uart.h ****  * 2015-06-20:
  47:C:/Users/±è°æ¹Î/Desktop/IFX_S2GL-HW-SW_V1.1.3/Firmware_Software/DAVE project/S2GL_Doppler/Libraries/XMCLib/inc\xmc_uart.h ****  *     - Removed version macros and declaration of GetDriverVersion API <br>
  48:C:/Users/±è°æ¹Î/Desktop/IFX_S2GL-HW-SW_V1.1.3/Firmware_Software/DAVE project/S2GL_Doppler/Libraries/XMCLib/inc\xmc_uart.h ****  *
  49:C:/Users/±è°æ¹Î/Desktop/IFX_S2GL-HW-SW_V1.1.3/Firmware_Software/DAVE project/S2GL_Doppler/Libraries/XMCLib/inc\xmc_uart.h ****  * 2015-09-01:
  50:C:/Users/±è°æ¹Î/Desktop/IFX_S2GL-HW-SW_V1.1.3/Firmware_Software/DAVE project/S2GL_Doppler/Libraries/XMCLib/inc\xmc_uart.h ****  *     - Modified XMC_UART_CH_SetInputSource() for avoiding complete DXCR register overwriting. <br
  51:C:/Users/±è°æ¹Î/Desktop/IFX_S2GL-HW-SW_V1.1.3/Firmware_Software/DAVE project/S2GL_Doppler/Libraries/XMCLib/inc\xmc_uart.h ****  *     - Modified XMC_UART_CH_EVENT_t enum for supporting XMC_UART_CH_EnableEvent() and XMC_UART_CH
  52:C:/Users/±è°æ¹Î/Desktop/IFX_S2GL-HW-SW_V1.1.3/Firmware_Software/DAVE project/S2GL_Doppler/Libraries/XMCLib/inc\xmc_uart.h ****  *       for supporting multiple events configuration <br>
  53:C:/Users/±è°æ¹Î/Desktop/IFX_S2GL-HW-SW_V1.1.3/Firmware_Software/DAVE project/S2GL_Doppler/Libraries/XMCLib/inc\xmc_uart.h ****  * @endcond 
  54:C:/Users/±è°æ¹Î/Desktop/IFX_S2GL-HW-SW_V1.1.3/Firmware_Software/DAVE project/S2GL_Doppler/Libraries/XMCLib/inc\xmc_uart.h ****  *
  55:C:/Users/±è°æ¹Î/Desktop/IFX_S2GL-HW-SW_V1.1.3/Firmware_Software/DAVE project/S2GL_Doppler/Libraries/XMCLib/inc\xmc_uart.h ****  */
  56:C:/Users/±è°æ¹Î/Desktop/IFX_S2GL-HW-SW_V1.1.3/Firmware_Software/DAVE project/S2GL_Doppler/Libraries/XMCLib/inc\xmc_uart.h **** 
  57:C:/Users/±è°æ¹Î/Desktop/IFX_S2GL-HW-SW_V1.1.3/Firmware_Software/DAVE project/S2GL_Doppler/Libraries/XMCLib/inc\xmc_uart.h **** #ifndef XMC_UART_H
  58:C:/Users/±è°æ¹Î/Desktop/IFX_S2GL-HW-SW_V1.1.3/Firmware_Software/DAVE project/S2GL_Doppler/Libraries/XMCLib/inc\xmc_uart.h **** #define XMC_UART_H
  59:C:/Users/±è°æ¹Î/Desktop/IFX_S2GL-HW-SW_V1.1.3/Firmware_Software/DAVE project/S2GL_Doppler/Libraries/XMCLib/inc\xmc_uart.h **** 
  60:C:/Users/±è°æ¹Î/Desktop/IFX_S2GL-HW-SW_V1.1.3/Firmware_Software/DAVE project/S2GL_Doppler/Libraries/XMCLib/inc\xmc_uart.h **** /**************************************************************************************************
  61:C:/Users/±è°æ¹Î/Desktop/IFX_S2GL-HW-SW_V1.1.3/Firmware_Software/DAVE project/S2GL_Doppler/Libraries/XMCLib/inc\xmc_uart.h ****  * HEADER FILES
  62:C:/Users/±è°æ¹Î/Desktop/IFX_S2GL-HW-SW_V1.1.3/Firmware_Software/DAVE project/S2GL_Doppler/Libraries/XMCLib/inc\xmc_uart.h ****  **************************************************************************************************
  63:C:/Users/±è°æ¹Î/Desktop/IFX_S2GL-HW-SW_V1.1.3/Firmware_Software/DAVE project/S2GL_Doppler/Libraries/XMCLib/inc\xmc_uart.h **** 
  64:C:/Users/±è°æ¹Î/Desktop/IFX_S2GL-HW-SW_V1.1.3/Firmware_Software/DAVE project/S2GL_Doppler/Libraries/XMCLib/inc\xmc_uart.h **** #include "xmc_usic.h"
  65:C:/Users/±è°æ¹Î/Desktop/IFX_S2GL-HW-SW_V1.1.3/Firmware_Software/DAVE project/S2GL_Doppler/Libraries/XMCLib/inc\xmc_uart.h **** 
  66:C:/Users/±è°æ¹Î/Desktop/IFX_S2GL-HW-SW_V1.1.3/Firmware_Software/DAVE project/S2GL_Doppler/Libraries/XMCLib/inc\xmc_uart.h **** /**
  67:C:/Users/±è°æ¹Î/Desktop/IFX_S2GL-HW-SW_V1.1.3/Firmware_Software/DAVE project/S2GL_Doppler/Libraries/XMCLib/inc\xmc_uart.h ****  * @addtogroup XMClib XMC Peripheral Library
  68:C:/Users/±è°æ¹Î/Desktop/IFX_S2GL-HW-SW_V1.1.3/Firmware_Software/DAVE project/S2GL_Doppler/Libraries/XMCLib/inc\xmc_uart.h ****  * @{
  69:C:/Users/±è°æ¹Î/Desktop/IFX_S2GL-HW-SW_V1.1.3/Firmware_Software/DAVE project/S2GL_Doppler/Libraries/XMCLib/inc\xmc_uart.h ****  */
  70:C:/Users/±è°æ¹Î/Desktop/IFX_S2GL-HW-SW_V1.1.3/Firmware_Software/DAVE project/S2GL_Doppler/Libraries/XMCLib/inc\xmc_uart.h **** 
  71:C:/Users/±è°æ¹Î/Desktop/IFX_S2GL-HW-SW_V1.1.3/Firmware_Software/DAVE project/S2GL_Doppler/Libraries/XMCLib/inc\xmc_uart.h **** /**
  72:C:/Users/±è°æ¹Î/Desktop/IFX_S2GL-HW-SW_V1.1.3/Firmware_Software/DAVE project/S2GL_Doppler/Libraries/XMCLib/inc\xmc_uart.h ****  * @addtogroup UART
  73:C:/Users/±è°æ¹Î/Desktop/IFX_S2GL-HW-SW_V1.1.3/Firmware_Software/DAVE project/S2GL_Doppler/Libraries/XMCLib/inc\xmc_uart.h ****  * @brief Universal Asynchronous Receiver/Transmitter (UART) driver for XMC microcontroller family.
  74:C:/Users/±è°æ¹Î/Desktop/IFX_S2GL-HW-SW_V1.1.3/Firmware_Software/DAVE project/S2GL_Doppler/Libraries/XMCLib/inc\xmc_uart.h ****  *
  75:C:/Users/±è°æ¹Î/Desktop/IFX_S2GL-HW-SW_V1.1.3/Firmware_Software/DAVE project/S2GL_Doppler/Libraries/XMCLib/inc\xmc_uart.h ****  * The UART driver uses Universal Serial Interface Channel(USIC) module to implement UART protocol.
  76:C:/Users/±è°æ¹Î/Desktop/IFX_S2GL-HW-SW_V1.1.3/Firmware_Software/DAVE project/S2GL_Doppler/Libraries/XMCLib/inc\xmc_uart.h ****  * It provides APIs to configure USIC channel for UART communication. The driver enables the user
  77:C:/Users/±è°æ¹Î/Desktop/IFX_S2GL-HW-SW_V1.1.3/Firmware_Software/DAVE project/S2GL_Doppler/Libraries/XMCLib/inc\xmc_uart.h ****  * in getting the status of UART protocol events, configuring interrupt service requests, protocol
  78:C:/Users/±è°æ¹Î/Desktop/IFX_S2GL-HW-SW_V1.1.3/Firmware_Software/DAVE project/S2GL_Doppler/Libraries/XMCLib/inc\xmc_uart.h ****  * related parameter configuration etc.
  79:C:/Users/±è°æ¹Î/Desktop/IFX_S2GL-HW-SW_V1.1.3/Firmware_Software/DAVE project/S2GL_Doppler/Libraries/XMCLib/inc\xmc_uart.h ****  * 
  80:C:/Users/±è°æ¹Î/Desktop/IFX_S2GL-HW-SW_V1.1.3/Firmware_Software/DAVE project/S2GL_Doppler/Libraries/XMCLib/inc\xmc_uart.h ****  * UART driver features:
  81:C:/Users/±è°æ¹Î/Desktop/IFX_S2GL-HW-SW_V1.1.3/Firmware_Software/DAVE project/S2GL_Doppler/Libraries/XMCLib/inc\xmc_uart.h ****  * -# Configuration structure XMC_UART_CH_CONFIG_t and initialization function XMC_UART_CH_Init()
  82:C:/Users/±è°æ¹Î/Desktop/IFX_S2GL-HW-SW_V1.1.3/Firmware_Software/DAVE project/S2GL_Doppler/Libraries/XMCLib/inc\xmc_uart.h ****  * -# Enumeration of events with their bit masks @ref XMC_UART_CH_EVENT_t, @ref XMC_UART_CH_STATUS_
  83:C:/Users/±è°æ¹Î/Desktop/IFX_S2GL-HW-SW_V1.1.3/Firmware_Software/DAVE project/S2GL_Doppler/Libraries/XMCLib/inc\xmc_uart.h ****  * -# Allows the selection of input source for the DX0 input stage using the API XMC_UART_CH_SetInp
  84:C:/Users/±è°æ¹Î/Desktop/IFX_S2GL-HW-SW_V1.1.3/Firmware_Software/DAVE project/S2GL_Doppler/Libraries/XMCLib/inc\xmc_uart.h ****  * -# Allows configuration of baudrate using XMC_UART_CH_SetBaudrate() and configuration of data le
  85:C:/Users/±è°æ¹Î/Desktop/IFX_S2GL-HW-SW_V1.1.3/Firmware_Software/DAVE project/S2GL_Doppler/Libraries/XMCLib/inc\xmc_uart.h ****  XMC_UART_CH_SetWordLength() and XMC_UART_CH_SetFrameLength()
  86:C:/Users/±è°æ¹Î/Desktop/IFX_S2GL-HW-SW_V1.1.3/Firmware_Software/DAVE project/S2GL_Doppler/Libraries/XMCLib/inc\xmc_uart.h ****  * -# Provides the status of UART protocol events, XMC_UART_CH_GetStatusFlag()
  87:C:/Users/±è°æ¹Î/Desktop/IFX_S2GL-HW-SW_V1.1.3/Firmware_Software/DAVE project/S2GL_Doppler/Libraries/XMCLib/inc\xmc_uart.h ****  * -# Allows transmission of data using XMC_UART_CH_Transmit() and gets received data using XMC_UAR
  88:C:/Users/±è°æ¹Î/Desktop/IFX_S2GL-HW-SW_V1.1.3/Firmware_Software/DAVE project/S2GL_Doppler/Libraries/XMCLib/inc\xmc_uart.h ****  * 
  89:C:/Users/±è°æ¹Î/Desktop/IFX_S2GL-HW-SW_V1.1.3/Firmware_Software/DAVE project/S2GL_Doppler/Libraries/XMCLib/inc\xmc_uart.h ****  * @{
  90:C:/Users/±è°æ¹Î/Desktop/IFX_S2GL-HW-SW_V1.1.3/Firmware_Software/DAVE project/S2GL_Doppler/Libraries/XMCLib/inc\xmc_uart.h ****  */
  91:C:/Users/±è°æ¹Î/Desktop/IFX_S2GL-HW-SW_V1.1.3/Firmware_Software/DAVE project/S2GL_Doppler/Libraries/XMCLib/inc\xmc_uart.h **** 
  92:C:/Users/±è°æ¹Î/Desktop/IFX_S2GL-HW-SW_V1.1.3/Firmware_Software/DAVE project/S2GL_Doppler/Libraries/XMCLib/inc\xmc_uart.h **** /**************************************************************************************************
  93:C:/Users/±è°æ¹Î/Desktop/IFX_S2GL-HW-SW_V1.1.3/Firmware_Software/DAVE project/S2GL_Doppler/Libraries/XMCLib/inc\xmc_uart.h ****  * MACROS
  94:C:/Users/±è°æ¹Î/Desktop/IFX_S2GL-HW-SW_V1.1.3/Firmware_Software/DAVE project/S2GL_Doppler/Libraries/XMCLib/inc\xmc_uart.h ****  **************************************************************************************************
  95:C:/Users/±è°æ¹Î/Desktop/IFX_S2GL-HW-SW_V1.1.3/Firmware_Software/DAVE project/S2GL_Doppler/Libraries/XMCLib/inc\xmc_uart.h **** 
  96:C:/Users/±è°æ¹Î/Desktop/IFX_S2GL-HW-SW_V1.1.3/Firmware_Software/DAVE project/S2GL_Doppler/Libraries/XMCLib/inc\xmc_uart.h **** #if defined(USIC0)
  97:C:/Users/±è°æ¹Î/Desktop/IFX_S2GL-HW-SW_V1.1.3/Firmware_Software/DAVE project/S2GL_Doppler/Libraries/XMCLib/inc\xmc_uart.h **** #define XMC_UART0_CH0 XMC_USIC0_CH0 /**< USIC0 channel 0 base address */
  98:C:/Users/±è°æ¹Î/Desktop/IFX_S2GL-HW-SW_V1.1.3/Firmware_Software/DAVE project/S2GL_Doppler/Libraries/XMCLib/inc\xmc_uart.h **** #define XMC_UART0_CH1 XMC_USIC0_CH1 /**< USIC0 channel 1 base address */
  99:C:/Users/±è°æ¹Î/Desktop/IFX_S2GL-HW-SW_V1.1.3/Firmware_Software/DAVE project/S2GL_Doppler/Libraries/XMCLib/inc\xmc_uart.h **** #endif
 100:C:/Users/±è°æ¹Î/Desktop/IFX_S2GL-HW-SW_V1.1.3/Firmware_Software/DAVE project/S2GL_Doppler/Libraries/XMCLib/inc\xmc_uart.h **** 
 101:C:/Users/±è°æ¹Î/Desktop/IFX_S2GL-HW-SW_V1.1.3/Firmware_Software/DAVE project/S2GL_Doppler/Libraries/XMCLib/inc\xmc_uart.h **** #if defined(USIC1)
 102:C:/Users/±è°æ¹Î/Desktop/IFX_S2GL-HW-SW_V1.1.3/Firmware_Software/DAVE project/S2GL_Doppler/Libraries/XMCLib/inc\xmc_uart.h **** #define XMC_UART1_CH0 XMC_USIC1_CH0 /**< USIC1 channel 0 base address */
 103:C:/Users/±è°æ¹Î/Desktop/IFX_S2GL-HW-SW_V1.1.3/Firmware_Software/DAVE project/S2GL_Doppler/Libraries/XMCLib/inc\xmc_uart.h **** #define XMC_UART1_CH1 XMC_USIC1_CH1 /**< USIC1 channel 1 base address */
 104:C:/Users/±è°æ¹Î/Desktop/IFX_S2GL-HW-SW_V1.1.3/Firmware_Software/DAVE project/S2GL_Doppler/Libraries/XMCLib/inc\xmc_uart.h **** #endif
 105:C:/Users/±è°æ¹Î/Desktop/IFX_S2GL-HW-SW_V1.1.3/Firmware_Software/DAVE project/S2GL_Doppler/Libraries/XMCLib/inc\xmc_uart.h **** 
 106:C:/Users/±è°æ¹Î/Desktop/IFX_S2GL-HW-SW_V1.1.3/Firmware_Software/DAVE project/S2GL_Doppler/Libraries/XMCLib/inc\xmc_uart.h **** #if defined(USIC2)
 107:C:/Users/±è°æ¹Î/Desktop/IFX_S2GL-HW-SW_V1.1.3/Firmware_Software/DAVE project/S2GL_Doppler/Libraries/XMCLib/inc\xmc_uart.h **** #define XMC_UART2_CH0 XMC_USIC2_CH0 /**< USIC2 channel 0 base address */
 108:C:/Users/±è°æ¹Î/Desktop/IFX_S2GL-HW-SW_V1.1.3/Firmware_Software/DAVE project/S2GL_Doppler/Libraries/XMCLib/inc\xmc_uart.h **** #define XMC_UART2_CH1 XMC_USIC2_CH1 /**< USIC2 channel 1 base address */
 109:C:/Users/±è°æ¹Î/Desktop/IFX_S2GL-HW-SW_V1.1.3/Firmware_Software/DAVE project/S2GL_Doppler/Libraries/XMCLib/inc\xmc_uart.h **** #endif
 110:C:/Users/±è°æ¹Î/Desktop/IFX_S2GL-HW-SW_V1.1.3/Firmware_Software/DAVE project/S2GL_Doppler/Libraries/XMCLib/inc\xmc_uart.h **** 
 111:C:/Users/±è°æ¹Î/Desktop/IFX_S2GL-HW-SW_V1.1.3/Firmware_Software/DAVE project/S2GL_Doppler/Libraries/XMCLib/inc\xmc_uart.h **** /**************************************************************************************************
 112:C:/Users/±è°æ¹Î/Desktop/IFX_S2GL-HW-SW_V1.1.3/Firmware_Software/DAVE project/S2GL_Doppler/Libraries/XMCLib/inc\xmc_uart.h ****  * ENUMS
 113:C:/Users/±è°æ¹Î/Desktop/IFX_S2GL-HW-SW_V1.1.3/Firmware_Software/DAVE project/S2GL_Doppler/Libraries/XMCLib/inc\xmc_uart.h ****  **************************************************************************************************
 114:C:/Users/±è°æ¹Î/Desktop/IFX_S2GL-HW-SW_V1.1.3/Firmware_Software/DAVE project/S2GL_Doppler/Libraries/XMCLib/inc\xmc_uart.h **** 
 115:C:/Users/±è°æ¹Î/Desktop/IFX_S2GL-HW-SW_V1.1.3/Firmware_Software/DAVE project/S2GL_Doppler/Libraries/XMCLib/inc\xmc_uart.h **** /**
 116:C:/Users/±è°æ¹Î/Desktop/IFX_S2GL-HW-SW_V1.1.3/Firmware_Software/DAVE project/S2GL_Doppler/Libraries/XMCLib/inc\xmc_uart.h ****  * UART driver status
 117:C:/Users/±è°æ¹Î/Desktop/IFX_S2GL-HW-SW_V1.1.3/Firmware_Software/DAVE project/S2GL_Doppler/Libraries/XMCLib/inc\xmc_uart.h ****  */
 118:C:/Users/±è°æ¹Î/Desktop/IFX_S2GL-HW-SW_V1.1.3/Firmware_Software/DAVE project/S2GL_Doppler/Libraries/XMCLib/inc\xmc_uart.h **** typedef enum XMC_UART_CH_STATUS
 119:C:/Users/±è°æ¹Î/Desktop/IFX_S2GL-HW-SW_V1.1.3/Firmware_Software/DAVE project/S2GL_Doppler/Libraries/XMCLib/inc\xmc_uart.h **** {
 120:C:/Users/±è°æ¹Î/Desktop/IFX_S2GL-HW-SW_V1.1.3/Firmware_Software/DAVE project/S2GL_Doppler/Libraries/XMCLib/inc\xmc_uart.h ****   XMC_UART_CH_STATUS_OK,     /**< UART driver status : OK*/
 121:C:/Users/±è°æ¹Î/Desktop/IFX_S2GL-HW-SW_V1.1.3/Firmware_Software/DAVE project/S2GL_Doppler/Libraries/XMCLib/inc\xmc_uart.h ****   XMC_UART_CH_STATUS_ERROR,  /**< UART driver status : ERROR */
 122:C:/Users/±è°æ¹Î/Desktop/IFX_S2GL-HW-SW_V1.1.3/Firmware_Software/DAVE project/S2GL_Doppler/Libraries/XMCLib/inc\xmc_uart.h ****   XMC_UART_CH_STATUS_BUSY    /**< UART driver status : BUSY */
 123:C:/Users/±è°æ¹Î/Desktop/IFX_S2GL-HW-SW_V1.1.3/Firmware_Software/DAVE project/S2GL_Doppler/Libraries/XMCLib/inc\xmc_uart.h **** } XMC_UART_CH_STATUS_t;
 124:C:/Users/±è°æ¹Î/Desktop/IFX_S2GL-HW-SW_V1.1.3/Firmware_Software/DAVE project/S2GL_Doppler/Libraries/XMCLib/inc\xmc_uart.h **** 
 125:C:/Users/±è°æ¹Î/Desktop/IFX_S2GL-HW-SW_V1.1.3/Firmware_Software/DAVE project/S2GL_Doppler/Libraries/XMCLib/inc\xmc_uart.h **** /**
 126:C:/Users/±è°æ¹Î/Desktop/IFX_S2GL-HW-SW_V1.1.3/Firmware_Software/DAVE project/S2GL_Doppler/Libraries/XMCLib/inc\xmc_uart.h **** * UART portocol status. The enum values can be used for getting the status of UART channel.
 127:C:/Users/±è°æ¹Î/Desktop/IFX_S2GL-HW-SW_V1.1.3/Firmware_Software/DAVE project/S2GL_Doppler/Libraries/XMCLib/inc\xmc_uart.h **** *
 128:C:/Users/±è°æ¹Î/Desktop/IFX_S2GL-HW-SW_V1.1.3/Firmware_Software/DAVE project/S2GL_Doppler/Libraries/XMCLib/inc\xmc_uart.h **** */
 129:C:/Users/±è°æ¹Î/Desktop/IFX_S2GL-HW-SW_V1.1.3/Firmware_Software/DAVE project/S2GL_Doppler/Libraries/XMCLib/inc\xmc_uart.h **** typedef enum XMC_UART_CH_STATUS_FLAG
 130:C:/Users/±è°æ¹Î/Desktop/IFX_S2GL-HW-SW_V1.1.3/Firmware_Software/DAVE project/S2GL_Doppler/Libraries/XMCLib/inc\xmc_uart.h **** {
 131:C:/Users/±è°æ¹Î/Desktop/IFX_S2GL-HW-SW_V1.1.3/Firmware_Software/DAVE project/S2GL_Doppler/Libraries/XMCLib/inc\xmc_uart.h ****   XMC_UART_CH_STATUS_FLAG_TRANSMISSION_IDLE = USIC_CH_PSR_ASCMode_TXIDLE_Msk,                 /**< 
 132:C:/Users/±è°æ¹Î/Desktop/IFX_S2GL-HW-SW_V1.1.3/Firmware_Software/DAVE project/S2GL_Doppler/Libraries/XMCLib/inc\xmc_uart.h ****   XMC_UART_CH_STATUS_FLAG_RECEPTION_IDLE = USIC_CH_PSR_ASCMode_RXIDLE_Msk,                    /**< 
 133:C:/Users/±è°æ¹Î/Desktop/IFX_S2GL-HW-SW_V1.1.3/Firmware_Software/DAVE project/S2GL_Doppler/Libraries/XMCLib/inc\xmc_uart.h ****   XMC_UART_CH_STATUS_FLAG_SYNCHRONIZATION_BREAK_DETECTED = USIC_CH_PSR_ASCMode_SBD_Msk,       /**< 
 134:C:/Users/±è°æ¹Î/Desktop/IFX_S2GL-HW-SW_V1.1.3/Firmware_Software/DAVE project/S2GL_Doppler/Libraries/XMCLib/inc\xmc_uart.h ****   XMC_UART_CH_STATUS_FLAG_COLLISION_DETECTED = USIC_CH_PSR_ASCMode_COL_Msk,                   /**< 
 135:C:/Users/±è°æ¹Î/Desktop/IFX_S2GL-HW-SW_V1.1.3/Firmware_Software/DAVE project/S2GL_Doppler/Libraries/XMCLib/inc\xmc_uart.h ****   XMC_UART_CH_STATUS_FLAG_RECEIVER_NOISE_DETECTED = USIC_CH_PSR_ASCMode_RNS_Msk,              /**< 
 136:C:/Users/±è°æ¹Î/Desktop/IFX_S2GL-HW-SW_V1.1.3/Firmware_Software/DAVE project/S2GL_Doppler/Libraries/XMCLib/inc\xmc_uart.h ****   XMC_UART_CH_STATUS_FLAG_FORMAT_ERROR_IN_STOP_BIT_0 = USIC_CH_PSR_ASCMode_FER0_Msk,          /**< 
 137:C:/Users/±è°æ¹Î/Desktop/IFX_S2GL-HW-SW_V1.1.3/Firmware_Software/DAVE project/S2GL_Doppler/Libraries/XMCLib/inc\xmc_uart.h ****   XMC_UART_CH_STATUS_FLAG_FORMAT_ERROR_IN_STOP_BIT_1 = USIC_CH_PSR_ASCMode_FER1_Msk,          /**< 
 138:C:/Users/±è°æ¹Î/Desktop/IFX_S2GL-HW-SW_V1.1.3/Firmware_Software/DAVE project/S2GL_Doppler/Libraries/XMCLib/inc\xmc_uart.h ****   XMC_UART_CH_STATUS_FLAG_RECEIVE_FRAME_FINISHED = USIC_CH_PSR_ASCMode_RFF_Msk,               /**< 
 139:C:/Users/±è°æ¹Î/Desktop/IFX_S2GL-HW-SW_V1.1.3/Firmware_Software/DAVE project/S2GL_Doppler/Libraries/XMCLib/inc\xmc_uart.h ****   XMC_UART_CH_STATUS_FLAG_TRANSMITTER_FRAME_FINISHED = USIC_CH_PSR_ASCMode_TFF_Msk,           /**< 
 140:C:/Users/±è°æ¹Î/Desktop/IFX_S2GL-HW-SW_V1.1.3/Firmware_Software/DAVE project/S2GL_Doppler/Libraries/XMCLib/inc\xmc_uart.h ****   XMC_UART_CH_STATUS_FLAG_TRANSFER_STATUS_BUSY = USIC_CH_PSR_ASCMode_BUSY_Msk,                /**< 
 141:C:/Users/±è°æ¹Î/Desktop/IFX_S2GL-HW-SW_V1.1.3/Firmware_Software/DAVE project/S2GL_Doppler/Libraries/XMCLib/inc\xmc_uart.h ****   XMC_UART_CH_STATUS_FLAG_RECEIVER_START_INDICATION = USIC_CH_PSR_ASCMode_RSIF_Msk,           /**< 
 142:C:/Users/±è°æ¹Î/Desktop/IFX_S2GL-HW-SW_V1.1.3/Firmware_Software/DAVE project/S2GL_Doppler/Libraries/XMCLib/inc\xmc_uart.h ****   XMC_UART_CH_STATUS_FLAG_DATA_LOST_INDICATION = USIC_CH_PSR_ASCMode_DLIF_Msk,                /**< 
 143:C:/Users/±è°æ¹Î/Desktop/IFX_S2GL-HW-SW_V1.1.3/Firmware_Software/DAVE project/S2GL_Doppler/Libraries/XMCLib/inc\xmc_uart.h ****   XMC_UART_CH_STATUS_FLAG_TRANSMIT_SHIFT_INDICATION = USIC_CH_PSR_ASCMode_TSIF_Msk,           /**< 
 144:C:/Users/±è°æ¹Î/Desktop/IFX_S2GL-HW-SW_V1.1.3/Firmware_Software/DAVE project/S2GL_Doppler/Libraries/XMCLib/inc\xmc_uart.h ****   XMC_UART_CH_STATUS_FLAG_TRANSMIT_BUFFER_INDICATION = USIC_CH_PSR_ASCMode_TBIF_Msk,          /**< 
 145:C:/Users/±è°æ¹Î/Desktop/IFX_S2GL-HW-SW_V1.1.3/Firmware_Software/DAVE project/S2GL_Doppler/Libraries/XMCLib/inc\xmc_uart.h ****   XMC_UART_CH_STATUS_FLAG_RECEIVE_INDICATION = USIC_CH_PSR_ASCMode_RIF_Msk,                   /**< 
 146:C:/Users/±è°æ¹Î/Desktop/IFX_S2GL-HW-SW_V1.1.3/Firmware_Software/DAVE project/S2GL_Doppler/Libraries/XMCLib/inc\xmc_uart.h ****   XMC_UART_CH_STATUS_FLAG_ALTERNATIVE_RECEIVE_INDICATION = USIC_CH_PSR_ASCMode_AIF_Msk,       /**< 
 147:C:/Users/±è°æ¹Î/Desktop/IFX_S2GL-HW-SW_V1.1.3/Firmware_Software/DAVE project/S2GL_Doppler/Libraries/XMCLib/inc\xmc_uart.h ****   XMC_UART_CH_STATUS_FLAG_BAUD_RATE_GENERATOR_INDICATION = USIC_CH_PSR_ASCMode_BRGIF_Msk      /**< 
 148:C:/Users/±è°æ¹Î/Desktop/IFX_S2GL-HW-SW_V1.1.3/Firmware_Software/DAVE project/S2GL_Doppler/Libraries/XMCLib/inc\xmc_uart.h **** } XMC_UART_CH_STATUS_FLAG_t;
 149:C:/Users/±è°æ¹Î/Desktop/IFX_S2GL-HW-SW_V1.1.3/Firmware_Software/DAVE project/S2GL_Doppler/Libraries/XMCLib/inc\xmc_uart.h **** 
 150:C:/Users/±è°æ¹Î/Desktop/IFX_S2GL-HW-SW_V1.1.3/Firmware_Software/DAVE project/S2GL_Doppler/Libraries/XMCLib/inc\xmc_uart.h **** /**
 151:C:/Users/±è°æ¹Î/Desktop/IFX_S2GL-HW-SW_V1.1.3/Firmware_Software/DAVE project/S2GL_Doppler/Libraries/XMCLib/inc\xmc_uart.h **** * UART configuration events. The enums can be used for configuring events using the CCR register.
 152:C:/Users/±è°æ¹Î/Desktop/IFX_S2GL-HW-SW_V1.1.3/Firmware_Software/DAVE project/S2GL_Doppler/Libraries/XMCLib/inc\xmc_uart.h **** */
 153:C:/Users/±è°æ¹Î/Desktop/IFX_S2GL-HW-SW_V1.1.3/Firmware_Software/DAVE project/S2GL_Doppler/Libraries/XMCLib/inc\xmc_uart.h **** typedef enum XMC_CH_UART_EVENT
 154:C:/Users/±è°æ¹Î/Desktop/IFX_S2GL-HW-SW_V1.1.3/Firmware_Software/DAVE project/S2GL_Doppler/Libraries/XMCLib/inc\xmc_uart.h **** {
 155:C:/Users/±è°æ¹Î/Desktop/IFX_S2GL-HW-SW_V1.1.3/Firmware_Software/DAVE project/S2GL_Doppler/Libraries/XMCLib/inc\xmc_uart.h ****   XMC_UART_CH_EVENT_RECEIVE_START       = USIC_CH_CCR_RSIEN_Msk,  /**< Receive start event */
 156:C:/Users/±è°æ¹Î/Desktop/IFX_S2GL-HW-SW_V1.1.3/Firmware_Software/DAVE project/S2GL_Doppler/Libraries/XMCLib/inc\xmc_uart.h ****   XMC_UART_CH_EVENT_DATA_LOST           = USIC_CH_CCR_DLIEN_Msk,  /**< Data lost event */
 157:C:/Users/±è°æ¹Î/Desktop/IFX_S2GL-HW-SW_V1.1.3/Firmware_Software/DAVE project/S2GL_Doppler/Libraries/XMCLib/inc\xmc_uart.h ****   XMC_UART_CH_EVENT_TRANSMIT_SHIFT      = USIC_CH_CCR_TSIEN_Msk,  /**< Transmit shift event */
 158:C:/Users/±è°æ¹Î/Desktop/IFX_S2GL-HW-SW_V1.1.3/Firmware_Software/DAVE project/S2GL_Doppler/Libraries/XMCLib/inc\xmc_uart.h ****   XMC_UART_CH_EVENT_TRANSMIT_BUFFER     = USIC_CH_CCR_TBIEN_Msk,  /**< Transmit buffer event */
 159:C:/Users/±è°æ¹Î/Desktop/IFX_S2GL-HW-SW_V1.1.3/Firmware_Software/DAVE project/S2GL_Doppler/Libraries/XMCLib/inc\xmc_uart.h ****   XMC_UART_CH_EVENT_STANDARD_RECEIVE    = USIC_CH_CCR_RIEN_Msk,   /**< Receive event */
 160:C:/Users/±è°æ¹Î/Desktop/IFX_S2GL-HW-SW_V1.1.3/Firmware_Software/DAVE project/S2GL_Doppler/Libraries/XMCLib/inc\xmc_uart.h ****   XMC_UART_CH_EVENT_ALTERNATIVE_RECEIVE = USIC_CH_CCR_AIEN_Msk,   /**< Alternate receive event */
 161:C:/Users/±è°æ¹Î/Desktop/IFX_S2GL-HW-SW_V1.1.3/Firmware_Software/DAVE project/S2GL_Doppler/Libraries/XMCLib/inc\xmc_uart.h ****   XMC_UART_CH_EVENT_BAUD_RATE_GENERATOR = USIC_CH_CCR_BRGIEN_Msk, /**< Baudrate generator event */
 162:C:/Users/±è°æ¹Î/Desktop/IFX_S2GL-HW-SW_V1.1.3/Firmware_Software/DAVE project/S2GL_Doppler/Libraries/XMCLib/inc\xmc_uart.h ****   
 163:C:/Users/±è°æ¹Î/Desktop/IFX_S2GL-HW-SW_V1.1.3/Firmware_Software/DAVE project/S2GL_Doppler/Libraries/XMCLib/inc\xmc_uart.h ****   XMC_UART_CH_EVENT_SYNCHRONIZATION_BREAK = USIC_CH_PCR_ASCMode_SBIEN_Msk, /**< Event synchronizati
 164:C:/Users/±è°æ¹Î/Desktop/IFX_S2GL-HW-SW_V1.1.3/Firmware_Software/DAVE project/S2GL_Doppler/Libraries/XMCLib/inc\xmc_uart.h ****   XMC_UART_CH_EVENT_COLLISION = USIC_CH_PCR_ASCMode_CDEN_Msk,              /**< Event collision */
 165:C:/Users/±è°æ¹Î/Desktop/IFX_S2GL-HW-SW_V1.1.3/Firmware_Software/DAVE project/S2GL_Doppler/Libraries/XMCLib/inc\xmc_uart.h ****   XMC_UART_CH_EVENT_RECEIVER_NOISE = USIC_CH_PCR_ASCMode_RNIEN_Msk,        /**< Event receiver nois
 166:C:/Users/±è°æ¹Î/Desktop/IFX_S2GL-HW-SW_V1.1.3/Firmware_Software/DAVE project/S2GL_Doppler/Libraries/XMCLib/inc\xmc_uart.h ****   XMC_UART_CH_EVENT_FORMAT_ERROR = USIC_CH_PCR_ASCMode_FEIEN_Msk,          /**< Event format error 
 167:C:/Users/±è°æ¹Î/Desktop/IFX_S2GL-HW-SW_V1.1.3/Firmware_Software/DAVE project/S2GL_Doppler/Libraries/XMCLib/inc\xmc_uart.h ****   XMC_UART_CH_EVENT_FRAME_FINISHED = USIC_CH_PCR_ASCMode_FFIEN_Msk         /**< Event frame finishe
 168:C:/Users/±è°æ¹Î/Desktop/IFX_S2GL-HW-SW_V1.1.3/Firmware_Software/DAVE project/S2GL_Doppler/Libraries/XMCLib/inc\xmc_uart.h **** } XMC_UART_CH_EVENT_t;
 169:C:/Users/±è°æ¹Î/Desktop/IFX_S2GL-HW-SW_V1.1.3/Firmware_Software/DAVE project/S2GL_Doppler/Libraries/XMCLib/inc\xmc_uart.h **** 
 170:C:/Users/±è°æ¹Î/Desktop/IFX_S2GL-HW-SW_V1.1.3/Firmware_Software/DAVE project/S2GL_Doppler/Libraries/XMCLib/inc\xmc_uart.h **** /**
 171:C:/Users/±è°æ¹Î/Desktop/IFX_S2GL-HW-SW_V1.1.3/Firmware_Software/DAVE project/S2GL_Doppler/Libraries/XMCLib/inc\xmc_uart.h ****  * UART Input sampling frequency options
 172:C:/Users/±è°æ¹Î/Desktop/IFX_S2GL-HW-SW_V1.1.3/Firmware_Software/DAVE project/S2GL_Doppler/Libraries/XMCLib/inc\xmc_uart.h ****  */
 173:C:/Users/±è°æ¹Î/Desktop/IFX_S2GL-HW-SW_V1.1.3/Firmware_Software/DAVE project/S2GL_Doppler/Libraries/XMCLib/inc\xmc_uart.h **** typedef enum XMC_UART_CH_INPUT_SAMPLING_FREQ
 174:C:/Users/±è°æ¹Î/Desktop/IFX_S2GL-HW-SW_V1.1.3/Firmware_Software/DAVE project/S2GL_Doppler/Libraries/XMCLib/inc\xmc_uart.h **** {
 175:C:/Users/±è°æ¹Î/Desktop/IFX_S2GL-HW-SW_V1.1.3/Firmware_Software/DAVE project/S2GL_Doppler/Libraries/XMCLib/inc\xmc_uart.h ****   XMC_UART_CH_INPUT_SAMPLING_FREQ_FPERIPH            = XMC_USIC_CH_INPUT_SAMPLING_FREQ_FPERIPH,    
 176:C:/Users/±è°æ¹Î/Desktop/IFX_S2GL-HW-SW_V1.1.3/Firmware_Software/DAVE project/S2GL_Doppler/Libraries/XMCLib/inc\xmc_uart.h ****   XMC_UART_CH_INPUT_SAMPLING_FREQ_FRACTIONAL_DIVIDER = XMC_USIC_CH_INPUT_SAMPLING_FREQ_FRACTIONAL_D
 177:C:/Users/±è°æ¹Î/Desktop/IFX_S2GL-HW-SW_V1.1.3/Firmware_Software/DAVE project/S2GL_Doppler/Libraries/XMCLib/inc\xmc_uart.h **** } XMC_UART_CH_INPUT_SAMPLING_FREQ_t;
 178:C:/Users/±è°æ¹Î/Desktop/IFX_S2GL-HW-SW_V1.1.3/Firmware_Software/DAVE project/S2GL_Doppler/Libraries/XMCLib/inc\xmc_uart.h **** 
 179:C:/Users/±è°æ¹Î/Desktop/IFX_S2GL-HW-SW_V1.1.3/Firmware_Software/DAVE project/S2GL_Doppler/Libraries/XMCLib/inc\xmc_uart.h **** /**
 180:C:/Users/±è°æ¹Î/Desktop/IFX_S2GL-HW-SW_V1.1.3/Firmware_Software/DAVE project/S2GL_Doppler/Libraries/XMCLib/inc\xmc_uart.h ****  * UART input stages
 181:C:/Users/±è°æ¹Î/Desktop/IFX_S2GL-HW-SW_V1.1.3/Firmware_Software/DAVE project/S2GL_Doppler/Libraries/XMCLib/inc\xmc_uart.h ****  */
 182:C:/Users/±è°æ¹Î/Desktop/IFX_S2GL-HW-SW_V1.1.3/Firmware_Software/DAVE project/S2GL_Doppler/Libraries/XMCLib/inc\xmc_uart.h **** typedef enum XMC_UART_CH_INPUT
 183:C:/Users/±è°æ¹Î/Desktop/IFX_S2GL-HW-SW_V1.1.3/Firmware_Software/DAVE project/S2GL_Doppler/Libraries/XMCLib/inc\xmc_uart.h **** {
 184:C:/Users/±è°æ¹Î/Desktop/IFX_S2GL-HW-SW_V1.1.3/Firmware_Software/DAVE project/S2GL_Doppler/Libraries/XMCLib/inc\xmc_uart.h ****   XMC_UART_CH_INPUT_RXD = 0UL   /**< UART input stage DX0*/
 185:C:/Users/±è°æ¹Î/Desktop/IFX_S2GL-HW-SW_V1.1.3/Firmware_Software/DAVE project/S2GL_Doppler/Libraries/XMCLib/inc\xmc_uart.h **** #if UC_FAMILY == XMC1
 186:C:/Users/±è°æ¹Î/Desktop/IFX_S2GL-HW-SW_V1.1.3/Firmware_Software/DAVE project/S2GL_Doppler/Libraries/XMCLib/inc\xmc_uart.h ****   ,
 187:C:/Users/±è°æ¹Î/Desktop/IFX_S2GL-HW-SW_V1.1.3/Firmware_Software/DAVE project/S2GL_Doppler/Libraries/XMCLib/inc\xmc_uart.h ****   XMC_UART_CH_INPUT_RXD1 = 3UL, /**< UART input stage DX3*/
 188:C:/Users/±è°æ¹Î/Desktop/IFX_S2GL-HW-SW_V1.1.3/Firmware_Software/DAVE project/S2GL_Doppler/Libraries/XMCLib/inc\xmc_uart.h ****   XMC_UART_CH_INPUT_RXD2 = 5UL  /**< UART input stage DX5*/
 189:C:/Users/±è°æ¹Î/Desktop/IFX_S2GL-HW-SW_V1.1.3/Firmware_Software/DAVE project/S2GL_Doppler/Libraries/XMCLib/inc\xmc_uart.h **** #endif
 190:C:/Users/±è°æ¹Î/Desktop/IFX_S2GL-HW-SW_V1.1.3/Firmware_Software/DAVE project/S2GL_Doppler/Libraries/XMCLib/inc\xmc_uart.h **** } XMC_UART_CH_INPUT_t;
 191:C:/Users/±è°æ¹Î/Desktop/IFX_S2GL-HW-SW_V1.1.3/Firmware_Software/DAVE project/S2GL_Doppler/Libraries/XMCLib/inc\xmc_uart.h **** 
 192:C:/Users/±è°æ¹Î/Desktop/IFX_S2GL-HW-SW_V1.1.3/Firmware_Software/DAVE project/S2GL_Doppler/Libraries/XMCLib/inc\xmc_uart.h **** 
 193:C:/Users/±è°æ¹Î/Desktop/IFX_S2GL-HW-SW_V1.1.3/Firmware_Software/DAVE project/S2GL_Doppler/Libraries/XMCLib/inc\xmc_uart.h **** /**
 194:C:/Users/±è°æ¹Î/Desktop/IFX_S2GL-HW-SW_V1.1.3/Firmware_Software/DAVE project/S2GL_Doppler/Libraries/XMCLib/inc\xmc_uart.h ****  * UART channel interrupt node pointers
 195:C:/Users/±è°æ¹Î/Desktop/IFX_S2GL-HW-SW_V1.1.3/Firmware_Software/DAVE project/S2GL_Doppler/Libraries/XMCLib/inc\xmc_uart.h ****  */
 196:C:/Users/±è°æ¹Î/Desktop/IFX_S2GL-HW-SW_V1.1.3/Firmware_Software/DAVE project/S2GL_Doppler/Libraries/XMCLib/inc\xmc_uart.h **** typedef enum XMC_UART_CH_INTERRUPT_NODE_POINTER
 197:C:/Users/±è°æ¹Î/Desktop/IFX_S2GL-HW-SW_V1.1.3/Firmware_Software/DAVE project/S2GL_Doppler/Libraries/XMCLib/inc\xmc_uart.h **** {
 198:C:/Users/±è°æ¹Î/Desktop/IFX_S2GL-HW-SW_V1.1.3/Firmware_Software/DAVE project/S2GL_Doppler/Libraries/XMCLib/inc\xmc_uart.h ****   XMC_UART_CH_INTERRUPT_NODE_POINTER_TRANSMIT_SHIFT      = XMC_USIC_CH_INTERRUPT_NODE_POINTER_TRANS
 199:C:/Users/±è°æ¹Î/Desktop/IFX_S2GL-HW-SW_V1.1.3/Firmware_Software/DAVE project/S2GL_Doppler/Libraries/XMCLib/inc\xmc_uart.h ****   XMC_UART_CH_INTERRUPT_NODE_POINTER_TRANSMIT_BUFFER     = XMC_USIC_CH_INTERRUPT_NODE_POINTER_TRANS
 200:C:/Users/±è°æ¹Î/Desktop/IFX_S2GL-HW-SW_V1.1.3/Firmware_Software/DAVE project/S2GL_Doppler/Libraries/XMCLib/inc\xmc_uart.h ****   XMC_UART_CH_INTERRUPT_NODE_POINTER_RECEIVE             = XMC_USIC_CH_INTERRUPT_NODE_POINTER_RECEI
 201:C:/Users/±è°æ¹Î/Desktop/IFX_S2GL-HW-SW_V1.1.3/Firmware_Software/DAVE project/S2GL_Doppler/Libraries/XMCLib/inc\xmc_uart.h ****   XMC_UART_CH_INTERRUPT_NODE_POINTER_ALTERNATE_RECEIVE   = XMC_USIC_CH_INTERRUPT_NODE_POINTER_ALTER
 202:C:/Users/±è°æ¹Î/Desktop/IFX_S2GL-HW-SW_V1.1.3/Firmware_Software/DAVE project/S2GL_Doppler/Libraries/XMCLib/inc\xmc_uart.h ****   XMC_UART_CH_INTERRUPT_NODE_POINTER_PROTOCOL            = XMC_USIC_CH_INTERRUPT_NODE_POINTER_PROTO
 203:C:/Users/±è°æ¹Î/Desktop/IFX_S2GL-HW-SW_V1.1.3/Firmware_Software/DAVE project/S2GL_Doppler/Libraries/XMCLib/inc\xmc_uart.h **** } XMC_UART_CH_INTERRUPT_NODE_POINTER_t;
 204:C:/Users/±è°æ¹Î/Desktop/IFX_S2GL-HW-SW_V1.1.3/Firmware_Software/DAVE project/S2GL_Doppler/Libraries/XMCLib/inc\xmc_uart.h **** 
 205:C:/Users/±è°æ¹Î/Desktop/IFX_S2GL-HW-SW_V1.1.3/Firmware_Software/DAVE project/S2GL_Doppler/Libraries/XMCLib/inc\xmc_uart.h **** /**************************************************************************************************
 206:C:/Users/±è°æ¹Î/Desktop/IFX_S2GL-HW-SW_V1.1.3/Firmware_Software/DAVE project/S2GL_Doppler/Libraries/XMCLib/inc\xmc_uart.h ****  * DATA STRUCTURES
 207:C:/Users/±è°æ¹Î/Desktop/IFX_S2GL-HW-SW_V1.1.3/Firmware_Software/DAVE project/S2GL_Doppler/Libraries/XMCLib/inc\xmc_uart.h ****  **************************************************************************************************
 208:C:/Users/±è°æ¹Î/Desktop/IFX_S2GL-HW-SW_V1.1.3/Firmware_Software/DAVE project/S2GL_Doppler/Libraries/XMCLib/inc\xmc_uart.h **** 
 209:C:/Users/±è°æ¹Î/Desktop/IFX_S2GL-HW-SW_V1.1.3/Firmware_Software/DAVE project/S2GL_Doppler/Libraries/XMCLib/inc\xmc_uart.h **** /**
 210:C:/Users/±è°æ¹Î/Desktop/IFX_S2GL-HW-SW_V1.1.3/Firmware_Software/DAVE project/S2GL_Doppler/Libraries/XMCLib/inc\xmc_uart.h ****  * UART initialization structure
 211:C:/Users/±è°æ¹Î/Desktop/IFX_S2GL-HW-SW_V1.1.3/Firmware_Software/DAVE project/S2GL_Doppler/Libraries/XMCLib/inc\xmc_uart.h **** */
 212:C:/Users/±è°æ¹Î/Desktop/IFX_S2GL-HW-SW_V1.1.3/Firmware_Software/DAVE project/S2GL_Doppler/Libraries/XMCLib/inc\xmc_uart.h **** typedef struct XMC_UART_CH_CONFIG
 213:C:/Users/±è°æ¹Î/Desktop/IFX_S2GL-HW-SW_V1.1.3/Firmware_Software/DAVE project/S2GL_Doppler/Libraries/XMCLib/inc\xmc_uart.h **** {
 214:C:/Users/±è°æ¹Î/Desktop/IFX_S2GL-HW-SW_V1.1.3/Firmware_Software/DAVE project/S2GL_Doppler/Libraries/XMCLib/inc\xmc_uart.h ****   uint32_t baudrate;                         /**< Desired baudrate. \b Range: minimum= 100, maximum
 215:C:/Users/±è°æ¹Î/Desktop/IFX_S2GL-HW-SW_V1.1.3/Firmware_Software/DAVE project/S2GL_Doppler/Libraries/XMCLib/inc\xmc_uart.h ****   uint8_t data_bits;                         /**< Number of bits for the data field. Value configur
 216:C:/Users/±è°æ¹Î/Desktop/IFX_S2GL-HW-SW_V1.1.3/Firmware_Software/DAVE project/S2GL_Doppler/Libraries/XMCLib/inc\xmc_uart.h ****                                                   \b Range: minimum= 1, maximum= 16*/
 217:C:/Users/±è°æ¹Î/Desktop/IFX_S2GL-HW-SW_V1.1.3/Firmware_Software/DAVE project/S2GL_Doppler/Libraries/XMCLib/inc\xmc_uart.h ****   uint8_t frame_length;                      /**< Indicates nmber of bits in a frame. Configured as
 218:C:/Users/±è°æ¹Î/Desktop/IFX_S2GL-HW-SW_V1.1.3/Firmware_Software/DAVE project/S2GL_Doppler/Libraries/XMCLib/inc\xmc_uart.h ****                                                   \b Range: minimum= 1, maximum= 63*/
 219:C:/Users/±è°æ¹Î/Desktop/IFX_S2GL-HW-SW_V1.1.3/Firmware_Software/DAVE project/S2GL_Doppler/Libraries/XMCLib/inc\xmc_uart.h ****   uint8_t stop_bits;                         /**< Number of stop bits. \b Range: minimum= 1, maximu
 220:C:/Users/±è°æ¹Î/Desktop/IFX_S2GL-HW-SW_V1.1.3/Firmware_Software/DAVE project/S2GL_Doppler/Libraries/XMCLib/inc\xmc_uart.h ****   uint8_t oversampling;						           /**< Number of samples for a symbol(DCTQ).\b Range: minimum
 221:C:/Users/±è°æ¹Î/Desktop/IFX_S2GL-HW-SW_V1.1.3/Firmware_Software/DAVE project/S2GL_Doppler/Libraries/XMCLib/inc\xmc_uart.h ****   XMC_USIC_CH_PARITY_MODE_t parity_mode;     /**< Parity mode. \b Range: @ref XMC_USIC_CH_PARITY_MO
 222:C:/Users/±è°æ¹Î/Desktop/IFX_S2GL-HW-SW_V1.1.3/Firmware_Software/DAVE project/S2GL_Doppler/Libraries/XMCLib/inc\xmc_uart.h ****                                                   @ref XMC_USIC_CH_PARITY_MODE_ODD*/
 223:C:/Users/±è°æ¹Î/Desktop/IFX_S2GL-HW-SW_V1.1.3/Firmware_Software/DAVE project/S2GL_Doppler/Libraries/XMCLib/inc\xmc_uart.h **** } XMC_UART_CH_CONFIG_t;
 224:C:/Users/±è°æ¹Î/Desktop/IFX_S2GL-HW-SW_V1.1.3/Firmware_Software/DAVE project/S2GL_Doppler/Libraries/XMCLib/inc\xmc_uart.h **** 
 225:C:/Users/±è°æ¹Î/Desktop/IFX_S2GL-HW-SW_V1.1.3/Firmware_Software/DAVE project/S2GL_Doppler/Libraries/XMCLib/inc\xmc_uart.h **** /**************************************************************************************************
 226:C:/Users/±è°æ¹Î/Desktop/IFX_S2GL-HW-SW_V1.1.3/Firmware_Software/DAVE project/S2GL_Doppler/Libraries/XMCLib/inc\xmc_uart.h ****  * API PROTOTYPES
 227:C:/Users/±è°æ¹Î/Desktop/IFX_S2GL-HW-SW_V1.1.3/Firmware_Software/DAVE project/S2GL_Doppler/Libraries/XMCLib/inc\xmc_uart.h ****  **************************************************************************************************
 228:C:/Users/±è°æ¹Î/Desktop/IFX_S2GL-HW-SW_V1.1.3/Firmware_Software/DAVE project/S2GL_Doppler/Libraries/XMCLib/inc\xmc_uart.h **** 
 229:C:/Users/±è°æ¹Î/Desktop/IFX_S2GL-HW-SW_V1.1.3/Firmware_Software/DAVE project/S2GL_Doppler/Libraries/XMCLib/inc\xmc_uart.h **** #ifdef __cplusplus
 230:C:/Users/±è°æ¹Î/Desktop/IFX_S2GL-HW-SW_V1.1.3/Firmware_Software/DAVE project/S2GL_Doppler/Libraries/XMCLib/inc\xmc_uart.h **** extern "C" {
 231:C:/Users/±è°æ¹Î/Desktop/IFX_S2GL-HW-SW_V1.1.3/Firmware_Software/DAVE project/S2GL_Doppler/Libraries/XMCLib/inc\xmc_uart.h **** #endif
 232:C:/Users/±è°æ¹Î/Desktop/IFX_S2GL-HW-SW_V1.1.3/Firmware_Software/DAVE project/S2GL_Doppler/Libraries/XMCLib/inc\xmc_uart.h **** 
 233:C:/Users/±è°æ¹Î/Desktop/IFX_S2GL-HW-SW_V1.1.3/Firmware_Software/DAVE project/S2GL_Doppler/Libraries/XMCLib/inc\xmc_uart.h **** /**
 234:C:/Users/±è°æ¹Î/Desktop/IFX_S2GL-HW-SW_V1.1.3/Firmware_Software/DAVE project/S2GL_Doppler/Libraries/XMCLib/inc\xmc_uart.h ****  * @param channel Constant pointer to USIC channel handle of type @ref XMC_USIC_CH_t \n
 235:C:/Users/±è°æ¹Î/Desktop/IFX_S2GL-HW-SW_V1.1.3/Firmware_Software/DAVE project/S2GL_Doppler/Libraries/XMCLib/inc\xmc_uart.h ****  * 				  \b Range: @ref XMC_UART0_CH0, XMC_UART0_CH1,XMC_UART1_CH0, XMC_UART1_CH1,XMC_UART2_CH0, XM
 236:C:/Users/±è°æ¹Î/Desktop/IFX_S2GL-HW-SW_V1.1.3/Firmware_Software/DAVE project/S2GL_Doppler/Libraries/XMCLib/inc\xmc_uart.h ****  * @param config Constant pointer to UART configuration structure of type @ref XMC_UART_CH_CONFIG_t
 237:C:/Users/±è°æ¹Î/Desktop/IFX_S2GL-HW-SW_V1.1.3/Firmware_Software/DAVE project/S2GL_Doppler/Libraries/XMCLib/inc\xmc_uart.h ****  * @return XMC_UART_CH_STATUS_t Status of initializing the USIC channel for UART protocol.\n
 238:C:/Users/±è°æ¹Î/Desktop/IFX_S2GL-HW-SW_V1.1.3/Firmware_Software/DAVE project/S2GL_Doppler/Libraries/XMCLib/inc\xmc_uart.h ****  *          \b Range: @ref XMC_UART_CH_STATUS_OK if initialization is successful.\n
 239:C:/Users/±è°æ¹Î/Desktop/IFX_S2GL-HW-SW_V1.1.3/Firmware_Software/DAVE project/S2GL_Doppler/Libraries/XMCLib/inc\xmc_uart.h ****  *                    @ref XMC_UART_CH_STATUS_ERROR if configuration of baudrate failed.
 240:C:/Users/±è°æ¹Î/Desktop/IFX_S2GL-HW-SW_V1.1.3/Firmware_Software/DAVE project/S2GL_Doppler/Libraries/XMCLib/inc\xmc_uart.h ****  *
 241:C:/Users/±è°æ¹Î/Desktop/IFX_S2GL-HW-SW_V1.1.3/Firmware_Software/DAVE project/S2GL_Doppler/Libraries/XMCLib/inc\xmc_uart.h ****  * \par<b>Description</b><br>
 242:C:/Users/±è°æ¹Î/Desktop/IFX_S2GL-HW-SW_V1.1.3/Firmware_Software/DAVE project/S2GL_Doppler/Libraries/XMCLib/inc\xmc_uart.h ****  * Initializes the USIC channel for UART protocol.\n\n
 243:C:/Users/±è°æ¹Î/Desktop/IFX_S2GL-HW-SW_V1.1.3/Firmware_Software/DAVE project/S2GL_Doppler/Libraries/XMCLib/inc\xmc_uart.h ****  * During the initialization, USIC channel is enabled, baudrate is configured with the defined over
 244:C:/Users/±è°æ¹Î/Desktop/IFX_S2GL-HW-SW_V1.1.3/Firmware_Software/DAVE project/S2GL_Doppler/Libraries/XMCLib/inc\xmc_uart.h ****  * in the intialization structure. If the oversampling value is set to 0 in the structure, the defa
 245:C:/Users/±è°æ¹Î/Desktop/IFX_S2GL-HW-SW_V1.1.3/Firmware_Software/DAVE project/S2GL_Doppler/Libraries/XMCLib/inc\xmc_uart.h ****  * is considered. Sampling point for each symbol is configured at the half of sampling period. Symb
 246:C:/Users/±è°æ¹Î/Desktop/IFX_S2GL-HW-SW_V1.1.3/Firmware_Software/DAVE project/S2GL_Doppler/Libraries/XMCLib/inc\xmc_uart.h ****  * majority decision among 3 samples. 
 247:C:/Users/±è°æ¹Î/Desktop/IFX_S2GL-HW-SW_V1.1.3/Firmware_Software/DAVE project/S2GL_Doppler/Libraries/XMCLib/inc\xmc_uart.h ****  * Word length is configured with the number of data bits. If the value of \a frame_length is 0, th
 248:C:/Users/±è°æ¹Î/Desktop/IFX_S2GL-HW-SW_V1.1.3/Firmware_Software/DAVE project/S2GL_Doppler/Libraries/XMCLib/inc\xmc_uart.h ****  * is set to the same value as word length. If \a frame_length is greater than 0, it is set as the 
 249:C:/Users/±è°æ¹Î/Desktop/IFX_S2GL-HW-SW_V1.1.3/Firmware_Software/DAVE project/S2GL_Doppler/Libraries/XMCLib/inc\xmc_uart.h ****  * Parity mode is set to the value configured for \a parity_mode.
 250:C:/Users/±è°æ¹Î/Desktop/IFX_S2GL-HW-SW_V1.1.3/Firmware_Software/DAVE project/S2GL_Doppler/Libraries/XMCLib/inc\xmc_uart.h ****  * The USIC channel should be set to UART mode by calling the XMC_UART_CH_Start() API after the ini
 251:C:/Users/±è°æ¹Î/Desktop/IFX_S2GL-HW-SW_V1.1.3/Firmware_Software/DAVE project/S2GL_Doppler/Libraries/XMCLib/inc\xmc_uart.h ****  *
 252:C:/Users/±è°æ¹Î/Desktop/IFX_S2GL-HW-SW_V1.1.3/Firmware_Software/DAVE project/S2GL_Doppler/Libraries/XMCLib/inc\xmc_uart.h ****  * \par<b>Related APIs:</b><BR>
 253:C:/Users/±è°æ¹Î/Desktop/IFX_S2GL-HW-SW_V1.1.3/Firmware_Software/DAVE project/S2GL_Doppler/Libraries/XMCLib/inc\xmc_uart.h ****  * XMC_UART_CH_Start(), XMC_UART_CH_Stop(), XMC_UART_CH_Transmit()\n\n\n
 254:C:/Users/±è°æ¹Î/Desktop/IFX_S2GL-HW-SW_V1.1.3/Firmware_Software/DAVE project/S2GL_Doppler/Libraries/XMCLib/inc\xmc_uart.h ****  */
 255:C:/Users/±è°æ¹Î/Desktop/IFX_S2GL-HW-SW_V1.1.3/Firmware_Software/DAVE project/S2GL_Doppler/Libraries/XMCLib/inc\xmc_uart.h **** void XMC_UART_CH_Init(XMC_USIC_CH_t *const channel, const XMC_UART_CH_CONFIG_t *const config);
 256:C:/Users/±è°æ¹Î/Desktop/IFX_S2GL-HW-SW_V1.1.3/Firmware_Software/DAVE project/S2GL_Doppler/Libraries/XMCLib/inc\xmc_uart.h **** 
 257:C:/Users/±è°æ¹Î/Desktop/IFX_S2GL-HW-SW_V1.1.3/Firmware_Software/DAVE project/S2GL_Doppler/Libraries/XMCLib/inc\xmc_uart.h **** /**
 258:C:/Users/±è°æ¹Î/Desktop/IFX_S2GL-HW-SW_V1.1.3/Firmware_Software/DAVE project/S2GL_Doppler/Libraries/XMCLib/inc\xmc_uart.h ****  * @param channel Constant pointer to USIC channel handle of type @ref XMC_USIC_CH_t \n
 259:C:/Users/±è°æ¹Î/Desktop/IFX_S2GL-HW-SW_V1.1.3/Firmware_Software/DAVE project/S2GL_Doppler/Libraries/XMCLib/inc\xmc_uart.h ****  * 				  \b Range: @ref XMC_UART0_CH0, @ref XMC_UART0_CH1,@ref XMC_UART1_CH0,@ref XMC_UART1_CH1,@re
 260:C:/Users/±è°æ¹Î/Desktop/IFX_S2GL-HW-SW_V1.1.3/Firmware_Software/DAVE project/S2GL_Doppler/Libraries/XMCLib/inc\xmc_uart.h ****  * @return None
 261:C:/Users/±è°æ¹Î/Desktop/IFX_S2GL-HW-SW_V1.1.3/Firmware_Software/DAVE project/S2GL_Doppler/Libraries/XMCLib/inc\xmc_uart.h ****  *
 262:C:/Users/±è°æ¹Î/Desktop/IFX_S2GL-HW-SW_V1.1.3/Firmware_Software/DAVE project/S2GL_Doppler/Libraries/XMCLib/inc\xmc_uart.h ****  * \par<b>Description</b><br>
 263:C:/Users/±è°æ¹Î/Desktop/IFX_S2GL-HW-SW_V1.1.3/Firmware_Software/DAVE project/S2GL_Doppler/Libraries/XMCLib/inc\xmc_uart.h ****  * Sets the USIC channel operation mode to UART mode.\n\n
 264:C:/Users/±è°æ¹Î/Desktop/IFX_S2GL-HW-SW_V1.1.3/Firmware_Software/DAVE project/S2GL_Doppler/Libraries/XMCLib/inc\xmc_uart.h ****  * CCR register bitfield \a Mode is set to 2(UART mode). This API should be called after configurin
 265:C:/Users/±è°æ¹Î/Desktop/IFX_S2GL-HW-SW_V1.1.3/Firmware_Software/DAVE project/S2GL_Doppler/Libraries/XMCLib/inc\xmc_uart.h ****  * the USIC channel. Transmission and reception can happen only when the UART mode is set. 
 266:C:/Users/±è°æ¹Î/Desktop/IFX_S2GL-HW-SW_V1.1.3/Firmware_Software/DAVE project/S2GL_Doppler/Libraries/XMCLib/inc\xmc_uart.h ****  * This is an inline function.
 267:C:/Users/±è°æ¹Î/Desktop/IFX_S2GL-HW-SW_V1.1.3/Firmware_Software/DAVE project/S2GL_Doppler/Libraries/XMCLib/inc\xmc_uart.h ****  *
 268:C:/Users/±è°æ¹Î/Desktop/IFX_S2GL-HW-SW_V1.1.3/Firmware_Software/DAVE project/S2GL_Doppler/Libraries/XMCLib/inc\xmc_uart.h ****  * \par<b>Related APIs:</b><BR>
 269:C:/Users/±è°æ¹Î/Desktop/IFX_S2GL-HW-SW_V1.1.3/Firmware_Software/DAVE project/S2GL_Doppler/Libraries/XMCLib/inc\xmc_uart.h ****  * XMC_UART_CH_Stop(), XMC_UART_CH_Transmit()\n\n\n
 270:C:/Users/±è°æ¹Î/Desktop/IFX_S2GL-HW-SW_V1.1.3/Firmware_Software/DAVE project/S2GL_Doppler/Libraries/XMCLib/inc\xmc_uart.h ****  */
 271:C:/Users/±è°æ¹Î/Desktop/IFX_S2GL-HW-SW_V1.1.3/Firmware_Software/DAVE project/S2GL_Doppler/Libraries/XMCLib/inc\xmc_uart.h **** __STATIC_INLINE void XMC_UART_CH_Start(XMC_USIC_CH_t *const channel)
 272:C:/Users/±è°æ¹Î/Desktop/IFX_S2GL-HW-SW_V1.1.3/Firmware_Software/DAVE project/S2GL_Doppler/Libraries/XMCLib/inc\xmc_uart.h **** {
 273:C:/Users/±è°æ¹Î/Desktop/IFX_S2GL-HW-SW_V1.1.3/Firmware_Software/DAVE project/S2GL_Doppler/Libraries/XMCLib/inc\xmc_uart.h ****   channel->CCR = (uint32_t)(((channel->CCR) & (~USIC_CH_CCR_MODE_Msk)) | (uint32_t)XMC_USIC_CH_OPER
 112              	 .loc 3 273 0
 113 004e 0F22     	 mov r2,#15
 114 0050 236C     	 ldr r3,[r4,#64]
 115              	.LBE45:
 116              	.LBE44:
 184:../Dave/Generated/UART/uart_conf.c ****         0U,
 185:../Dave/Generated/UART/uart_conf.c ****         XMC_USIC_CH_FIFO_SIZE_16WORDS,
 186:../Dave/Generated/UART/uart_conf.c ****         0U);
 187:../Dave/Generated/UART/uart_conf.c ****   /* Start UART */
 188:../Dave/Generated/UART/uart_conf.c ****   XMC_UART_CH_Start(XMC_UART0_CH0);
 189:../Dave/Generated/UART/uart_conf.c **** 
 190:../Dave/Generated/UART/uart_conf.c ****   /* Initialize UART TX pin */
 191:../Dave/Generated/UART/uart_conf.c ****   XMC_GPIO_Init((XMC_GPIO_PORT_t *)PORT2_BASE, 0U, &UART_0_tx_pin_config);
 117              	 .loc 1 191 0
 118 0052 281C     	 mov r0,r5
 119              	.LBB47:
 120              	.LBB46:
 121              	 .loc 3 273 0
 122 0054 9343     	 bic r3,r2
 123 0056 0D3A     	 sub r2,r2,#13
 124 0058 1343     	 orr r3,r2
 125 005a 2364     	 str r3,[r4,#64]
 126              	.LBE46:
 127              	.LBE47:
 128              	 .loc 1 191 0
 129 005c 0021     	 mov r1,#0
 130 005e 1B4A     	 ldr r2,.L2+12
 131 0060 FFF7FEFF 	 bl XMC_GPIO_Init
 132              	.LVL7:
 192:../Dave/Generated/UART/uart_conf.c **** 
 193:../Dave/Generated/UART/uart_conf.c ****   /*Set service request for UART protocol events*/
 194:../Dave/Generated/UART/uart_conf.c ****   XMC_USIC_CH_SetInterruptNodePointer(XMC_UART0_CH0, XMC_USIC_CH_INTERRUPT_NODE_POINTER_PROTOCOL,
 133              	 .loc 1 194 0
 134 0064 201C     	 mov r0,r4
 135 0066 1021     	 mov r1,#16
 136 0068 0022     	 mov r2,#0
 137 006a FFF7FEFF 	 bl XMC_USIC_CH_SetInterruptNodePointer
 138              	.LVL8:
 195:../Dave/Generated/UART/uart_conf.c ****      0U);
 196:../Dave/Generated/UART/uart_conf.c ****   /*Set service request for tx FIFO transmit interrupt*/
 197:../Dave/Generated/UART/uart_conf.c ****   XMC_USIC_CH_TXFIFO_SetInterruptNodePointer(XMC_UART0_CH0, XMC_USIC_CH_TXFIFO_INTERRUPT_NODE_POINT
 139              	 .loc 1 197 0
 140 006e 201C     	 mov r0,r4
 141 0070 1021     	 mov r1,#16
 142 0072 0222     	 mov r2,#2
 143 0074 FFF7FEFF 	 bl XMC_USIC_CH_TXFIFO_SetInterruptNodePointer
 144              	.LVL9:
 198:../Dave/Generated/UART/uart_conf.c ****       2U);
 199:../Dave/Generated/UART/uart_conf.c ****   /*Set service request for rx FIFO receive interrupt*/
 200:../Dave/Generated/UART/uart_conf.c ****   XMC_USIC_CH_RXFIFO_SetInterruptNodePointer(XMC_UART0_CH0, XMC_USIC_CH_RXFIFO_INTERRUPT_NODE_POINT
 145              	 .loc 1 200 0
 146 0078 201C     	 mov r0,r4
 147 007a 1021     	 mov r1,#16
 148 007c 0122     	 mov r2,#1
 149 007e FFF7FEFF 	 bl XMC_USIC_CH_RXFIFO_SetInterruptNodePointer
 150              	.LVL10:
 201:../Dave/Generated/UART/uart_conf.c ****        0x1U);
 202:../Dave/Generated/UART/uart_conf.c ****   XMC_USIC_CH_RXFIFO_SetInterruptNodePointer(XMC_UART0_CH0, XMC_USIC_CH_RXFIFO_INTERRUPT_NODE_POINT
 151              	 .loc 1 202 0
 152 0082 201C     	 mov r0,r4
 153 0084 1321     	 mov r1,#19
 154 0086 0122     	 mov r2,#1
 155 0088 FFF7FEFF 	 bl XMC_USIC_CH_RXFIFO_SetInterruptNodePointer
 156              	.LVL11:
 157              	.LBB48:
 158              	.LBB49:
 159              	 .file 4 "C:/Users/\261\350\260\346\271\316/Desktop/IFX_S2GL-HW-SW_V1.1.3/Firmware_Software/DAVE project/S2GL_Doppler/Libraries/CMSIS/Include/core_cm0.h"
   1:C:/Users/±è°æ¹Î/Desktop/IFX_S2GL-HW-SW_V1.1.3/Firmware_Software/DAVE project/S2GL_Doppler/Libraries/CMSIS/Include\core_cm0.h **** /**************************************************************************//**
   2:C:/Users/±è°æ¹Î/Desktop/IFX_S2GL-HW-SW_V1.1.3/Firmware_Software/DAVE project/S2GL_Doppler/Libraries/CMSIS/Include\core_cm0.h ****  * @file     core_cm0.h
   3:C:/Users/±è°æ¹Î/Desktop/IFX_S2GL-HW-SW_V1.1.3/Firmware_Software/DAVE project/S2GL_Doppler/Libraries/CMSIS/Include\core_cm0.h ****  * @brief    CMSIS Cortex-M0 Core Peripheral Access Layer Header File
   4:C:/Users/±è°æ¹Î/Desktop/IFX_S2GL-HW-SW_V1.1.3/Firmware_Software/DAVE project/S2GL_Doppler/Libraries/CMSIS/Include\core_cm0.h ****  * @version  V4.30
   5:C:/Users/±è°æ¹Î/Desktop/IFX_S2GL-HW-SW_V1.1.3/Firmware_Software/DAVE project/S2GL_Doppler/Libraries/CMSIS/Include\core_cm0.h ****  * @date     20. October 2015
   6:C:/Users/±è°æ¹Î/Desktop/IFX_S2GL-HW-SW_V1.1.3/Firmware_Software/DAVE project/S2GL_Doppler/Libraries/CMSIS/Include\core_cm0.h ****  ******************************************************************************/
   7:C:/Users/±è°æ¹Î/Desktop/IFX_S2GL-HW-SW_V1.1.3/Firmware_Software/DAVE project/S2GL_Doppler/Libraries/CMSIS/Include\core_cm0.h **** /* Copyright (c) 2009 - 2015 ARM LIMITED
   8:C:/Users/±è°æ¹Î/Desktop/IFX_S2GL-HW-SW_V1.1.3/Firmware_Software/DAVE project/S2GL_Doppler/Libraries/CMSIS/Include\core_cm0.h **** 
   9:C:/Users/±è°æ¹Î/Desktop/IFX_S2GL-HW-SW_V1.1.3/Firmware_Software/DAVE project/S2GL_Doppler/Libraries/CMSIS/Include\core_cm0.h ****    All rights reserved.
  10:C:/Users/±è°æ¹Î/Desktop/IFX_S2GL-HW-SW_V1.1.3/Firmware_Software/DAVE project/S2GL_Doppler/Libraries/CMSIS/Include\core_cm0.h ****    Redistribution and use in source and binary forms, with or without
  11:C:/Users/±è°æ¹Î/Desktop/IFX_S2GL-HW-SW_V1.1.3/Firmware_Software/DAVE project/S2GL_Doppler/Libraries/CMSIS/Include\core_cm0.h ****    modification, are permitted provided that the following conditions are met:
  12:C:/Users/±è°æ¹Î/Desktop/IFX_S2GL-HW-SW_V1.1.3/Firmware_Software/DAVE project/S2GL_Doppler/Libraries/CMSIS/Include\core_cm0.h ****    - Redistributions of source code must retain the above copyright
  13:C:/Users/±è°æ¹Î/Desktop/IFX_S2GL-HW-SW_V1.1.3/Firmware_Software/DAVE project/S2GL_Doppler/Libraries/CMSIS/Include\core_cm0.h ****      notice, this list of conditions and the following disclaimer.
  14:C:/Users/±è°æ¹Î/Desktop/IFX_S2GL-HW-SW_V1.1.3/Firmware_Software/DAVE project/S2GL_Doppler/Libraries/CMSIS/Include\core_cm0.h ****    - Redistributions in binary form must reproduce the above copyright
  15:C:/Users/±è°æ¹Î/Desktop/IFX_S2GL-HW-SW_V1.1.3/Firmware_Software/DAVE project/S2GL_Doppler/Libraries/CMSIS/Include\core_cm0.h ****      notice, this list of conditions and the following disclaimer in the
  16:C:/Users/±è°æ¹Î/Desktop/IFX_S2GL-HW-SW_V1.1.3/Firmware_Software/DAVE project/S2GL_Doppler/Libraries/CMSIS/Include\core_cm0.h ****      documentation and/or other materials provided with the distribution.
  17:C:/Users/±è°æ¹Î/Desktop/IFX_S2GL-HW-SW_V1.1.3/Firmware_Software/DAVE project/S2GL_Doppler/Libraries/CMSIS/Include\core_cm0.h ****    - Neither the name of ARM nor the names of its contributors may be used
  18:C:/Users/±è°æ¹Î/Desktop/IFX_S2GL-HW-SW_V1.1.3/Firmware_Software/DAVE project/S2GL_Doppler/Libraries/CMSIS/Include\core_cm0.h ****      to endorse or promote products derived from this software without
  19:C:/Users/±è°æ¹Î/Desktop/IFX_S2GL-HW-SW_V1.1.3/Firmware_Software/DAVE project/S2GL_Doppler/Libraries/CMSIS/Include\core_cm0.h ****      specific prior written permission.
  20:C:/Users/±è°æ¹Î/Desktop/IFX_S2GL-HW-SW_V1.1.3/Firmware_Software/DAVE project/S2GL_Doppler/Libraries/CMSIS/Include\core_cm0.h ****    *
  21:C:/Users/±è°æ¹Î/Desktop/IFX_S2GL-HW-SW_V1.1.3/Firmware_Software/DAVE project/S2GL_Doppler/Libraries/CMSIS/Include\core_cm0.h ****    THIS SOFTWARE IS PROVIDED BY THE COPYRIGHT HOLDERS AND CONTRIBUTORS "AS IS"
  22:C:/Users/±è°æ¹Î/Desktop/IFX_S2GL-HW-SW_V1.1.3/Firmware_Software/DAVE project/S2GL_Doppler/Libraries/CMSIS/Include\core_cm0.h ****    AND ANY EXPRESS OR IMPLIED WARRANTIES, INCLUDING, BUT NOT LIMITED TO, THE
  23:C:/Users/±è°æ¹Î/Desktop/IFX_S2GL-HW-SW_V1.1.3/Firmware_Software/DAVE project/S2GL_Doppler/Libraries/CMSIS/Include\core_cm0.h ****    IMPLIED WARRANTIES OF MERCHANTABILITY AND FITNESS FOR A PARTICULAR PURPOSE
  24:C:/Users/±è°æ¹Î/Desktop/IFX_S2GL-HW-SW_V1.1.3/Firmware_Software/DAVE project/S2GL_Doppler/Libraries/CMSIS/Include\core_cm0.h ****    ARE DISCLAIMED. IN NO EVENT SHALL COPYRIGHT HOLDERS AND CONTRIBUTORS BE
  25:C:/Users/±è°æ¹Î/Desktop/IFX_S2GL-HW-SW_V1.1.3/Firmware_Software/DAVE project/S2GL_Doppler/Libraries/CMSIS/Include\core_cm0.h ****    LIABLE FOR ANY DIRECT, INDIRECT, INCIDENTAL, SPECIAL, EXEMPLARY, OR
  26:C:/Users/±è°æ¹Î/Desktop/IFX_S2GL-HW-SW_V1.1.3/Firmware_Software/DAVE project/S2GL_Doppler/Libraries/CMSIS/Include\core_cm0.h ****    CONSEQUENTIAL DAMAGES (INCLUDING, BUT NOT LIMITED TO, PROCUREMENT OF
  27:C:/Users/±è°æ¹Î/Desktop/IFX_S2GL-HW-SW_V1.1.3/Firmware_Software/DAVE project/S2GL_Doppler/Libraries/CMSIS/Include\core_cm0.h ****    SUBSTITUTE GOODS OR SERVICES; LOSS OF USE, DATA, OR PROFITS; OR BUSINESS
  28:C:/Users/±è°æ¹Î/Desktop/IFX_S2GL-HW-SW_V1.1.3/Firmware_Software/DAVE project/S2GL_Doppler/Libraries/CMSIS/Include\core_cm0.h ****    INTERRUPTION) HOWEVER CAUSED AND ON ANY THEORY OF LIABILITY, WHETHER IN
  29:C:/Users/±è°æ¹Î/Desktop/IFX_S2GL-HW-SW_V1.1.3/Firmware_Software/DAVE project/S2GL_Doppler/Libraries/CMSIS/Include\core_cm0.h ****    CONTRACT, STRICT LIABILITY, OR TORT (INCLUDING NEGLIGENCE OR OTHERWISE)
  30:C:/Users/±è°æ¹Î/Desktop/IFX_S2GL-HW-SW_V1.1.3/Firmware_Software/DAVE project/S2GL_Doppler/Libraries/CMSIS/Include\core_cm0.h ****    ARISING IN ANY WAY OUT OF THE USE OF THIS SOFTWARE, EVEN IF ADVISED OF THE
  31:C:/Users/±è°æ¹Î/Desktop/IFX_S2GL-HW-SW_V1.1.3/Firmware_Software/DAVE project/S2GL_Doppler/Libraries/CMSIS/Include\core_cm0.h ****    POSSIBILITY OF SUCH DAMAGE.
  32:C:/Users/±è°æ¹Î/Desktop/IFX_S2GL-HW-SW_V1.1.3/Firmware_Software/DAVE project/S2GL_Doppler/Libraries/CMSIS/Include\core_cm0.h ****    ---------------------------------------------------------------------------*/
  33:C:/Users/±è°æ¹Î/Desktop/IFX_S2GL-HW-SW_V1.1.3/Firmware_Software/DAVE project/S2GL_Doppler/Libraries/CMSIS/Include\core_cm0.h **** 
  34:C:/Users/±è°æ¹Î/Desktop/IFX_S2GL-HW-SW_V1.1.3/Firmware_Software/DAVE project/S2GL_Doppler/Libraries/CMSIS/Include\core_cm0.h **** 
  35:C:/Users/±è°æ¹Î/Desktop/IFX_S2GL-HW-SW_V1.1.3/Firmware_Software/DAVE project/S2GL_Doppler/Libraries/CMSIS/Include\core_cm0.h **** #if   defined ( __ICCARM__ )
  36:C:/Users/±è°æ¹Î/Desktop/IFX_S2GL-HW-SW_V1.1.3/Firmware_Software/DAVE project/S2GL_Doppler/Libraries/CMSIS/Include\core_cm0.h ****  #pragma system_include         /* treat file as system include file for MISRA check */
  37:C:/Users/±è°æ¹Î/Desktop/IFX_S2GL-HW-SW_V1.1.3/Firmware_Software/DAVE project/S2GL_Doppler/Libraries/CMSIS/Include\core_cm0.h **** #elif defined(__ARMCC_VERSION) && (__ARMCC_VERSION >= 6010050)
  38:C:/Users/±è°æ¹Î/Desktop/IFX_S2GL-HW-SW_V1.1.3/Firmware_Software/DAVE project/S2GL_Doppler/Libraries/CMSIS/Include\core_cm0.h ****   #pragma clang system_header   /* treat file as system include file */
  39:C:/Users/±è°æ¹Î/Desktop/IFX_S2GL-HW-SW_V1.1.3/Firmware_Software/DAVE project/S2GL_Doppler/Libraries/CMSIS/Include\core_cm0.h **** #endif
  40:C:/Users/±è°æ¹Î/Desktop/IFX_S2GL-HW-SW_V1.1.3/Firmware_Software/DAVE project/S2GL_Doppler/Libraries/CMSIS/Include\core_cm0.h **** 
  41:C:/Users/±è°æ¹Î/Desktop/IFX_S2GL-HW-SW_V1.1.3/Firmware_Software/DAVE project/S2GL_Doppler/Libraries/CMSIS/Include\core_cm0.h **** #ifndef __CORE_CM0_H_GENERIC
  42:C:/Users/±è°æ¹Î/Desktop/IFX_S2GL-HW-SW_V1.1.3/Firmware_Software/DAVE project/S2GL_Doppler/Libraries/CMSIS/Include\core_cm0.h **** #define __CORE_CM0_H_GENERIC
  43:C:/Users/±è°æ¹Î/Desktop/IFX_S2GL-HW-SW_V1.1.3/Firmware_Software/DAVE project/S2GL_Doppler/Libraries/CMSIS/Include\core_cm0.h **** 
  44:C:/Users/±è°æ¹Î/Desktop/IFX_S2GL-HW-SW_V1.1.3/Firmware_Software/DAVE project/S2GL_Doppler/Libraries/CMSIS/Include\core_cm0.h **** #include <stdint.h>
  45:C:/Users/±è°æ¹Î/Desktop/IFX_S2GL-HW-SW_V1.1.3/Firmware_Software/DAVE project/S2GL_Doppler/Libraries/CMSIS/Include\core_cm0.h **** 
  46:C:/Users/±è°æ¹Î/Desktop/IFX_S2GL-HW-SW_V1.1.3/Firmware_Software/DAVE project/S2GL_Doppler/Libraries/CMSIS/Include\core_cm0.h **** #ifdef __cplusplus
  47:C:/Users/±è°æ¹Î/Desktop/IFX_S2GL-HW-SW_V1.1.3/Firmware_Software/DAVE project/S2GL_Doppler/Libraries/CMSIS/Include\core_cm0.h ****  extern "C" {
  48:C:/Users/±è°æ¹Î/Desktop/IFX_S2GL-HW-SW_V1.1.3/Firmware_Software/DAVE project/S2GL_Doppler/Libraries/CMSIS/Include\core_cm0.h **** #endif
  49:C:/Users/±è°æ¹Î/Desktop/IFX_S2GL-HW-SW_V1.1.3/Firmware_Software/DAVE project/S2GL_Doppler/Libraries/CMSIS/Include\core_cm0.h **** 
  50:C:/Users/±è°æ¹Î/Desktop/IFX_S2GL-HW-SW_V1.1.3/Firmware_Software/DAVE project/S2GL_Doppler/Libraries/CMSIS/Include\core_cm0.h **** /**
  51:C:/Users/±è°æ¹Î/Desktop/IFX_S2GL-HW-SW_V1.1.3/Firmware_Software/DAVE project/S2GL_Doppler/Libraries/CMSIS/Include\core_cm0.h ****   \page CMSIS_MISRA_Exceptions  MISRA-C:2004 Compliance Exceptions
  52:C:/Users/±è°æ¹Î/Desktop/IFX_S2GL-HW-SW_V1.1.3/Firmware_Software/DAVE project/S2GL_Doppler/Libraries/CMSIS/Include\core_cm0.h ****   CMSIS violates the following MISRA-C:2004 rules:
  53:C:/Users/±è°æ¹Î/Desktop/IFX_S2GL-HW-SW_V1.1.3/Firmware_Software/DAVE project/S2GL_Doppler/Libraries/CMSIS/Include\core_cm0.h **** 
  54:C:/Users/±è°æ¹Î/Desktop/IFX_S2GL-HW-SW_V1.1.3/Firmware_Software/DAVE project/S2GL_Doppler/Libraries/CMSIS/Include\core_cm0.h ****    \li Required Rule 8.5, object/function definition in header file.<br>
  55:C:/Users/±è°æ¹Î/Desktop/IFX_S2GL-HW-SW_V1.1.3/Firmware_Software/DAVE project/S2GL_Doppler/Libraries/CMSIS/Include\core_cm0.h ****      Function definitions in header files are used to allow 'inlining'.
  56:C:/Users/±è°æ¹Î/Desktop/IFX_S2GL-HW-SW_V1.1.3/Firmware_Software/DAVE project/S2GL_Doppler/Libraries/CMSIS/Include\core_cm0.h **** 
  57:C:/Users/±è°æ¹Î/Desktop/IFX_S2GL-HW-SW_V1.1.3/Firmware_Software/DAVE project/S2GL_Doppler/Libraries/CMSIS/Include\core_cm0.h ****    \li Required Rule 18.4, declaration of union type or object of union type: '{...}'.<br>
  58:C:/Users/±è°æ¹Î/Desktop/IFX_S2GL-HW-SW_V1.1.3/Firmware_Software/DAVE project/S2GL_Doppler/Libraries/CMSIS/Include\core_cm0.h ****      Unions are used for effective representation of core registers.
  59:C:/Users/±è°æ¹Î/Desktop/IFX_S2GL-HW-SW_V1.1.3/Firmware_Software/DAVE project/S2GL_Doppler/Libraries/CMSIS/Include\core_cm0.h **** 
  60:C:/Users/±è°æ¹Î/Desktop/IFX_S2GL-HW-SW_V1.1.3/Firmware_Software/DAVE project/S2GL_Doppler/Libraries/CMSIS/Include\core_cm0.h ****    \li Advisory Rule 19.7, Function-like macro defined.<br>
  61:C:/Users/±è°æ¹Î/Desktop/IFX_S2GL-HW-SW_V1.1.3/Firmware_Software/DAVE project/S2GL_Doppler/Libraries/CMSIS/Include\core_cm0.h ****      Function-like macros are used to allow more efficient code.
  62:C:/Users/±è°æ¹Î/Desktop/IFX_S2GL-HW-SW_V1.1.3/Firmware_Software/DAVE project/S2GL_Doppler/Libraries/CMSIS/Include\core_cm0.h ****  */
  63:C:/Users/±è°æ¹Î/Desktop/IFX_S2GL-HW-SW_V1.1.3/Firmware_Software/DAVE project/S2GL_Doppler/Libraries/CMSIS/Include\core_cm0.h **** 
  64:C:/Users/±è°æ¹Î/Desktop/IFX_S2GL-HW-SW_V1.1.3/Firmware_Software/DAVE project/S2GL_Doppler/Libraries/CMSIS/Include\core_cm0.h **** 
  65:C:/Users/±è°æ¹Î/Desktop/IFX_S2GL-HW-SW_V1.1.3/Firmware_Software/DAVE project/S2GL_Doppler/Libraries/CMSIS/Include\core_cm0.h **** /*******************************************************************************
  66:C:/Users/±è°æ¹Î/Desktop/IFX_S2GL-HW-SW_V1.1.3/Firmware_Software/DAVE project/S2GL_Doppler/Libraries/CMSIS/Include\core_cm0.h ****  *                 CMSIS definitions
  67:C:/Users/±è°æ¹Î/Desktop/IFX_S2GL-HW-SW_V1.1.3/Firmware_Software/DAVE project/S2GL_Doppler/Libraries/CMSIS/Include\core_cm0.h ****  ******************************************************************************/
  68:C:/Users/±è°æ¹Î/Desktop/IFX_S2GL-HW-SW_V1.1.3/Firmware_Software/DAVE project/S2GL_Doppler/Libraries/CMSIS/Include\core_cm0.h **** /**
  69:C:/Users/±è°æ¹Î/Desktop/IFX_S2GL-HW-SW_V1.1.3/Firmware_Software/DAVE project/S2GL_Doppler/Libraries/CMSIS/Include\core_cm0.h ****   \ingroup Cortex_M0
  70:C:/Users/±è°æ¹Î/Desktop/IFX_S2GL-HW-SW_V1.1.3/Firmware_Software/DAVE project/S2GL_Doppler/Libraries/CMSIS/Include\core_cm0.h ****   @{
  71:C:/Users/±è°æ¹Î/Desktop/IFX_S2GL-HW-SW_V1.1.3/Firmware_Software/DAVE project/S2GL_Doppler/Libraries/CMSIS/Include\core_cm0.h ****  */
  72:C:/Users/±è°æ¹Î/Desktop/IFX_S2GL-HW-SW_V1.1.3/Firmware_Software/DAVE project/S2GL_Doppler/Libraries/CMSIS/Include\core_cm0.h **** 
  73:C:/Users/±è°æ¹Î/Desktop/IFX_S2GL-HW-SW_V1.1.3/Firmware_Software/DAVE project/S2GL_Doppler/Libraries/CMSIS/Include\core_cm0.h **** /*  CMSIS CM0 definitions */
  74:C:/Users/±è°æ¹Î/Desktop/IFX_S2GL-HW-SW_V1.1.3/Firmware_Software/DAVE project/S2GL_Doppler/Libraries/CMSIS/Include\core_cm0.h **** #define __CM0_CMSIS_VERSION_MAIN  (0x04U)                                      /*!< [31:16] CMSIS H
  75:C:/Users/±è°æ¹Î/Desktop/IFX_S2GL-HW-SW_V1.1.3/Firmware_Software/DAVE project/S2GL_Doppler/Libraries/CMSIS/Include\core_cm0.h **** #define __CM0_CMSIS_VERSION_SUB   (0x1EU)                                      /*!< [15:0]  CMSIS H
  76:C:/Users/±è°æ¹Î/Desktop/IFX_S2GL-HW-SW_V1.1.3/Firmware_Software/DAVE project/S2GL_Doppler/Libraries/CMSIS/Include\core_cm0.h **** #define __CM0_CMSIS_VERSION       ((__CM0_CMSIS_VERSION_MAIN << 16U) | \
  77:C:/Users/±è°æ¹Î/Desktop/IFX_S2GL-HW-SW_V1.1.3/Firmware_Software/DAVE project/S2GL_Doppler/Libraries/CMSIS/Include\core_cm0.h ****                                     __CM0_CMSIS_VERSION_SUB           )        /*!< CMSIS HAL versi
  78:C:/Users/±è°æ¹Î/Desktop/IFX_S2GL-HW-SW_V1.1.3/Firmware_Software/DAVE project/S2GL_Doppler/Libraries/CMSIS/Include\core_cm0.h **** 
  79:C:/Users/±è°æ¹Î/Desktop/IFX_S2GL-HW-SW_V1.1.3/Firmware_Software/DAVE project/S2GL_Doppler/Libraries/CMSIS/Include\core_cm0.h **** #define __CORTEX_M                (0x00U)                                      /*!< Cortex-M Core *
  80:C:/Users/±è°æ¹Î/Desktop/IFX_S2GL-HW-SW_V1.1.3/Firmware_Software/DAVE project/S2GL_Doppler/Libraries/CMSIS/Include\core_cm0.h **** 
  81:C:/Users/±è°æ¹Î/Desktop/IFX_S2GL-HW-SW_V1.1.3/Firmware_Software/DAVE project/S2GL_Doppler/Libraries/CMSIS/Include\core_cm0.h **** 
  82:C:/Users/±è°æ¹Î/Desktop/IFX_S2GL-HW-SW_V1.1.3/Firmware_Software/DAVE project/S2GL_Doppler/Libraries/CMSIS/Include\core_cm0.h **** #if   defined ( __CC_ARM )
  83:C:/Users/±è°æ¹Î/Desktop/IFX_S2GL-HW-SW_V1.1.3/Firmware_Software/DAVE project/S2GL_Doppler/Libraries/CMSIS/Include\core_cm0.h ****   #define __ASM            __asm                                      /*!< asm keyword for ARM Comp
  84:C:/Users/±è°æ¹Î/Desktop/IFX_S2GL-HW-SW_V1.1.3/Firmware_Software/DAVE project/S2GL_Doppler/Libraries/CMSIS/Include\core_cm0.h ****   #define __INLINE         __inline                                   /*!< inline keyword for ARM C
  85:C:/Users/±è°æ¹Î/Desktop/IFX_S2GL-HW-SW_V1.1.3/Firmware_Software/DAVE project/S2GL_Doppler/Libraries/CMSIS/Include\core_cm0.h ****   #define __STATIC_INLINE  static __inline
  86:C:/Users/±è°æ¹Î/Desktop/IFX_S2GL-HW-SW_V1.1.3/Firmware_Software/DAVE project/S2GL_Doppler/Libraries/CMSIS/Include\core_cm0.h **** 
  87:C:/Users/±è°æ¹Î/Desktop/IFX_S2GL-HW-SW_V1.1.3/Firmware_Software/DAVE project/S2GL_Doppler/Libraries/CMSIS/Include\core_cm0.h **** #elif defined(__ARMCC_VERSION) && (__ARMCC_VERSION >= 6010050)
  88:C:/Users/±è°æ¹Î/Desktop/IFX_S2GL-HW-SW_V1.1.3/Firmware_Software/DAVE project/S2GL_Doppler/Libraries/CMSIS/Include\core_cm0.h ****   #define __ASM            __asm                                      /*!< asm keyword for ARM Comp
  89:C:/Users/±è°æ¹Î/Desktop/IFX_S2GL-HW-SW_V1.1.3/Firmware_Software/DAVE project/S2GL_Doppler/Libraries/CMSIS/Include\core_cm0.h ****   #define __INLINE         __inline                                   /*!< inline keyword for ARM C
  90:C:/Users/±è°æ¹Î/Desktop/IFX_S2GL-HW-SW_V1.1.3/Firmware_Software/DAVE project/S2GL_Doppler/Libraries/CMSIS/Include\core_cm0.h ****   #define __STATIC_INLINE  static __inline
  91:C:/Users/±è°æ¹Î/Desktop/IFX_S2GL-HW-SW_V1.1.3/Firmware_Software/DAVE project/S2GL_Doppler/Libraries/CMSIS/Include\core_cm0.h **** 
  92:C:/Users/±è°æ¹Î/Desktop/IFX_S2GL-HW-SW_V1.1.3/Firmware_Software/DAVE project/S2GL_Doppler/Libraries/CMSIS/Include\core_cm0.h **** #elif defined ( __GNUC__ )
  93:C:/Users/±è°æ¹Î/Desktop/IFX_S2GL-HW-SW_V1.1.3/Firmware_Software/DAVE project/S2GL_Doppler/Libraries/CMSIS/Include\core_cm0.h ****   #define __ASM            __asm                                      /*!< asm keyword for GNU Comp
  94:C:/Users/±è°æ¹Î/Desktop/IFX_S2GL-HW-SW_V1.1.3/Firmware_Software/DAVE project/S2GL_Doppler/Libraries/CMSIS/Include\core_cm0.h ****   #define __INLINE         inline                                     /*!< inline keyword for GNU C
  95:C:/Users/±è°æ¹Î/Desktop/IFX_S2GL-HW-SW_V1.1.3/Firmware_Software/DAVE project/S2GL_Doppler/Libraries/CMSIS/Include\core_cm0.h ****   #define __STATIC_INLINE  static inline
  96:C:/Users/±è°æ¹Î/Desktop/IFX_S2GL-HW-SW_V1.1.3/Firmware_Software/DAVE project/S2GL_Doppler/Libraries/CMSIS/Include\core_cm0.h **** 
  97:C:/Users/±è°æ¹Î/Desktop/IFX_S2GL-HW-SW_V1.1.3/Firmware_Software/DAVE project/S2GL_Doppler/Libraries/CMSIS/Include\core_cm0.h **** #elif defined ( __ICCARM__ )
  98:C:/Users/±è°æ¹Î/Desktop/IFX_S2GL-HW-SW_V1.1.3/Firmware_Software/DAVE project/S2GL_Doppler/Libraries/CMSIS/Include\core_cm0.h ****   #define __ASM            __asm                                      /*!< asm keyword for IAR Comp
  99:C:/Users/±è°æ¹Î/Desktop/IFX_S2GL-HW-SW_V1.1.3/Firmware_Software/DAVE project/S2GL_Doppler/Libraries/CMSIS/Include\core_cm0.h ****   #define __INLINE         inline                                     /*!< inline keyword for IAR C
 100:C:/Users/±è°æ¹Î/Desktop/IFX_S2GL-HW-SW_V1.1.3/Firmware_Software/DAVE project/S2GL_Doppler/Libraries/CMSIS/Include\core_cm0.h ****   #define __STATIC_INLINE  static inline
 101:C:/Users/±è°æ¹Î/Desktop/IFX_S2GL-HW-SW_V1.1.3/Firmware_Software/DAVE project/S2GL_Doppler/Libraries/CMSIS/Include\core_cm0.h **** 
 102:C:/Users/±è°æ¹Î/Desktop/IFX_S2GL-HW-SW_V1.1.3/Firmware_Software/DAVE project/S2GL_Doppler/Libraries/CMSIS/Include\core_cm0.h **** #elif defined ( __TMS470__ )
 103:C:/Users/±è°æ¹Î/Desktop/IFX_S2GL-HW-SW_V1.1.3/Firmware_Software/DAVE project/S2GL_Doppler/Libraries/CMSIS/Include\core_cm0.h ****   #define __ASM            __asm                                      /*!< asm keyword for TI CCS C
 104:C:/Users/±è°æ¹Î/Desktop/IFX_S2GL-HW-SW_V1.1.3/Firmware_Software/DAVE project/S2GL_Doppler/Libraries/CMSIS/Include\core_cm0.h ****   #define __STATIC_INLINE  static inline
 105:C:/Users/±è°æ¹Î/Desktop/IFX_S2GL-HW-SW_V1.1.3/Firmware_Software/DAVE project/S2GL_Doppler/Libraries/CMSIS/Include\core_cm0.h **** 
 106:C:/Users/±è°æ¹Î/Desktop/IFX_S2GL-HW-SW_V1.1.3/Firmware_Software/DAVE project/S2GL_Doppler/Libraries/CMSIS/Include\core_cm0.h **** #elif defined ( __TASKING__ )
 107:C:/Users/±è°æ¹Î/Desktop/IFX_S2GL-HW-SW_V1.1.3/Firmware_Software/DAVE project/S2GL_Doppler/Libraries/CMSIS/Include\core_cm0.h ****   #define __ASM            __asm                                      /*!< asm keyword for TASKING 
 108:C:/Users/±è°æ¹Î/Desktop/IFX_S2GL-HW-SW_V1.1.3/Firmware_Software/DAVE project/S2GL_Doppler/Libraries/CMSIS/Include\core_cm0.h ****   #define __INLINE         inline                                     /*!< inline keyword for TASKI
 109:C:/Users/±è°æ¹Î/Desktop/IFX_S2GL-HW-SW_V1.1.3/Firmware_Software/DAVE project/S2GL_Doppler/Libraries/CMSIS/Include\core_cm0.h ****   #define __STATIC_INLINE  static inline
 110:C:/Users/±è°æ¹Î/Desktop/IFX_S2GL-HW-SW_V1.1.3/Firmware_Software/DAVE project/S2GL_Doppler/Libraries/CMSIS/Include\core_cm0.h **** 
 111:C:/Users/±è°æ¹Î/Desktop/IFX_S2GL-HW-SW_V1.1.3/Firmware_Software/DAVE project/S2GL_Doppler/Libraries/CMSIS/Include\core_cm0.h **** #elif defined ( __CSMC__ )
 112:C:/Users/±è°æ¹Î/Desktop/IFX_S2GL-HW-SW_V1.1.3/Firmware_Software/DAVE project/S2GL_Doppler/Libraries/CMSIS/Include\core_cm0.h ****   #define __packed
 113:C:/Users/±è°æ¹Î/Desktop/IFX_S2GL-HW-SW_V1.1.3/Firmware_Software/DAVE project/S2GL_Doppler/Libraries/CMSIS/Include\core_cm0.h ****   #define __ASM            _asm                                      /*!< asm keyword for COSMIC Co
 114:C:/Users/±è°æ¹Î/Desktop/IFX_S2GL-HW-SW_V1.1.3/Firmware_Software/DAVE project/S2GL_Doppler/Libraries/CMSIS/Include\core_cm0.h ****   #define __INLINE         inline                                    /*!< inline keyword for COSMIC
 115:C:/Users/±è°æ¹Î/Desktop/IFX_S2GL-HW-SW_V1.1.3/Firmware_Software/DAVE project/S2GL_Doppler/Libraries/CMSIS/Include\core_cm0.h ****   #define __STATIC_INLINE  static inline
 116:C:/Users/±è°æ¹Î/Desktop/IFX_S2GL-HW-SW_V1.1.3/Firmware_Software/DAVE project/S2GL_Doppler/Libraries/CMSIS/Include\core_cm0.h **** 
 117:C:/Users/±è°æ¹Î/Desktop/IFX_S2GL-HW-SW_V1.1.3/Firmware_Software/DAVE project/S2GL_Doppler/Libraries/CMSIS/Include\core_cm0.h **** #else
 118:C:/Users/±è°æ¹Î/Desktop/IFX_S2GL-HW-SW_V1.1.3/Firmware_Software/DAVE project/S2GL_Doppler/Libraries/CMSIS/Include\core_cm0.h ****   #error Unknown compiler
 119:C:/Users/±è°æ¹Î/Desktop/IFX_S2GL-HW-SW_V1.1.3/Firmware_Software/DAVE project/S2GL_Doppler/Libraries/CMSIS/Include\core_cm0.h **** #endif
 120:C:/Users/±è°æ¹Î/Desktop/IFX_S2GL-HW-SW_V1.1.3/Firmware_Software/DAVE project/S2GL_Doppler/Libraries/CMSIS/Include\core_cm0.h **** 
 121:C:/Users/±è°æ¹Î/Desktop/IFX_S2GL-HW-SW_V1.1.3/Firmware_Software/DAVE project/S2GL_Doppler/Libraries/CMSIS/Include\core_cm0.h **** /** __FPU_USED indicates whether an FPU is used or not.
 122:C:/Users/±è°æ¹Î/Desktop/IFX_S2GL-HW-SW_V1.1.3/Firmware_Software/DAVE project/S2GL_Doppler/Libraries/CMSIS/Include\core_cm0.h ****     This core does not support an FPU at all
 123:C:/Users/±è°æ¹Î/Desktop/IFX_S2GL-HW-SW_V1.1.3/Firmware_Software/DAVE project/S2GL_Doppler/Libraries/CMSIS/Include\core_cm0.h **** */
 124:C:/Users/±è°æ¹Î/Desktop/IFX_S2GL-HW-SW_V1.1.3/Firmware_Software/DAVE project/S2GL_Doppler/Libraries/CMSIS/Include\core_cm0.h **** #define __FPU_USED       0U
 125:C:/Users/±è°æ¹Î/Desktop/IFX_S2GL-HW-SW_V1.1.3/Firmware_Software/DAVE project/S2GL_Doppler/Libraries/CMSIS/Include\core_cm0.h **** 
 126:C:/Users/±è°æ¹Î/Desktop/IFX_S2GL-HW-SW_V1.1.3/Firmware_Software/DAVE project/S2GL_Doppler/Libraries/CMSIS/Include\core_cm0.h **** #if defined ( __CC_ARM )
 127:C:/Users/±è°æ¹Î/Desktop/IFX_S2GL-HW-SW_V1.1.3/Firmware_Software/DAVE project/S2GL_Doppler/Libraries/CMSIS/Include\core_cm0.h ****   #if defined __TARGET_FPU_VFP
 128:C:/Users/±è°æ¹Î/Desktop/IFX_S2GL-HW-SW_V1.1.3/Firmware_Software/DAVE project/S2GL_Doppler/Libraries/CMSIS/Include\core_cm0.h ****     #error "Compiler generates FPU instructions for a device without an FPU (check __FPU_PRESENT)"
 129:C:/Users/±è°æ¹Î/Desktop/IFX_S2GL-HW-SW_V1.1.3/Firmware_Software/DAVE project/S2GL_Doppler/Libraries/CMSIS/Include\core_cm0.h ****   #endif
 130:C:/Users/±è°æ¹Î/Desktop/IFX_S2GL-HW-SW_V1.1.3/Firmware_Software/DAVE project/S2GL_Doppler/Libraries/CMSIS/Include\core_cm0.h **** 
 131:C:/Users/±è°æ¹Î/Desktop/IFX_S2GL-HW-SW_V1.1.3/Firmware_Software/DAVE project/S2GL_Doppler/Libraries/CMSIS/Include\core_cm0.h **** #elif defined(__ARMCC_VERSION) && (__ARMCC_VERSION >= 6010050)
 132:C:/Users/±è°æ¹Î/Desktop/IFX_S2GL-HW-SW_V1.1.3/Firmware_Software/DAVE project/S2GL_Doppler/Libraries/CMSIS/Include\core_cm0.h ****   #if defined __ARM_PCS_VFP
 133:C:/Users/±è°æ¹Î/Desktop/IFX_S2GL-HW-SW_V1.1.3/Firmware_Software/DAVE project/S2GL_Doppler/Libraries/CMSIS/Include\core_cm0.h ****     #error "Compiler generates FPU instructions for a device without an FPU (check __FPU_PRESENT)"
 134:C:/Users/±è°æ¹Î/Desktop/IFX_S2GL-HW-SW_V1.1.3/Firmware_Software/DAVE project/S2GL_Doppler/Libraries/CMSIS/Include\core_cm0.h ****   #endif
 135:C:/Users/±è°æ¹Î/Desktop/IFX_S2GL-HW-SW_V1.1.3/Firmware_Software/DAVE project/S2GL_Doppler/Libraries/CMSIS/Include\core_cm0.h **** 
 136:C:/Users/±è°æ¹Î/Desktop/IFX_S2GL-HW-SW_V1.1.3/Firmware_Software/DAVE project/S2GL_Doppler/Libraries/CMSIS/Include\core_cm0.h **** #elif defined ( __GNUC__ )
 137:C:/Users/±è°æ¹Î/Desktop/IFX_S2GL-HW-SW_V1.1.3/Firmware_Software/DAVE project/S2GL_Doppler/Libraries/CMSIS/Include\core_cm0.h ****   #if defined (__VFP_FP__) && !defined(__SOFTFP__)
 138:C:/Users/±è°æ¹Î/Desktop/IFX_S2GL-HW-SW_V1.1.3/Firmware_Software/DAVE project/S2GL_Doppler/Libraries/CMSIS/Include\core_cm0.h ****     #error "Compiler generates FPU instructions for a device without an FPU (check __FPU_PRESENT)"
 139:C:/Users/±è°æ¹Î/Desktop/IFX_S2GL-HW-SW_V1.1.3/Firmware_Software/DAVE project/S2GL_Doppler/Libraries/CMSIS/Include\core_cm0.h ****   #endif
 140:C:/Users/±è°æ¹Î/Desktop/IFX_S2GL-HW-SW_V1.1.3/Firmware_Software/DAVE project/S2GL_Doppler/Libraries/CMSIS/Include\core_cm0.h **** 
 141:C:/Users/±è°æ¹Î/Desktop/IFX_S2GL-HW-SW_V1.1.3/Firmware_Software/DAVE project/S2GL_Doppler/Libraries/CMSIS/Include\core_cm0.h **** #elif defined ( __ICCARM__ )
 142:C:/Users/±è°æ¹Î/Desktop/IFX_S2GL-HW-SW_V1.1.3/Firmware_Software/DAVE project/S2GL_Doppler/Libraries/CMSIS/Include\core_cm0.h ****   #if defined __ARMVFP__
 143:C:/Users/±è°æ¹Î/Desktop/IFX_S2GL-HW-SW_V1.1.3/Firmware_Software/DAVE project/S2GL_Doppler/Libraries/CMSIS/Include\core_cm0.h ****     #error "Compiler generates FPU instructions for a device without an FPU (check __FPU_PRESENT)"
 144:C:/Users/±è°æ¹Î/Desktop/IFX_S2GL-HW-SW_V1.1.3/Firmware_Software/DAVE project/S2GL_Doppler/Libraries/CMSIS/Include\core_cm0.h ****   #endif
 145:C:/Users/±è°æ¹Î/Desktop/IFX_S2GL-HW-SW_V1.1.3/Firmware_Software/DAVE project/S2GL_Doppler/Libraries/CMSIS/Include\core_cm0.h **** 
 146:C:/Users/±è°æ¹Î/Desktop/IFX_S2GL-HW-SW_V1.1.3/Firmware_Software/DAVE project/S2GL_Doppler/Libraries/CMSIS/Include\core_cm0.h **** #elif defined ( __TMS470__ )
 147:C:/Users/±è°æ¹Î/Desktop/IFX_S2GL-HW-SW_V1.1.3/Firmware_Software/DAVE project/S2GL_Doppler/Libraries/CMSIS/Include\core_cm0.h ****   #if defined __TI_VFP_SUPPORT__
 148:C:/Users/±è°æ¹Î/Desktop/IFX_S2GL-HW-SW_V1.1.3/Firmware_Software/DAVE project/S2GL_Doppler/Libraries/CMSIS/Include\core_cm0.h ****     #error "Compiler generates FPU instructions for a device without an FPU (check __FPU_PRESENT)"
 149:C:/Users/±è°æ¹Î/Desktop/IFX_S2GL-HW-SW_V1.1.3/Firmware_Software/DAVE project/S2GL_Doppler/Libraries/CMSIS/Include\core_cm0.h ****   #endif
 150:C:/Users/±è°æ¹Î/Desktop/IFX_S2GL-HW-SW_V1.1.3/Firmware_Software/DAVE project/S2GL_Doppler/Libraries/CMSIS/Include\core_cm0.h **** 
 151:C:/Users/±è°æ¹Î/Desktop/IFX_S2GL-HW-SW_V1.1.3/Firmware_Software/DAVE project/S2GL_Doppler/Libraries/CMSIS/Include\core_cm0.h **** #elif defined ( __TASKING__ )
 152:C:/Users/±è°æ¹Î/Desktop/IFX_S2GL-HW-SW_V1.1.3/Firmware_Software/DAVE project/S2GL_Doppler/Libraries/CMSIS/Include\core_cm0.h ****   #if defined __FPU_VFP__
 153:C:/Users/±è°æ¹Î/Desktop/IFX_S2GL-HW-SW_V1.1.3/Firmware_Software/DAVE project/S2GL_Doppler/Libraries/CMSIS/Include\core_cm0.h ****     #error "Compiler generates FPU instructions for a device without an FPU (check __FPU_PRESENT)"
 154:C:/Users/±è°æ¹Î/Desktop/IFX_S2GL-HW-SW_V1.1.3/Firmware_Software/DAVE project/S2GL_Doppler/Libraries/CMSIS/Include\core_cm0.h ****   #endif
 155:C:/Users/±è°æ¹Î/Desktop/IFX_S2GL-HW-SW_V1.1.3/Firmware_Software/DAVE project/S2GL_Doppler/Libraries/CMSIS/Include\core_cm0.h **** 
 156:C:/Users/±è°æ¹Î/Desktop/IFX_S2GL-HW-SW_V1.1.3/Firmware_Software/DAVE project/S2GL_Doppler/Libraries/CMSIS/Include\core_cm0.h **** #elif defined ( __CSMC__ )
 157:C:/Users/±è°æ¹Î/Desktop/IFX_S2GL-HW-SW_V1.1.3/Firmware_Software/DAVE project/S2GL_Doppler/Libraries/CMSIS/Include\core_cm0.h ****   #if ( __CSMC__ & 0x400U)
 158:C:/Users/±è°æ¹Î/Desktop/IFX_S2GL-HW-SW_V1.1.3/Firmware_Software/DAVE project/S2GL_Doppler/Libraries/CMSIS/Include\core_cm0.h ****     #error "Compiler generates FPU instructions for a device without an FPU (check __FPU_PRESENT)"
 159:C:/Users/±è°æ¹Î/Desktop/IFX_S2GL-HW-SW_V1.1.3/Firmware_Software/DAVE project/S2GL_Doppler/Libraries/CMSIS/Include\core_cm0.h ****   #endif
 160:C:/Users/±è°æ¹Î/Desktop/IFX_S2GL-HW-SW_V1.1.3/Firmware_Software/DAVE project/S2GL_Doppler/Libraries/CMSIS/Include\core_cm0.h **** 
 161:C:/Users/±è°æ¹Î/Desktop/IFX_S2GL-HW-SW_V1.1.3/Firmware_Software/DAVE project/S2GL_Doppler/Libraries/CMSIS/Include\core_cm0.h **** #endif
 162:C:/Users/±è°æ¹Î/Desktop/IFX_S2GL-HW-SW_V1.1.3/Firmware_Software/DAVE project/S2GL_Doppler/Libraries/CMSIS/Include\core_cm0.h **** 
 163:C:/Users/±è°æ¹Î/Desktop/IFX_S2GL-HW-SW_V1.1.3/Firmware_Software/DAVE project/S2GL_Doppler/Libraries/CMSIS/Include\core_cm0.h **** #include "core_cmInstr.h"                /* Core Instruction Access */
 164:C:/Users/±è°æ¹Î/Desktop/IFX_S2GL-HW-SW_V1.1.3/Firmware_Software/DAVE project/S2GL_Doppler/Libraries/CMSIS/Include\core_cm0.h **** #include "core_cmFunc.h"                 /* Core Function Access */
 165:C:/Users/±è°æ¹Î/Desktop/IFX_S2GL-HW-SW_V1.1.3/Firmware_Software/DAVE project/S2GL_Doppler/Libraries/CMSIS/Include\core_cm0.h **** 
 166:C:/Users/±è°æ¹Î/Desktop/IFX_S2GL-HW-SW_V1.1.3/Firmware_Software/DAVE project/S2GL_Doppler/Libraries/CMSIS/Include\core_cm0.h **** #ifdef __cplusplus
 167:C:/Users/±è°æ¹Î/Desktop/IFX_S2GL-HW-SW_V1.1.3/Firmware_Software/DAVE project/S2GL_Doppler/Libraries/CMSIS/Include\core_cm0.h **** }
 168:C:/Users/±è°æ¹Î/Desktop/IFX_S2GL-HW-SW_V1.1.3/Firmware_Software/DAVE project/S2GL_Doppler/Libraries/CMSIS/Include\core_cm0.h **** #endif
 169:C:/Users/±è°æ¹Î/Desktop/IFX_S2GL-HW-SW_V1.1.3/Firmware_Software/DAVE project/S2GL_Doppler/Libraries/CMSIS/Include\core_cm0.h **** 
 170:C:/Users/±è°æ¹Î/Desktop/IFX_S2GL-HW-SW_V1.1.3/Firmware_Software/DAVE project/S2GL_Doppler/Libraries/CMSIS/Include\core_cm0.h **** #endif /* __CORE_CM0_H_GENERIC */
 171:C:/Users/±è°æ¹Î/Desktop/IFX_S2GL-HW-SW_V1.1.3/Firmware_Software/DAVE project/S2GL_Doppler/Libraries/CMSIS/Include\core_cm0.h **** 
 172:C:/Users/±è°æ¹Î/Desktop/IFX_S2GL-HW-SW_V1.1.3/Firmware_Software/DAVE project/S2GL_Doppler/Libraries/CMSIS/Include\core_cm0.h **** #ifndef __CMSIS_GENERIC
 173:C:/Users/±è°æ¹Î/Desktop/IFX_S2GL-HW-SW_V1.1.3/Firmware_Software/DAVE project/S2GL_Doppler/Libraries/CMSIS/Include\core_cm0.h **** 
 174:C:/Users/±è°æ¹Î/Desktop/IFX_S2GL-HW-SW_V1.1.3/Firmware_Software/DAVE project/S2GL_Doppler/Libraries/CMSIS/Include\core_cm0.h **** #ifndef __CORE_CM0_H_DEPENDANT
 175:C:/Users/±è°æ¹Î/Desktop/IFX_S2GL-HW-SW_V1.1.3/Firmware_Software/DAVE project/S2GL_Doppler/Libraries/CMSIS/Include\core_cm0.h **** #define __CORE_CM0_H_DEPENDANT
 176:C:/Users/±è°æ¹Î/Desktop/IFX_S2GL-HW-SW_V1.1.3/Firmware_Software/DAVE project/S2GL_Doppler/Libraries/CMSIS/Include\core_cm0.h **** 
 177:C:/Users/±è°æ¹Î/Desktop/IFX_S2GL-HW-SW_V1.1.3/Firmware_Software/DAVE project/S2GL_Doppler/Libraries/CMSIS/Include\core_cm0.h **** #ifdef __cplusplus
 178:C:/Users/±è°æ¹Î/Desktop/IFX_S2GL-HW-SW_V1.1.3/Firmware_Software/DAVE project/S2GL_Doppler/Libraries/CMSIS/Include\core_cm0.h ****  extern "C" {
 179:C:/Users/±è°æ¹Î/Desktop/IFX_S2GL-HW-SW_V1.1.3/Firmware_Software/DAVE project/S2GL_Doppler/Libraries/CMSIS/Include\core_cm0.h **** #endif
 180:C:/Users/±è°æ¹Î/Desktop/IFX_S2GL-HW-SW_V1.1.3/Firmware_Software/DAVE project/S2GL_Doppler/Libraries/CMSIS/Include\core_cm0.h **** 
 181:C:/Users/±è°æ¹Î/Desktop/IFX_S2GL-HW-SW_V1.1.3/Firmware_Software/DAVE project/S2GL_Doppler/Libraries/CMSIS/Include\core_cm0.h **** /* check device defines and use defaults */
 182:C:/Users/±è°æ¹Î/Desktop/IFX_S2GL-HW-SW_V1.1.3/Firmware_Software/DAVE project/S2GL_Doppler/Libraries/CMSIS/Include\core_cm0.h **** #if defined __CHECK_DEVICE_DEFINES
 183:C:/Users/±è°æ¹Î/Desktop/IFX_S2GL-HW-SW_V1.1.3/Firmware_Software/DAVE project/S2GL_Doppler/Libraries/CMSIS/Include\core_cm0.h ****   #ifndef __CM0_REV
 184:C:/Users/±è°æ¹Î/Desktop/IFX_S2GL-HW-SW_V1.1.3/Firmware_Software/DAVE project/S2GL_Doppler/Libraries/CMSIS/Include\core_cm0.h ****     #define __CM0_REV               0x0000U
 185:C:/Users/±è°æ¹Î/Desktop/IFX_S2GL-HW-SW_V1.1.3/Firmware_Software/DAVE project/S2GL_Doppler/Libraries/CMSIS/Include\core_cm0.h ****     #warning "__CM0_REV not defined in device header file; using default!"
 186:C:/Users/±è°æ¹Î/Desktop/IFX_S2GL-HW-SW_V1.1.3/Firmware_Software/DAVE project/S2GL_Doppler/Libraries/CMSIS/Include\core_cm0.h ****   #endif
 187:C:/Users/±è°æ¹Î/Desktop/IFX_S2GL-HW-SW_V1.1.3/Firmware_Software/DAVE project/S2GL_Doppler/Libraries/CMSIS/Include\core_cm0.h **** 
 188:C:/Users/±è°æ¹Î/Desktop/IFX_S2GL-HW-SW_V1.1.3/Firmware_Software/DAVE project/S2GL_Doppler/Libraries/CMSIS/Include\core_cm0.h ****   #ifndef __NVIC_PRIO_BITS
 189:C:/Users/±è°æ¹Î/Desktop/IFX_S2GL-HW-SW_V1.1.3/Firmware_Software/DAVE project/S2GL_Doppler/Libraries/CMSIS/Include\core_cm0.h ****     #define __NVIC_PRIO_BITS          2U
 190:C:/Users/±è°æ¹Î/Desktop/IFX_S2GL-HW-SW_V1.1.3/Firmware_Software/DAVE project/S2GL_Doppler/Libraries/CMSIS/Include\core_cm0.h ****     #warning "__NVIC_PRIO_BITS not defined in device header file; using default!"
 191:C:/Users/±è°æ¹Î/Desktop/IFX_S2GL-HW-SW_V1.1.3/Firmware_Software/DAVE project/S2GL_Doppler/Libraries/CMSIS/Include\core_cm0.h ****   #endif
 192:C:/Users/±è°æ¹Î/Desktop/IFX_S2GL-HW-SW_V1.1.3/Firmware_Software/DAVE project/S2GL_Doppler/Libraries/CMSIS/Include\core_cm0.h **** 
 193:C:/Users/±è°æ¹Î/Desktop/IFX_S2GL-HW-SW_V1.1.3/Firmware_Software/DAVE project/S2GL_Doppler/Libraries/CMSIS/Include\core_cm0.h ****   #ifndef __Vendor_SysTickConfig
 194:C:/Users/±è°æ¹Î/Desktop/IFX_S2GL-HW-SW_V1.1.3/Firmware_Software/DAVE project/S2GL_Doppler/Libraries/CMSIS/Include\core_cm0.h ****     #define __Vendor_SysTickConfig    0U
 195:C:/Users/±è°æ¹Î/Desktop/IFX_S2GL-HW-SW_V1.1.3/Firmware_Software/DAVE project/S2GL_Doppler/Libraries/CMSIS/Include\core_cm0.h ****     #warning "__Vendor_SysTickConfig not defined in device header file; using default!"
 196:C:/Users/±è°æ¹Î/Desktop/IFX_S2GL-HW-SW_V1.1.3/Firmware_Software/DAVE project/S2GL_Doppler/Libraries/CMSIS/Include\core_cm0.h ****   #endif
 197:C:/Users/±è°æ¹Î/Desktop/IFX_S2GL-HW-SW_V1.1.3/Firmware_Software/DAVE project/S2GL_Doppler/Libraries/CMSIS/Include\core_cm0.h **** #endif
 198:C:/Users/±è°æ¹Î/Desktop/IFX_S2GL-HW-SW_V1.1.3/Firmware_Software/DAVE project/S2GL_Doppler/Libraries/CMSIS/Include\core_cm0.h **** 
 199:C:/Users/±è°æ¹Î/Desktop/IFX_S2GL-HW-SW_V1.1.3/Firmware_Software/DAVE project/S2GL_Doppler/Libraries/CMSIS/Include\core_cm0.h **** /* IO definitions (access restrictions to peripheral registers) */
 200:C:/Users/±è°æ¹Î/Desktop/IFX_S2GL-HW-SW_V1.1.3/Firmware_Software/DAVE project/S2GL_Doppler/Libraries/CMSIS/Include\core_cm0.h **** /**
 201:C:/Users/±è°æ¹Î/Desktop/IFX_S2GL-HW-SW_V1.1.3/Firmware_Software/DAVE project/S2GL_Doppler/Libraries/CMSIS/Include\core_cm0.h ****     \defgroup CMSIS_glob_defs CMSIS Global Defines
 202:C:/Users/±è°æ¹Î/Desktop/IFX_S2GL-HW-SW_V1.1.3/Firmware_Software/DAVE project/S2GL_Doppler/Libraries/CMSIS/Include\core_cm0.h **** 
 203:C:/Users/±è°æ¹Î/Desktop/IFX_S2GL-HW-SW_V1.1.3/Firmware_Software/DAVE project/S2GL_Doppler/Libraries/CMSIS/Include\core_cm0.h ****     <strong>IO Type Qualifiers</strong> are used
 204:C:/Users/±è°æ¹Î/Desktop/IFX_S2GL-HW-SW_V1.1.3/Firmware_Software/DAVE project/S2GL_Doppler/Libraries/CMSIS/Include\core_cm0.h ****     \li to specify the access to peripheral variables.
 205:C:/Users/±è°æ¹Î/Desktop/IFX_S2GL-HW-SW_V1.1.3/Firmware_Software/DAVE project/S2GL_Doppler/Libraries/CMSIS/Include\core_cm0.h ****     \li for automatic generation of peripheral register debug information.
 206:C:/Users/±è°æ¹Î/Desktop/IFX_S2GL-HW-SW_V1.1.3/Firmware_Software/DAVE project/S2GL_Doppler/Libraries/CMSIS/Include\core_cm0.h **** */
 207:C:/Users/±è°æ¹Î/Desktop/IFX_S2GL-HW-SW_V1.1.3/Firmware_Software/DAVE project/S2GL_Doppler/Libraries/CMSIS/Include\core_cm0.h **** #ifdef __cplusplus
 208:C:/Users/±è°æ¹Î/Desktop/IFX_S2GL-HW-SW_V1.1.3/Firmware_Software/DAVE project/S2GL_Doppler/Libraries/CMSIS/Include\core_cm0.h ****   #define   __I     volatile             /*!< Defines 'read only' permissions */
 209:C:/Users/±è°æ¹Î/Desktop/IFX_S2GL-HW-SW_V1.1.3/Firmware_Software/DAVE project/S2GL_Doppler/Libraries/CMSIS/Include\core_cm0.h **** #else
 210:C:/Users/±è°æ¹Î/Desktop/IFX_S2GL-HW-SW_V1.1.3/Firmware_Software/DAVE project/S2GL_Doppler/Libraries/CMSIS/Include\core_cm0.h ****   #define   __I     volatile const       /*!< Defines 'read only' permissions */
 211:C:/Users/±è°æ¹Î/Desktop/IFX_S2GL-HW-SW_V1.1.3/Firmware_Software/DAVE project/S2GL_Doppler/Libraries/CMSIS/Include\core_cm0.h **** #endif
 212:C:/Users/±è°æ¹Î/Desktop/IFX_S2GL-HW-SW_V1.1.3/Firmware_Software/DAVE project/S2GL_Doppler/Libraries/CMSIS/Include\core_cm0.h **** #define     __O     volatile             /*!< Defines 'write only' permissions */
 213:C:/Users/±è°æ¹Î/Desktop/IFX_S2GL-HW-SW_V1.1.3/Firmware_Software/DAVE project/S2GL_Doppler/Libraries/CMSIS/Include\core_cm0.h **** #define     __IO    volatile             /*!< Defines 'read / write' permissions */
 214:C:/Users/±è°æ¹Î/Desktop/IFX_S2GL-HW-SW_V1.1.3/Firmware_Software/DAVE project/S2GL_Doppler/Libraries/CMSIS/Include\core_cm0.h **** 
 215:C:/Users/±è°æ¹Î/Desktop/IFX_S2GL-HW-SW_V1.1.3/Firmware_Software/DAVE project/S2GL_Doppler/Libraries/CMSIS/Include\core_cm0.h **** /* following defines should be used for structure members */
 216:C:/Users/±è°æ¹Î/Desktop/IFX_S2GL-HW-SW_V1.1.3/Firmware_Software/DAVE project/S2GL_Doppler/Libraries/CMSIS/Include\core_cm0.h **** #define     __IM     volatile const      /*! Defines 'read only' structure member permissions */
 217:C:/Users/±è°æ¹Î/Desktop/IFX_S2GL-HW-SW_V1.1.3/Firmware_Software/DAVE project/S2GL_Doppler/Libraries/CMSIS/Include\core_cm0.h **** #define     __OM     volatile            /*! Defines 'write only' structure member permissions */
 218:C:/Users/±è°æ¹Î/Desktop/IFX_S2GL-HW-SW_V1.1.3/Firmware_Software/DAVE project/S2GL_Doppler/Libraries/CMSIS/Include\core_cm0.h **** #define     __IOM    volatile            /*! Defines 'read / write' structure member permissions */
 219:C:/Users/±è°æ¹Î/Desktop/IFX_S2GL-HW-SW_V1.1.3/Firmware_Software/DAVE project/S2GL_Doppler/Libraries/CMSIS/Include\core_cm0.h **** 
 220:C:/Users/±è°æ¹Î/Desktop/IFX_S2GL-HW-SW_V1.1.3/Firmware_Software/DAVE project/S2GL_Doppler/Libraries/CMSIS/Include\core_cm0.h **** /*@} end of group Cortex_M0 */
 221:C:/Users/±è°æ¹Î/Desktop/IFX_S2GL-HW-SW_V1.1.3/Firmware_Software/DAVE project/S2GL_Doppler/Libraries/CMSIS/Include\core_cm0.h **** 
 222:C:/Users/±è°æ¹Î/Desktop/IFX_S2GL-HW-SW_V1.1.3/Firmware_Software/DAVE project/S2GL_Doppler/Libraries/CMSIS/Include\core_cm0.h **** 
 223:C:/Users/±è°æ¹Î/Desktop/IFX_S2GL-HW-SW_V1.1.3/Firmware_Software/DAVE project/S2GL_Doppler/Libraries/CMSIS/Include\core_cm0.h **** 
 224:C:/Users/±è°æ¹Î/Desktop/IFX_S2GL-HW-SW_V1.1.3/Firmware_Software/DAVE project/S2GL_Doppler/Libraries/CMSIS/Include\core_cm0.h **** /*******************************************************************************
 225:C:/Users/±è°æ¹Î/Desktop/IFX_S2GL-HW-SW_V1.1.3/Firmware_Software/DAVE project/S2GL_Doppler/Libraries/CMSIS/Include\core_cm0.h ****  *                 Register Abstraction
 226:C:/Users/±è°æ¹Î/Desktop/IFX_S2GL-HW-SW_V1.1.3/Firmware_Software/DAVE project/S2GL_Doppler/Libraries/CMSIS/Include\core_cm0.h ****   Core Register contain:
 227:C:/Users/±è°æ¹Î/Desktop/IFX_S2GL-HW-SW_V1.1.3/Firmware_Software/DAVE project/S2GL_Doppler/Libraries/CMSIS/Include\core_cm0.h ****   - Core Register
 228:C:/Users/±è°æ¹Î/Desktop/IFX_S2GL-HW-SW_V1.1.3/Firmware_Software/DAVE project/S2GL_Doppler/Libraries/CMSIS/Include\core_cm0.h ****   - Core NVIC Register
 229:C:/Users/±è°æ¹Î/Desktop/IFX_S2GL-HW-SW_V1.1.3/Firmware_Software/DAVE project/S2GL_Doppler/Libraries/CMSIS/Include\core_cm0.h ****   - Core SCB Register
 230:C:/Users/±è°æ¹Î/Desktop/IFX_S2GL-HW-SW_V1.1.3/Firmware_Software/DAVE project/S2GL_Doppler/Libraries/CMSIS/Include\core_cm0.h ****   - Core SysTick Register
 231:C:/Users/±è°æ¹Î/Desktop/IFX_S2GL-HW-SW_V1.1.3/Firmware_Software/DAVE project/S2GL_Doppler/Libraries/CMSIS/Include\core_cm0.h ****  ******************************************************************************/
 232:C:/Users/±è°æ¹Î/Desktop/IFX_S2GL-HW-SW_V1.1.3/Firmware_Software/DAVE project/S2GL_Doppler/Libraries/CMSIS/Include\core_cm0.h **** /**
 233:C:/Users/±è°æ¹Î/Desktop/IFX_S2GL-HW-SW_V1.1.3/Firmware_Software/DAVE project/S2GL_Doppler/Libraries/CMSIS/Include\core_cm0.h ****   \defgroup CMSIS_core_register Defines and Type Definitions
 234:C:/Users/±è°æ¹Î/Desktop/IFX_S2GL-HW-SW_V1.1.3/Firmware_Software/DAVE project/S2GL_Doppler/Libraries/CMSIS/Include\core_cm0.h ****   \brief Type definitions and defines for Cortex-M processor based devices.
 235:C:/Users/±è°æ¹Î/Desktop/IFX_S2GL-HW-SW_V1.1.3/Firmware_Software/DAVE project/S2GL_Doppler/Libraries/CMSIS/Include\core_cm0.h **** */
 236:C:/Users/±è°æ¹Î/Desktop/IFX_S2GL-HW-SW_V1.1.3/Firmware_Software/DAVE project/S2GL_Doppler/Libraries/CMSIS/Include\core_cm0.h **** 
 237:C:/Users/±è°æ¹Î/Desktop/IFX_S2GL-HW-SW_V1.1.3/Firmware_Software/DAVE project/S2GL_Doppler/Libraries/CMSIS/Include\core_cm0.h **** /**
 238:C:/Users/±è°æ¹Î/Desktop/IFX_S2GL-HW-SW_V1.1.3/Firmware_Software/DAVE project/S2GL_Doppler/Libraries/CMSIS/Include\core_cm0.h ****   \ingroup    CMSIS_core_register
 239:C:/Users/±è°æ¹Î/Desktop/IFX_S2GL-HW-SW_V1.1.3/Firmware_Software/DAVE project/S2GL_Doppler/Libraries/CMSIS/Include\core_cm0.h ****   \defgroup   CMSIS_CORE  Status and Control Registers
 240:C:/Users/±è°æ¹Î/Desktop/IFX_S2GL-HW-SW_V1.1.3/Firmware_Software/DAVE project/S2GL_Doppler/Libraries/CMSIS/Include\core_cm0.h ****   \brief      Core Register type definitions.
 241:C:/Users/±è°æ¹Î/Desktop/IFX_S2GL-HW-SW_V1.1.3/Firmware_Software/DAVE project/S2GL_Doppler/Libraries/CMSIS/Include\core_cm0.h ****   @{
 242:C:/Users/±è°æ¹Î/Desktop/IFX_S2GL-HW-SW_V1.1.3/Firmware_Software/DAVE project/S2GL_Doppler/Libraries/CMSIS/Include\core_cm0.h ****  */
 243:C:/Users/±è°æ¹Î/Desktop/IFX_S2GL-HW-SW_V1.1.3/Firmware_Software/DAVE project/S2GL_Doppler/Libraries/CMSIS/Include\core_cm0.h **** 
 244:C:/Users/±è°æ¹Î/Desktop/IFX_S2GL-HW-SW_V1.1.3/Firmware_Software/DAVE project/S2GL_Doppler/Libraries/CMSIS/Include\core_cm0.h **** /**
 245:C:/Users/±è°æ¹Î/Desktop/IFX_S2GL-HW-SW_V1.1.3/Firmware_Software/DAVE project/S2GL_Doppler/Libraries/CMSIS/Include\core_cm0.h ****   \brief  Union type to access the Application Program Status Register (APSR).
 246:C:/Users/±è°æ¹Î/Desktop/IFX_S2GL-HW-SW_V1.1.3/Firmware_Software/DAVE project/S2GL_Doppler/Libraries/CMSIS/Include\core_cm0.h ****  */
 247:C:/Users/±è°æ¹Î/Desktop/IFX_S2GL-HW-SW_V1.1.3/Firmware_Software/DAVE project/S2GL_Doppler/Libraries/CMSIS/Include\core_cm0.h **** typedef union
 248:C:/Users/±è°æ¹Î/Desktop/IFX_S2GL-HW-SW_V1.1.3/Firmware_Software/DAVE project/S2GL_Doppler/Libraries/CMSIS/Include\core_cm0.h **** {
 249:C:/Users/±è°æ¹Î/Desktop/IFX_S2GL-HW-SW_V1.1.3/Firmware_Software/DAVE project/S2GL_Doppler/Libraries/CMSIS/Include\core_cm0.h ****   struct
 250:C:/Users/±è°æ¹Î/Desktop/IFX_S2GL-HW-SW_V1.1.3/Firmware_Software/DAVE project/S2GL_Doppler/Libraries/CMSIS/Include\core_cm0.h ****   {
 251:C:/Users/±è°æ¹Î/Desktop/IFX_S2GL-HW-SW_V1.1.3/Firmware_Software/DAVE project/S2GL_Doppler/Libraries/CMSIS/Include\core_cm0.h ****     uint32_t _reserved0:28;              /*!< bit:  0..27  Reserved */
 252:C:/Users/±è°æ¹Î/Desktop/IFX_S2GL-HW-SW_V1.1.3/Firmware_Software/DAVE project/S2GL_Doppler/Libraries/CMSIS/Include\core_cm0.h ****     uint32_t V:1;                        /*!< bit:     28  Overflow condition code flag */
 253:C:/Users/±è°æ¹Î/Desktop/IFX_S2GL-HW-SW_V1.1.3/Firmware_Software/DAVE project/S2GL_Doppler/Libraries/CMSIS/Include\core_cm0.h ****     uint32_t C:1;                        /*!< bit:     29  Carry condition code flag */
 254:C:/Users/±è°æ¹Î/Desktop/IFX_S2GL-HW-SW_V1.1.3/Firmware_Software/DAVE project/S2GL_Doppler/Libraries/CMSIS/Include\core_cm0.h ****     uint32_t Z:1;                        /*!< bit:     30  Zero condition code flag */
 255:C:/Users/±è°æ¹Î/Desktop/IFX_S2GL-HW-SW_V1.1.3/Firmware_Software/DAVE project/S2GL_Doppler/Libraries/CMSIS/Include\core_cm0.h ****     uint32_t N:1;                        /*!< bit:     31  Negative condition code flag */
 256:C:/Users/±è°æ¹Î/Desktop/IFX_S2GL-HW-SW_V1.1.3/Firmware_Software/DAVE project/S2GL_Doppler/Libraries/CMSIS/Include\core_cm0.h ****   } b;                                   /*!< Structure used for bit  access */
 257:C:/Users/±è°æ¹Î/Desktop/IFX_S2GL-HW-SW_V1.1.3/Firmware_Software/DAVE project/S2GL_Doppler/Libraries/CMSIS/Include\core_cm0.h ****   uint32_t w;                            /*!< Type      used for word access */
 258:C:/Users/±è°æ¹Î/Desktop/IFX_S2GL-HW-SW_V1.1.3/Firmware_Software/DAVE project/S2GL_Doppler/Libraries/CMSIS/Include\core_cm0.h **** } APSR_Type;
 259:C:/Users/±è°æ¹Î/Desktop/IFX_S2GL-HW-SW_V1.1.3/Firmware_Software/DAVE project/S2GL_Doppler/Libraries/CMSIS/Include\core_cm0.h **** 
 260:C:/Users/±è°æ¹Î/Desktop/IFX_S2GL-HW-SW_V1.1.3/Firmware_Software/DAVE project/S2GL_Doppler/Libraries/CMSIS/Include\core_cm0.h **** /* APSR Register Definitions */
 261:C:/Users/±è°æ¹Î/Desktop/IFX_S2GL-HW-SW_V1.1.3/Firmware_Software/DAVE project/S2GL_Doppler/Libraries/CMSIS/Include\core_cm0.h **** #define APSR_N_Pos                         31U                                            /*!< APSR
 262:C:/Users/±è°æ¹Î/Desktop/IFX_S2GL-HW-SW_V1.1.3/Firmware_Software/DAVE project/S2GL_Doppler/Libraries/CMSIS/Include\core_cm0.h **** #define APSR_N_Msk                         (1UL << APSR_N_Pos)                            /*!< APSR
 263:C:/Users/±è°æ¹Î/Desktop/IFX_S2GL-HW-SW_V1.1.3/Firmware_Software/DAVE project/S2GL_Doppler/Libraries/CMSIS/Include\core_cm0.h **** 
 264:C:/Users/±è°æ¹Î/Desktop/IFX_S2GL-HW-SW_V1.1.3/Firmware_Software/DAVE project/S2GL_Doppler/Libraries/CMSIS/Include\core_cm0.h **** #define APSR_Z_Pos                         30U                                            /*!< APSR
 265:C:/Users/±è°æ¹Î/Desktop/IFX_S2GL-HW-SW_V1.1.3/Firmware_Software/DAVE project/S2GL_Doppler/Libraries/CMSIS/Include\core_cm0.h **** #define APSR_Z_Msk                         (1UL << APSR_Z_Pos)                            /*!< APSR
 266:C:/Users/±è°æ¹Î/Desktop/IFX_S2GL-HW-SW_V1.1.3/Firmware_Software/DAVE project/S2GL_Doppler/Libraries/CMSIS/Include\core_cm0.h **** 
 267:C:/Users/±è°æ¹Î/Desktop/IFX_S2GL-HW-SW_V1.1.3/Firmware_Software/DAVE project/S2GL_Doppler/Libraries/CMSIS/Include\core_cm0.h **** #define APSR_C_Pos                         29U                                            /*!< APSR
 268:C:/Users/±è°æ¹Î/Desktop/IFX_S2GL-HW-SW_V1.1.3/Firmware_Software/DAVE project/S2GL_Doppler/Libraries/CMSIS/Include\core_cm0.h **** #define APSR_C_Msk                         (1UL << APSR_C_Pos)                            /*!< APSR
 269:C:/Users/±è°æ¹Î/Desktop/IFX_S2GL-HW-SW_V1.1.3/Firmware_Software/DAVE project/S2GL_Doppler/Libraries/CMSIS/Include\core_cm0.h **** 
 270:C:/Users/±è°æ¹Î/Desktop/IFX_S2GL-HW-SW_V1.1.3/Firmware_Software/DAVE project/S2GL_Doppler/Libraries/CMSIS/Include\core_cm0.h **** #define APSR_V_Pos                         28U                                            /*!< APSR
 271:C:/Users/±è°æ¹Î/Desktop/IFX_S2GL-HW-SW_V1.1.3/Firmware_Software/DAVE project/S2GL_Doppler/Libraries/CMSIS/Include\core_cm0.h **** #define APSR_V_Msk                         (1UL << APSR_V_Pos)                            /*!< APSR
 272:C:/Users/±è°æ¹Î/Desktop/IFX_S2GL-HW-SW_V1.1.3/Firmware_Software/DAVE project/S2GL_Doppler/Libraries/CMSIS/Include\core_cm0.h **** 
 273:C:/Users/±è°æ¹Î/Desktop/IFX_S2GL-HW-SW_V1.1.3/Firmware_Software/DAVE project/S2GL_Doppler/Libraries/CMSIS/Include\core_cm0.h **** 
 274:C:/Users/±è°æ¹Î/Desktop/IFX_S2GL-HW-SW_V1.1.3/Firmware_Software/DAVE project/S2GL_Doppler/Libraries/CMSIS/Include\core_cm0.h **** /**
 275:C:/Users/±è°æ¹Î/Desktop/IFX_S2GL-HW-SW_V1.1.3/Firmware_Software/DAVE project/S2GL_Doppler/Libraries/CMSIS/Include\core_cm0.h ****   \brief  Union type to access the Interrupt Program Status Register (IPSR).
 276:C:/Users/±è°æ¹Î/Desktop/IFX_S2GL-HW-SW_V1.1.3/Firmware_Software/DAVE project/S2GL_Doppler/Libraries/CMSIS/Include\core_cm0.h ****  */
 277:C:/Users/±è°æ¹Î/Desktop/IFX_S2GL-HW-SW_V1.1.3/Firmware_Software/DAVE project/S2GL_Doppler/Libraries/CMSIS/Include\core_cm0.h **** typedef union
 278:C:/Users/±è°æ¹Î/Desktop/IFX_S2GL-HW-SW_V1.1.3/Firmware_Software/DAVE project/S2GL_Doppler/Libraries/CMSIS/Include\core_cm0.h **** {
 279:C:/Users/±è°æ¹Î/Desktop/IFX_S2GL-HW-SW_V1.1.3/Firmware_Software/DAVE project/S2GL_Doppler/Libraries/CMSIS/Include\core_cm0.h ****   struct
 280:C:/Users/±è°æ¹Î/Desktop/IFX_S2GL-HW-SW_V1.1.3/Firmware_Software/DAVE project/S2GL_Doppler/Libraries/CMSIS/Include\core_cm0.h ****   {
 281:C:/Users/±è°æ¹Î/Desktop/IFX_S2GL-HW-SW_V1.1.3/Firmware_Software/DAVE project/S2GL_Doppler/Libraries/CMSIS/Include\core_cm0.h ****     uint32_t ISR:9;                      /*!< bit:  0.. 8  Exception number */
 282:C:/Users/±è°æ¹Î/Desktop/IFX_S2GL-HW-SW_V1.1.3/Firmware_Software/DAVE project/S2GL_Doppler/Libraries/CMSIS/Include\core_cm0.h ****     uint32_t _reserved0:23;              /*!< bit:  9..31  Reserved */
 283:C:/Users/±è°æ¹Î/Desktop/IFX_S2GL-HW-SW_V1.1.3/Firmware_Software/DAVE project/S2GL_Doppler/Libraries/CMSIS/Include\core_cm0.h ****   } b;                                   /*!< Structure used for bit  access */
 284:C:/Users/±è°æ¹Î/Desktop/IFX_S2GL-HW-SW_V1.1.3/Firmware_Software/DAVE project/S2GL_Doppler/Libraries/CMSIS/Include\core_cm0.h ****   uint32_t w;                            /*!< Type      used for word access */
 285:C:/Users/±è°æ¹Î/Desktop/IFX_S2GL-HW-SW_V1.1.3/Firmware_Software/DAVE project/S2GL_Doppler/Libraries/CMSIS/Include\core_cm0.h **** } IPSR_Type;
 286:C:/Users/±è°æ¹Î/Desktop/IFX_S2GL-HW-SW_V1.1.3/Firmware_Software/DAVE project/S2GL_Doppler/Libraries/CMSIS/Include\core_cm0.h **** 
 287:C:/Users/±è°æ¹Î/Desktop/IFX_S2GL-HW-SW_V1.1.3/Firmware_Software/DAVE project/S2GL_Doppler/Libraries/CMSIS/Include\core_cm0.h **** /* IPSR Register Definitions */
 288:C:/Users/±è°æ¹Î/Desktop/IFX_S2GL-HW-SW_V1.1.3/Firmware_Software/DAVE project/S2GL_Doppler/Libraries/CMSIS/Include\core_cm0.h **** #define IPSR_ISR_Pos                        0U                                            /*!< IPSR
 289:C:/Users/±è°æ¹Î/Desktop/IFX_S2GL-HW-SW_V1.1.3/Firmware_Software/DAVE project/S2GL_Doppler/Libraries/CMSIS/Include\core_cm0.h **** #define IPSR_ISR_Msk                       (0x1FFUL /*<< IPSR_ISR_Pos*/)                  /*!< IPSR
 290:C:/Users/±è°æ¹Î/Desktop/IFX_S2GL-HW-SW_V1.1.3/Firmware_Software/DAVE project/S2GL_Doppler/Libraries/CMSIS/Include\core_cm0.h **** 
 291:C:/Users/±è°æ¹Î/Desktop/IFX_S2GL-HW-SW_V1.1.3/Firmware_Software/DAVE project/S2GL_Doppler/Libraries/CMSIS/Include\core_cm0.h **** 
 292:C:/Users/±è°æ¹Î/Desktop/IFX_S2GL-HW-SW_V1.1.3/Firmware_Software/DAVE project/S2GL_Doppler/Libraries/CMSIS/Include\core_cm0.h **** /**
 293:C:/Users/±è°æ¹Î/Desktop/IFX_S2GL-HW-SW_V1.1.3/Firmware_Software/DAVE project/S2GL_Doppler/Libraries/CMSIS/Include\core_cm0.h ****   \brief  Union type to access the Special-Purpose Program Status Registers (xPSR).
 294:C:/Users/±è°æ¹Î/Desktop/IFX_S2GL-HW-SW_V1.1.3/Firmware_Software/DAVE project/S2GL_Doppler/Libraries/CMSIS/Include\core_cm0.h ****  */
 295:C:/Users/±è°æ¹Î/Desktop/IFX_S2GL-HW-SW_V1.1.3/Firmware_Software/DAVE project/S2GL_Doppler/Libraries/CMSIS/Include\core_cm0.h **** typedef union
 296:C:/Users/±è°æ¹Î/Desktop/IFX_S2GL-HW-SW_V1.1.3/Firmware_Software/DAVE project/S2GL_Doppler/Libraries/CMSIS/Include\core_cm0.h **** {
 297:C:/Users/±è°æ¹Î/Desktop/IFX_S2GL-HW-SW_V1.1.3/Firmware_Software/DAVE project/S2GL_Doppler/Libraries/CMSIS/Include\core_cm0.h ****   struct
 298:C:/Users/±è°æ¹Î/Desktop/IFX_S2GL-HW-SW_V1.1.3/Firmware_Software/DAVE project/S2GL_Doppler/Libraries/CMSIS/Include\core_cm0.h ****   {
 299:C:/Users/±è°æ¹Î/Desktop/IFX_S2GL-HW-SW_V1.1.3/Firmware_Software/DAVE project/S2GL_Doppler/Libraries/CMSIS/Include\core_cm0.h ****     uint32_t ISR:9;                      /*!< bit:  0.. 8  Exception number */
 300:C:/Users/±è°æ¹Î/Desktop/IFX_S2GL-HW-SW_V1.1.3/Firmware_Software/DAVE project/S2GL_Doppler/Libraries/CMSIS/Include\core_cm0.h ****     uint32_t _reserved0:15;              /*!< bit:  9..23  Reserved */
 301:C:/Users/±è°æ¹Î/Desktop/IFX_S2GL-HW-SW_V1.1.3/Firmware_Software/DAVE project/S2GL_Doppler/Libraries/CMSIS/Include\core_cm0.h ****     uint32_t T:1;                        /*!< bit:     24  Thumb bit        (read 0) */
 302:C:/Users/±è°æ¹Î/Desktop/IFX_S2GL-HW-SW_V1.1.3/Firmware_Software/DAVE project/S2GL_Doppler/Libraries/CMSIS/Include\core_cm0.h ****     uint32_t _reserved1:3;               /*!< bit: 25..27  Reserved */
 303:C:/Users/±è°æ¹Î/Desktop/IFX_S2GL-HW-SW_V1.1.3/Firmware_Software/DAVE project/S2GL_Doppler/Libraries/CMSIS/Include\core_cm0.h ****     uint32_t V:1;                        /*!< bit:     28  Overflow condition code flag */
 304:C:/Users/±è°æ¹Î/Desktop/IFX_S2GL-HW-SW_V1.1.3/Firmware_Software/DAVE project/S2GL_Doppler/Libraries/CMSIS/Include\core_cm0.h ****     uint32_t C:1;                        /*!< bit:     29  Carry condition code flag */
 305:C:/Users/±è°æ¹Î/Desktop/IFX_S2GL-HW-SW_V1.1.3/Firmware_Software/DAVE project/S2GL_Doppler/Libraries/CMSIS/Include\core_cm0.h ****     uint32_t Z:1;                        /*!< bit:     30  Zero condition code flag */
 306:C:/Users/±è°æ¹Î/Desktop/IFX_S2GL-HW-SW_V1.1.3/Firmware_Software/DAVE project/S2GL_Doppler/Libraries/CMSIS/Include\core_cm0.h ****     uint32_t N:1;                        /*!< bit:     31  Negative condition code flag */
 307:C:/Users/±è°æ¹Î/Desktop/IFX_S2GL-HW-SW_V1.1.3/Firmware_Software/DAVE project/S2GL_Doppler/Libraries/CMSIS/Include\core_cm0.h ****   } b;                                   /*!< Structure used for bit  access */
 308:C:/Users/±è°æ¹Î/Desktop/IFX_S2GL-HW-SW_V1.1.3/Firmware_Software/DAVE project/S2GL_Doppler/Libraries/CMSIS/Include\core_cm0.h ****   uint32_t w;                            /*!< Type      used for word access */
 309:C:/Users/±è°æ¹Î/Desktop/IFX_S2GL-HW-SW_V1.1.3/Firmware_Software/DAVE project/S2GL_Doppler/Libraries/CMSIS/Include\core_cm0.h **** } xPSR_Type;
 310:C:/Users/±è°æ¹Î/Desktop/IFX_S2GL-HW-SW_V1.1.3/Firmware_Software/DAVE project/S2GL_Doppler/Libraries/CMSIS/Include\core_cm0.h **** 
 311:C:/Users/±è°æ¹Î/Desktop/IFX_S2GL-HW-SW_V1.1.3/Firmware_Software/DAVE project/S2GL_Doppler/Libraries/CMSIS/Include\core_cm0.h **** /* xPSR Register Definitions */
 312:C:/Users/±è°æ¹Î/Desktop/IFX_S2GL-HW-SW_V1.1.3/Firmware_Software/DAVE project/S2GL_Doppler/Libraries/CMSIS/Include\core_cm0.h **** #define xPSR_N_Pos                         31U                                            /*!< xPSR
 313:C:/Users/±è°æ¹Î/Desktop/IFX_S2GL-HW-SW_V1.1.3/Firmware_Software/DAVE project/S2GL_Doppler/Libraries/CMSIS/Include\core_cm0.h **** #define xPSR_N_Msk                         (1UL << xPSR_N_Pos)                            /*!< xPSR
 314:C:/Users/±è°æ¹Î/Desktop/IFX_S2GL-HW-SW_V1.1.3/Firmware_Software/DAVE project/S2GL_Doppler/Libraries/CMSIS/Include\core_cm0.h **** 
 315:C:/Users/±è°æ¹Î/Desktop/IFX_S2GL-HW-SW_V1.1.3/Firmware_Software/DAVE project/S2GL_Doppler/Libraries/CMSIS/Include\core_cm0.h **** #define xPSR_Z_Pos                         30U                                            /*!< xPSR
 316:C:/Users/±è°æ¹Î/Desktop/IFX_S2GL-HW-SW_V1.1.3/Firmware_Software/DAVE project/S2GL_Doppler/Libraries/CMSIS/Include\core_cm0.h **** #define xPSR_Z_Msk                         (1UL << xPSR_Z_Pos)                            /*!< xPSR
 317:C:/Users/±è°æ¹Î/Desktop/IFX_S2GL-HW-SW_V1.1.3/Firmware_Software/DAVE project/S2GL_Doppler/Libraries/CMSIS/Include\core_cm0.h **** 
