   1              	 .cpu cortex-m0
   2              	 .fpu softvfp
   3              	 .eabi_attribute 20,1
   4              	 .eabi_attribute 21,1
   5              	 .eabi_attribute 23,3
   6              	 .eabi_attribute 24,1
   7              	 .eabi_attribute 25,1
   8              	 .eabi_attribute 26,1
   9              	 .eabi_attribute 30,2
  10              	 .eabi_attribute 34,0
  11              	 .eabi_attribute 18,4
  12              	 .code 16
  13              	 .file "xmc_ccu8.c"
  14              	 .text
  15              	.Ltext0:
  16              	 .cfi_sections .debug_frame
  17              	 .section .text.XMC_CCU8_EnableModule,"ax",%progbits
  18              	 .align 2
  19              	 .global XMC_CCU8_EnableModule
  20              	 .code 16
  21              	 .thumb_func
  23              	XMC_CCU8_EnableModule:
  24              	.LFB98:
  25              	 .file 1 "../Libraries/XMCLib/src/xmc_ccu8.c"
   1:../Libraries/XMCLib/src/xmc_ccu8.c **** /**
   2:../Libraries/XMCLib/src/xmc_ccu8.c ****  * @file xmc_ccu8.c
   3:../Libraries/XMCLib/src/xmc_ccu8.c ****  * @date 2015-10-07
   4:../Libraries/XMCLib/src/xmc_ccu8.c ****  *
   5:../Libraries/XMCLib/src/xmc_ccu8.c ****  * @cond
   6:../Libraries/XMCLib/src/xmc_ccu8.c ****  **************************************************************************************************
   7:../Libraries/XMCLib/src/xmc_ccu8.c ****  * XMClib v2.1.6 - XMC Peripheral Driver Library 
   8:../Libraries/XMCLib/src/xmc_ccu8.c ****  *
   9:../Libraries/XMCLib/src/xmc_ccu8.c ****  * Copyright (C) 2015-2019 Infineon Technologies AG
  10:../Libraries/XMCLib/src/xmc_ccu8.c ****  * All rights reserved.                        
  11:../Libraries/XMCLib/src/xmc_ccu8.c ****  *                                             
  12:../Libraries/XMCLib/src/xmc_ccu8.c ****  * Redistribution and use in source and binary forms, with or without modification,are permitted pr
  13:../Libraries/XMCLib/src/xmc_ccu8.c ****  * following conditions are met:   
  14:../Libraries/XMCLib/src/xmc_ccu8.c ****  *                                                                              
  15:../Libraries/XMCLib/src/xmc_ccu8.c ****  * Redistributions of source code must retain the above copyright notice, this list of conditions a
  16:../Libraries/XMCLib/src/xmc_ccu8.c ****  * disclaimer.                        
  17:../Libraries/XMCLib/src/xmc_ccu8.c ****  * 
  18:../Libraries/XMCLib/src/xmc_ccu8.c ****  * Redistributions in binary form must reproduce the above copyright notice, this list of condition
  19:../Libraries/XMCLib/src/xmc_ccu8.c ****  * disclaimer in the documentation and/or other materials provided with the distribution.          
  20:../Libraries/XMCLib/src/xmc_ccu8.c ****  * 
  21:../Libraries/XMCLib/src/xmc_ccu8.c ****  * Neither the name of the copyright holders nor the names of its contributors may be used to endor
  22:../Libraries/XMCLib/src/xmc_ccu8.c ****  * products derived from this software without specific prior written permission.                  
  23:../Libraries/XMCLib/src/xmc_ccu8.c ****  *                                                                              
  24:../Libraries/XMCLib/src/xmc_ccu8.c ****  * THIS SOFTWARE IS PROVIDED BY THE COPYRIGHT HOLDERS AND CONTRIBUTORS "AS IS" AND ANY EXPRESS OR I
  25:../Libraries/XMCLib/src/xmc_ccu8.c ****  * INCLUDING, BUT NOT LIMITED TO, THE IMPLIED WARRANTIES OF MERCHANTABILITY AND FITNESS FOR A PARTI
  26:../Libraries/XMCLib/src/xmc_ccu8.c ****  * DISCLAIMED. IN NO EVENT SHALL THE COPYRIGHT HOLDER OR CONTRIBUTORS BE LIABLE  FOR ANY DIRECT, IN
  27:../Libraries/XMCLib/src/xmc_ccu8.c ****  * SPECIAL, EXEMPLARY, OR CONSEQUENTIAL DAMAGES (INCLUDING, BUT NOT LIMITED TO, PROCUREMENT OF SUBS
  28:../Libraries/XMCLib/src/xmc_ccu8.c ****  * SERVICES; LOSS OF USE, DATA, OR PROFITS; OR BUSINESS INTERRUPTION) HOWEVER CAUSED AND ON ANY THE
  29:../Libraries/XMCLib/src/xmc_ccu8.c ****  * WHETHER IN CONTRACT, STRICT LIABILITY,OR TORT (INCLUDING NEGLIGENCE OR OTHERWISE) ARISING IN ANY
  30:../Libraries/XMCLib/src/xmc_ccu8.c ****  * OF THIS SOFTWARE, EVEN IF ADVISED OF THE POSSIBILITY OF SUCH DAMAGE.                            
  31:../Libraries/XMCLib/src/xmc_ccu8.c ****  *                                                                              
  32:../Libraries/XMCLib/src/xmc_ccu8.c ****  * To improve the quality of the software, users are encouraged to share modifications, enhancement
  33:../Libraries/XMCLib/src/xmc_ccu8.c ****  * Infineon Technologies AG dave@infineon.com).                                                    
  34:../Libraries/XMCLib/src/xmc_ccu8.c ****  **************************************************************************************************
  35:../Libraries/XMCLib/src/xmc_ccu8.c ****  *
  36:../Libraries/XMCLib/src/xmc_ccu8.c ****  * Change History
  37:../Libraries/XMCLib/src/xmc_ccu8.c ****  * --------------
  38:../Libraries/XMCLib/src/xmc_ccu8.c ****  *
  39:../Libraries/XMCLib/src/xmc_ccu8.c ****  * 2015-02-20:
  40:../Libraries/XMCLib/src/xmc_ccu8.c ****  *     - Initial <br>
  41:../Libraries/XMCLib/src/xmc_ccu8.c ****  *
  42:../Libraries/XMCLib/src/xmc_ccu8.c ****  * 2015-06-20:
  43:../Libraries/XMCLib/src/xmc_ccu8.c ****  *     - Removed definition of GetDriverVersion API <br>
  44:../Libraries/XMCLib/src/xmc_ccu8.c ****  *     - Added XMC_CCU8_SLICE_LoadSelector() API, to select which compare register value has to be 
  45:../Libraries/XMCLib/src/xmc_ccu8.c ****  *       during external load event. 
  46:../Libraries/XMCLib/src/xmc_ccu8.c ****  *
  47:../Libraries/XMCLib/src/xmc_ccu8.c ****  * 2015-07-24:
  48:../Libraries/XMCLib/src/xmc_ccu8.c ****  *     - XMC_CCU8_SLICE_ConfigureStatusBitOverrideEvent() is updated to support XMC14 device. <br>
  49:../Libraries/XMCLib/src/xmc_ccu8.c ****  *
  50:../Libraries/XMCLib/src/xmc_ccu8.c ****  * 2015-08-17:
  51:../Libraries/XMCLib/src/xmc_ccu8.c ****  *     - XMC_CCU8_SLICE_CHC_CONFIG_MASK is not applicable to XMC14 devices. <br>
  52:../Libraries/XMCLib/src/xmc_ccu8.c ****  *     - Start of prescaler XMC_CCU8_StartPrescaler() is invoked in XMC_CCU8_Init() API. <br>
  53:../Libraries/XMCLib/src/xmc_ccu8.c ****  *     - In XMC_CCU8_SLICE_CompareInit(), CHC register is updated according to the device. <br>
  54:../Libraries/XMCLib/src/xmc_ccu8.c ****  *     - Bug fix XMC_CCU8_SLICE_ConfigureEvent() during the level setting for XMC14 devices. <br>
  55:../Libraries/XMCLib/src/xmc_ccu8.c ****  *     - XMC_CCU8_EnableShadowTransfer() definition is removed, since the API is made as inline. <b
  56:../Libraries/XMCLib/src/xmc_ccu8.c ****  * 
  57:../Libraries/XMCLib/src/xmc_ccu8.c ****  * 2015-10-07:
  58:../Libraries/XMCLib/src/xmc_ccu8.c ****  *     - XMC_CCU8_SLICE_GetEvent() is made as inline.
  59:../Libraries/XMCLib/src/xmc_ccu8.c ****  *     - DOC updates for the newly added APIs.
  60:../Libraries/XMCLib/src/xmc_ccu8.c ****  *
  61:../Libraries/XMCLib/src/xmc_ccu8.c ****  * @endcond
  62:../Libraries/XMCLib/src/xmc_ccu8.c ****  */
  63:../Libraries/XMCLib/src/xmc_ccu8.c **** /**************************************************************************************************
  64:../Libraries/XMCLib/src/xmc_ccu8.c ****  * HEADER FILES
  65:../Libraries/XMCLib/src/xmc_ccu8.c ****  **************************************************************************************************
  66:../Libraries/XMCLib/src/xmc_ccu8.c **** #include "xmc_ccu8.h"
  67:../Libraries/XMCLib/src/xmc_ccu8.c **** 
  68:../Libraries/XMCLib/src/xmc_ccu8.c **** #if defined(CCU80)
  69:../Libraries/XMCLib/src/xmc_ccu8.c **** #include "xmc_scu.h"
  70:../Libraries/XMCLib/src/xmc_ccu8.c **** 
  71:../Libraries/XMCLib/src/xmc_ccu8.c **** /**************************************************************************************************
  72:../Libraries/XMCLib/src/xmc_ccu8.c ****  * MACROS
  73:../Libraries/XMCLib/src/xmc_ccu8.c ****  **************************************************************************************************
  74:../Libraries/XMCLib/src/xmc_ccu8.c **** #define XMC_CCU8_NUM_SLICES_PER_MODULE          (4U)
  75:../Libraries/XMCLib/src/xmc_ccu8.c **** #define XMC_CCU8_SLICE_DITHER_PERIOD_MASK       (1U)
  76:../Libraries/XMCLib/src/xmc_ccu8.c **** #define XMC_CCU8_SLICE_DITHER_DUTYCYCLE_MASK    (2U)
  77:../Libraries/XMCLib/src/xmc_ccu8.c **** #define XMC_CCU8_SLICE_EVENT_EDGE_CONFIG_MASK   (3U)
  78:../Libraries/XMCLib/src/xmc_ccu8.c **** #define XMC_CCU8_SLICE_EVENT_LEVEL_CONFIG_MASK  (1U)
  79:../Libraries/XMCLib/src/xmc_ccu8.c **** #define XMC_CCU8_SLICE_EVENT_FILTER_CONFIG_MASK (3U)
  80:../Libraries/XMCLib/src/xmc_ccu8.c **** #if defined(CCU8V3) /* Defined for XMC1400 devices */
  81:../Libraries/XMCLib/src/xmc_ccu8.c **** #define XMC_CCU8_SLICE_EVENT_INPUT_CONFIG_MASK  CCU8_CC8_INS1_EV0IS_Msk
  82:../Libraries/XMCLib/src/xmc_ccu8.c **** #else
  83:../Libraries/XMCLib/src/xmc_ccu8.c **** #define XMC_CCU8_SLICE_EVENT_INPUT_CONFIG_MASK  CCU8_CC8_INS_EV0IS_Msk
  84:../Libraries/XMCLib/src/xmc_ccu8.c **** #endif
  85:../Libraries/XMCLib/src/xmc_ccu8.c **** #define XMC_CCU8_GIDLC_CLOCK_MASK               (15U)
  86:../Libraries/XMCLib/src/xmc_ccu8.c **** #define XMC_CCU8_GCSS_SLICE0_MASK               (1U)
  87:../Libraries/XMCLib/src/xmc_ccu8.c **** #define XMC_CCU8_GCSS_SLICE1_MASK               (16U)
  88:../Libraries/XMCLib/src/xmc_ccu8.c **** #define XMC_CCU8_GCSS_SLICE2_MASK               (256U)
  89:../Libraries/XMCLib/src/xmc_ccu8.c **** #define XMC_CCU8_GCSS_SLICE3_MASK               (4096U)
  90:../Libraries/XMCLib/src/xmc_ccu8.c **** #define XMC_CCU8_SLICE_DEAD_TIME_CONFIG_MASK    (63U)
  91:../Libraries/XMCLib/src/xmc_ccu8.c **** #if !defined(CCU8V3) /* Defined for all devices except XMC1400 */
  92:../Libraries/XMCLib/src/xmc_ccu8.c **** #define XMC_CCU8_SLICE_CHC_CONFIG_MASK          (20U)
  93:../Libraries/XMCLib/src/xmc_ccu8.c **** #endif
  94:../Libraries/XMCLib/src/xmc_ccu8.c **** 
  95:../Libraries/XMCLib/src/xmc_ccu8.c **** #define XMC_CCU8_SLICE_CHECK_DTC_DIV(div) \
  96:../Libraries/XMCLib/src/xmc_ccu8.c ****     ((div == XMC_CCU8_SLICE_DTC_DIV_1) || \
  97:../Libraries/XMCLib/src/xmc_ccu8.c ****      (div == XMC_CCU8_SLICE_DTC_DIV_2) || \
  98:../Libraries/XMCLib/src/xmc_ccu8.c ****      (div == XMC_CCU8_SLICE_DTC_DIV_4) || \
  99:../Libraries/XMCLib/src/xmc_ccu8.c ****      (div == XMC_CCU8_SLICE_DTC_DIV_8))
 100:../Libraries/XMCLib/src/xmc_ccu8.c **** 
 101:../Libraries/XMCLib/src/xmc_ccu8.c **** #define XMC_CCU8_SLICE_CHECK_CLOCK(clock) \
 102:../Libraries/XMCLib/src/xmc_ccu8.c ****     ((clock == XMC_CCU8_CLOCK_SCU)        || \
 103:../Libraries/XMCLib/src/xmc_ccu8.c ****      (clock == XMC_CCU8_CLOCK_EXTERNAL_A) || \
 104:../Libraries/XMCLib/src/xmc_ccu8.c ****      (clock == XMC_CCU8_CLOCK_EXTERNAL_B) || \
 105:../Libraries/XMCLib/src/xmc_ccu8.c ****      (clock == XMC_CCU8_CLOCK_EXTERNAL_C))
 106:../Libraries/XMCLib/src/xmc_ccu8.c **** 
 107:../Libraries/XMCLib/src/xmc_ccu8.c **** #define XMC_CCU8_SLICE_CHECK_OUTPUT(out) \
 108:../Libraries/XMCLib/src/xmc_ccu8.c ****     ((out == XMC_CCU8_SLICE_OUTPUT_0) || \
 109:../Libraries/XMCLib/src/xmc_ccu8.c ****      (out == XMC_CCU8_SLICE_OUTPUT_1) || \
 110:../Libraries/XMCLib/src/xmc_ccu8.c ****      (out == XMC_CCU8_SLICE_OUTPUT_2) || \
 111:../Libraries/XMCLib/src/xmc_ccu8.c ****      (out == XMC_CCU8_SLICE_OUTPUT_3))
 112:../Libraries/XMCLib/src/xmc_ccu8.c **** 
 113:../Libraries/XMCLib/src/xmc_ccu8.c **** #define XMC_CCU8_SLICE_CHECK_END_MODE(end_mode) \
 114:../Libraries/XMCLib/src/xmc_ccu8.c ****     ((end_mode == XMC_CCU8_SLICE_END_MODE_TIMER_STOP) || \
 115:../Libraries/XMCLib/src/xmc_ccu8.c ****      (end_mode == XMC_CCU8_SLICE_END_MODE_TIMER_CLEAR) || \
 116:../Libraries/XMCLib/src/xmc_ccu8.c ****      (end_mode == XMC_CCU8_SLICE_END_MODE_TIMER_STOP_CLEAR))
 117:../Libraries/XMCLib/src/xmc_ccu8.c **** 
 118:../Libraries/XMCLib/src/xmc_ccu8.c **** #define XMC_CCU8_SLICE_CHECK_EVENT_ID(event_id) \
 119:../Libraries/XMCLib/src/xmc_ccu8.c ****     ((event_id == XMC_CCU8_SLICE_EVENT_NONE)|| \
 120:../Libraries/XMCLib/src/xmc_ccu8.c ****      (event_id == XMC_CCU8_SLICE_EVENT_0)   || \
 121:../Libraries/XMCLib/src/xmc_ccu8.c ****      (event_id == XMC_CCU8_SLICE_EVENT_1)   || \
 122:../Libraries/XMCLib/src/xmc_ccu8.c ****      (event_id == XMC_CCU8_SLICE_EVENT_2))
 123:../Libraries/XMCLib/src/xmc_ccu8.c **** 
 124:../Libraries/XMCLib/src/xmc_ccu8.c **** #define XMC_CCU8_SLICE_CHECK_EDGE_SENSITIVITY(edge) \
 125:../Libraries/XMCLib/src/xmc_ccu8.c ****     ((edge == XMC_CCU8_SLICE_EVENT_EDGE_SENSITIVITY_NONE)        || \
 126:../Libraries/XMCLib/src/xmc_ccu8.c ****      (edge == XMC_CCU8_SLICE_EVENT_EDGE_SENSITIVITY_RISING_EDGE) || \
 127:../Libraries/XMCLib/src/xmc_ccu8.c ****      (edge == XMC_CCU8_SLICE_EVENT_EDGE_SENSITIVITY_FALLING_EDGE)|| \
 128:../Libraries/XMCLib/src/xmc_ccu8.c ****      (edge == XMC_CCU8_SLICE_EVENT_EDGE_SENSITIVITY_DUAL_EDGE))
 129:../Libraries/XMCLib/src/xmc_ccu8.c **** 
 130:../Libraries/XMCLib/src/xmc_ccu8.c **** #define XMC_CCU8_SLICE_CHECK_EVENT_FILTER(cycles) \
 131:../Libraries/XMCLib/src/xmc_ccu8.c ****     ((cycles == XMC_CCU8_SLICE_EVENT_FILTER_DISABLED) || \
 132:../Libraries/XMCLib/src/xmc_ccu8.c ****      (cycles == XMC_CCU8_SLICE_EVENT_FILTER_3_CYCLES) || \
 133:../Libraries/XMCLib/src/xmc_ccu8.c ****      (cycles == XMC_CCU8_SLICE_EVENT_FILTER_5_CYCLES) || \
 134:../Libraries/XMCLib/src/xmc_ccu8.c ****      (cycles == XMC_CCU8_SLICE_EVENT_FILTER_7_CYCLES))
 135:../Libraries/XMCLib/src/xmc_ccu8.c **** 
 136:../Libraries/XMCLib/src/xmc_ccu8.c **** #define XMC_CCU8_SLICE_CHECK_CAP_TIMER_CLEAR_MODE(mode) \
 137:../Libraries/XMCLib/src/xmc_ccu8.c ****     ((mode == XMC_CCU8_SLICE_TIMER_CLEAR_MODE_NEVER)   || \
 138:../Libraries/XMCLib/src/xmc_ccu8.c ****      (mode == XMC_CCU8_SLICE_TIMER_CLEAR_MODE_CAP_HIGH)|| \
 139:../Libraries/XMCLib/src/xmc_ccu8.c ****      (mode == XMC_CCU8_SLICE_TIMER_CLEAR_MODE_CAP_LOW) || \
 140:../Libraries/XMCLib/src/xmc_ccu8.c ****      (mode == XMC_CCU8_SLICE_TIMER_CLEAR_MODE_ALWAYS))
 141:../Libraries/XMCLib/src/xmc_ccu8.c **** 
 142:../Libraries/XMCLib/src/xmc_ccu8.c **** #define XMC_CCU8_SLICE_CHECK_MCS_ACTION(mcs_action) \
 143:../Libraries/XMCLib/src/xmc_ccu8.c ****     ((mcs_action == XMC_CCU8_SLICE_MCMS_ACTION_TRANSFER_PR_CR)      || \
 144:../Libraries/XMCLib/src/xmc_ccu8.c ****      (mcs_action == XMC_CCU8_SLICE_MCMS_ACTION_TRANSFER_PR_CR_PCMP) || \
 145:../Libraries/XMCLib/src/xmc_ccu8.c ****      (mcs_action == XMC_CCU8_SLICE_MCMS_ACTION_TRANSFER_PR_CR_PCMP_DIT))
 146:../Libraries/XMCLib/src/xmc_ccu8.c **** 
 147:../Libraries/XMCLib/src/xmc_ccu8.c **** #define XMC_CCU8_SLICE_CHECK_SR_ID(id) \
 148:../Libraries/XMCLib/src/xmc_ccu8.c ****     ((id == XMC_CCU8_SLICE_SR_ID_0) || \
 149:../Libraries/XMCLib/src/xmc_ccu8.c ****      (id == XMC_CCU8_SLICE_SR_ID_1) || \
 150:../Libraries/XMCLib/src/xmc_ccu8.c ****      (id == XMC_CCU8_SLICE_SR_ID_2) || \
 151:../Libraries/XMCLib/src/xmc_ccu8.c ****      (id == XMC_CCU8_SLICE_SR_ID_3))
 152:../Libraries/XMCLib/src/xmc_ccu8.c **** 
 153:../Libraries/XMCLib/src/xmc_ccu8.c **** #define XMC_CCU8_SLICE_CHECK_MODULATION_CHANNEL(channel) \
 154:../Libraries/XMCLib/src/xmc_ccu8.c ****     ((channel == XMC_CCU8_SLICE_MODULATION_CHANNEL_NONE) || \
 155:../Libraries/XMCLib/src/xmc_ccu8.c ****      (channel == XMC_CCU8_SLICE_MODULATION_CHANNEL_1)    || \
 156:../Libraries/XMCLib/src/xmc_ccu8.c ****      (channel == XMC_CCU8_SLICE_MODULATION_CHANNEL_2)    || \
 157:../Libraries/XMCLib/src/xmc_ccu8.c ****      (channel == XMC_CCU8_SLICE_MODULATION_CHANNEL_1_AND_2))
 158:../Libraries/XMCLib/src/xmc_ccu8.c **** 
 159:../Libraries/XMCLib/src/xmc_ccu8.c **** #if((UC_SERIES == XMC13) || (UC_SERIES == XMC14))
 160:../Libraries/XMCLib/src/xmc_ccu8.c **** #define XMC_CCU8_SLICE_CHECK_SLICE_STATUS(channel) \
 161:../Libraries/XMCLib/src/xmc_ccu8.c ****     ((channel == XMC_CCU8_SLICE_STATUS_CHANNEL_1)       || \
 162:../Libraries/XMCLib/src/xmc_ccu8.c ****      (channel == XMC_CCU8_SLICE_STATUS_CHANNEL_2)       || \
 163:../Libraries/XMCLib/src/xmc_ccu8.c ****      (channel == XMC_CCU8_SLICE_STATUS_CHANNEL_1_AND_2) || \
 164:../Libraries/XMCLib/src/xmc_ccu8.c ****      (channel == XMC_CCU8_SLICE_STATUS_CHANNEL_1_OR_2))
 165:../Libraries/XMCLib/src/xmc_ccu8.c **** #else
 166:../Libraries/XMCLib/src/xmc_ccu8.c **** #define XMC_CCU8_SLICE_CHECK_SLICE_STATUS(channel) \
 167:../Libraries/XMCLib/src/xmc_ccu8.c ****     ((channel == XMC_CCU8_SLICE_STATUS_CHANNEL_1)       || \
 168:../Libraries/XMCLib/src/xmc_ccu8.c ****      (channel == XMC_CCU8_SLICE_STATUS_CHANNEL_2)       || \
 169:../Libraries/XMCLib/src/xmc_ccu8.c ****      (channel == XMC_CCU8_SLICE_STATUS_CHANNEL_1_AND_2))
 170:../Libraries/XMCLib/src/xmc_ccu8.c **** #endif
 171:../Libraries/XMCLib/src/xmc_ccu8.c **** 
 172:../Libraries/XMCLib/src/xmc_ccu8.c **** /**************************************************************************************************
 173:../Libraries/XMCLib/src/xmc_ccu8.c ****  * LOCAL ROUTINES
 174:../Libraries/XMCLib/src/xmc_ccu8.c ****  **************************************************************************************************
 175:../Libraries/XMCLib/src/xmc_ccu8.c **** #if defined(PERIPHERAL_RESET_SUPPORTED)
 176:../Libraries/XMCLib/src/xmc_ccu8.c **** __STATIC_INLINE void XMC_CCU8_lAssertReset(const XMC_CCU8_MODULE_t *const module)
 177:../Libraries/XMCLib/src/xmc_ccu8.c **** {
 178:../Libraries/XMCLib/src/xmc_ccu8.c ****   switch ((uint32_t)module)
 179:../Libraries/XMCLib/src/xmc_ccu8.c ****   {
 180:../Libraries/XMCLib/src/xmc_ccu8.c ****     case (uint32_t)CCU80:
 181:../Libraries/XMCLib/src/xmc_ccu8.c ****       XMC_SCU_RESET_AssertPeripheralReset(XMC_SCU_PERIPHERAL_RESET_CCU80);
 182:../Libraries/XMCLib/src/xmc_ccu8.c ****       break;
 183:../Libraries/XMCLib/src/xmc_ccu8.c ****       
 184:../Libraries/XMCLib/src/xmc_ccu8.c **** #if defined(CCU81)
 185:../Libraries/XMCLib/src/xmc_ccu8.c ****     case (uint32_t)CCU81:
 186:../Libraries/XMCLib/src/xmc_ccu8.c ****       XMC_SCU_RESET_AssertPeripheralReset(XMC_SCU_PERIPHERAL_RESET_CCU81);
 187:../Libraries/XMCLib/src/xmc_ccu8.c ****       break;
 188:../Libraries/XMCLib/src/xmc_ccu8.c **** #endif
 189:../Libraries/XMCLib/src/xmc_ccu8.c **** 
 190:../Libraries/XMCLib/src/xmc_ccu8.c ****     default:
 191:../Libraries/XMCLib/src/xmc_ccu8.c ****       XMC_ASSERT("XMC_CCU8_lAssertReset:Invalid Module Pointer", 0);
 192:../Libraries/XMCLib/src/xmc_ccu8.c ****       break;   
 193:../Libraries/XMCLib/src/xmc_ccu8.c ****   }
 194:../Libraries/XMCLib/src/xmc_ccu8.c **** }
 195:../Libraries/XMCLib/src/xmc_ccu8.c **** 
 196:../Libraries/XMCLib/src/xmc_ccu8.c **** __STATIC_INLINE void XMC_CCU8_lDeassertReset(const XMC_CCU8_MODULE_t *const module)
 197:../Libraries/XMCLib/src/xmc_ccu8.c **** {
 198:../Libraries/XMCLib/src/xmc_ccu8.c ****   switch ((uint32_t)module)
 199:../Libraries/XMCLib/src/xmc_ccu8.c ****   {
 200:../Libraries/XMCLib/src/xmc_ccu8.c ****     case (uint32_t)CCU80:
 201:../Libraries/XMCLib/src/xmc_ccu8.c ****       XMC_SCU_RESET_DeassertPeripheralReset(XMC_SCU_PERIPHERAL_RESET_CCU80);
 202:../Libraries/XMCLib/src/xmc_ccu8.c ****       break;
 203:../Libraries/XMCLib/src/xmc_ccu8.c ****       
 204:../Libraries/XMCLib/src/xmc_ccu8.c **** #if defined(CCU81)
 205:../Libraries/XMCLib/src/xmc_ccu8.c ****     case (uint32_t)CCU81:
 206:../Libraries/XMCLib/src/xmc_ccu8.c ****       XMC_SCU_RESET_DeassertPeripheralReset(XMC_SCU_PERIPHERAL_RESET_CCU81);
 207:../Libraries/XMCLib/src/xmc_ccu8.c ****       break;
 208:../Libraries/XMCLib/src/xmc_ccu8.c **** #endif
 209:../Libraries/XMCLib/src/xmc_ccu8.c **** 
 210:../Libraries/XMCLib/src/xmc_ccu8.c ****     default:
 211:../Libraries/XMCLib/src/xmc_ccu8.c ****       XMC_ASSERT("XMC_CCU8_lDeassertReset:Invalid Module Pointer", 0);
 212:../Libraries/XMCLib/src/xmc_ccu8.c ****       break;   
 213:../Libraries/XMCLib/src/xmc_ccu8.c ****   }
 214:../Libraries/XMCLib/src/xmc_ccu8.c **** }
 215:../Libraries/XMCLib/src/xmc_ccu8.c **** #endif
 216:../Libraries/XMCLib/src/xmc_ccu8.c **** 
 217:../Libraries/XMCLib/src/xmc_ccu8.c **** #if defined(CLOCK_GATING_SUPPORTED)
 218:../Libraries/XMCLib/src/xmc_ccu8.c **** __STATIC_INLINE void XMC_CCU8_lGateClock(XMC_CCU8_MODULE_t *const module)
 219:../Libraries/XMCLib/src/xmc_ccu8.c **** {
 220:../Libraries/XMCLib/src/xmc_ccu8.c ****   switch ((uint32_t)module)
 221:../Libraries/XMCLib/src/xmc_ccu8.c ****   {
 222:../Libraries/XMCLib/src/xmc_ccu8.c ****     case (uint32_t)CCU80:
 223:../Libraries/XMCLib/src/xmc_ccu8.c ****       XMC_SCU_CLOCK_GatePeripheralClock(XMC_SCU_PERIPHERAL_CLOCK_CCU80);
 224:../Libraries/XMCLib/src/xmc_ccu8.c ****       break;
 225:../Libraries/XMCLib/src/xmc_ccu8.c ****       
 226:../Libraries/XMCLib/src/xmc_ccu8.c **** #if defined(CCU81)      
 227:../Libraries/XMCLib/src/xmc_ccu8.c ****     case (uint32_t)CCU81:
 228:../Libraries/XMCLib/src/xmc_ccu8.c ****       XMC_SCU_CLOCK_GatePeripheralClock(XMC_SCU_PERIPHERAL_CLOCK_CCU81);
 229:../Libraries/XMCLib/src/xmc_ccu8.c ****       break;
 230:../Libraries/XMCLib/src/xmc_ccu8.c **** #endif
 231:../Libraries/XMCLib/src/xmc_ccu8.c **** 
 232:../Libraries/XMCLib/src/xmc_ccu8.c ****     default:
 233:../Libraries/XMCLib/src/xmc_ccu8.c ****       XMC_ASSERT("XMC_CCU8_lGateClock:Invalid Module Pointer", 0);
 234:../Libraries/XMCLib/src/xmc_ccu8.c ****       break;   
 235:../Libraries/XMCLib/src/xmc_ccu8.c ****   }
 236:../Libraries/XMCLib/src/xmc_ccu8.c **** }
 237:../Libraries/XMCLib/src/xmc_ccu8.c **** 
 238:../Libraries/XMCLib/src/xmc_ccu8.c **** __STATIC_INLINE void XMC_CCU8_lUngateClock(XMC_CCU8_MODULE_t *const module)
 239:../Libraries/XMCLib/src/xmc_ccu8.c **** {
 240:../Libraries/XMCLib/src/xmc_ccu8.c ****   switch ((uint32_t)module)
 241:../Libraries/XMCLib/src/xmc_ccu8.c ****   {
 242:../Libraries/XMCLib/src/xmc_ccu8.c ****     case (uint32_t)CCU80:
 243:../Libraries/XMCLib/src/xmc_ccu8.c ****       XMC_SCU_CLOCK_UngatePeripheralClock(XMC_SCU_PERIPHERAL_CLOCK_CCU80);
 244:../Libraries/XMCLib/src/xmc_ccu8.c ****       break;
 245:../Libraries/XMCLib/src/xmc_ccu8.c ****       
 246:../Libraries/XMCLib/src/xmc_ccu8.c **** #if defined(CCU81)      
 247:../Libraries/XMCLib/src/xmc_ccu8.c ****     case (uint32_t)CCU81:
 248:../Libraries/XMCLib/src/xmc_ccu8.c ****       XMC_SCU_CLOCK_UngatePeripheralClock(XMC_SCU_PERIPHERAL_CLOCK_CCU81);
 249:../Libraries/XMCLib/src/xmc_ccu8.c ****       break;
 250:../Libraries/XMCLib/src/xmc_ccu8.c **** #endif
 251:../Libraries/XMCLib/src/xmc_ccu8.c **** 
 252:../Libraries/XMCLib/src/xmc_ccu8.c ****     default:
 253:../Libraries/XMCLib/src/xmc_ccu8.c ****       XMC_ASSERT("XMC_CCU8_lUngateClock:Invalid Module Pointer", 0);
 254:../Libraries/XMCLib/src/xmc_ccu8.c ****       break;   
 255:../Libraries/XMCLib/src/xmc_ccu8.c ****   }
 256:../Libraries/XMCLib/src/xmc_ccu8.c **** }
 257:../Libraries/XMCLib/src/xmc_ccu8.c **** #endif
 258:../Libraries/XMCLib/src/xmc_ccu8.c **** 
 259:../Libraries/XMCLib/src/xmc_ccu8.c **** #if defined (XMC_ASSERT_ENABLE)
 260:../Libraries/XMCLib/src/xmc_ccu8.c **** __STATIC_INLINE bool XMC_CCU8_SLICE_IsInputvalid(XMC_CCU8_SLICE_INPUT_t input)
 261:../Libraries/XMCLib/src/xmc_ccu8.c **** {
 262:../Libraries/XMCLib/src/xmc_ccu8.c **** #if (UC_SERIES == XMC14)
 263:../Libraries/XMCLib/src/xmc_ccu8.c ****   return (input < 48U);
 264:../Libraries/XMCLib/src/xmc_ccu8.c **** #else
 265:../Libraries/XMCLib/src/xmc_ccu8.c ****   return (input < 16U);
 266:../Libraries/XMCLib/src/xmc_ccu8.c **** #endif
 267:../Libraries/XMCLib/src/xmc_ccu8.c **** }
 268:../Libraries/XMCLib/src/xmc_ccu8.c **** #endif
 269:../Libraries/XMCLib/src/xmc_ccu8.c **** /**************************************************************************************************
 270:../Libraries/XMCLib/src/xmc_ccu8.c ****  * API IMPLEMENTATION
 271:../Libraries/XMCLib/src/xmc_ccu8.c ****  **************************************************************************************************
 272:../Libraries/XMCLib/src/xmc_ccu8.c **** 
 273:../Libraries/XMCLib/src/xmc_ccu8.c **** /* API to set the CCU8 module as active and enable the clock  */
 274:../Libraries/XMCLib/src/xmc_ccu8.c **** void XMC_CCU8_EnableModule(XMC_CCU8_MODULE_t *const module)
 275:../Libraries/XMCLib/src/xmc_ccu8.c **** {
  26              	 .loc 1 275 0
  27              	 .cfi_startproc
  28              	.LVL0:
  29 0000 08B5     	 push {r3,lr}
  30              	.LCFI0:
  31              	 .cfi_def_cfa_offset 8
  32              	 .cfi_offset 3,-8
  33              	 .cfi_offset 14,-4
  34              	.LBB18:
  35              	.LBB19:
 240:../Libraries/XMCLib/src/xmc_ccu8.c ****   {
  36              	 .loc 1 240 0
  37 0002 A023     	 mov r3,#160
  38 0004 DB05     	 lsl r3,r3,#23
  39 0006 9842     	 cmp r0,r3
  40 0008 02D1     	 bne .L1
 243:../Libraries/XMCLib/src/xmc_ccu8.c ****       break;
  41              	 .loc 1 243 0
  42 000a 0220     	 mov r0,#2
  43              	.LVL1:
  44 000c FFF7FEFF 	 bl XMC_SCU_CLOCK_UngatePeripheralClock
  45              	.LVL2:
  46              	.L1:
  47              	.LBE19:
  48              	.LBE18:
 276:../Libraries/XMCLib/src/xmc_ccu8.c ****   XMC_ASSERT("XMC_CCU8_EnableModule:Invalid Module Pointer", XMC_CCU8_IsValidModule(module));
 277:../Libraries/XMCLib/src/xmc_ccu8.c **** 
 278:../Libraries/XMCLib/src/xmc_ccu8.c **** #if (UC_FAMILY == XMC4)
 279:../Libraries/XMCLib/src/xmc_ccu8.c ****   /* Enable CCU8 module clock */
 280:../Libraries/XMCLib/src/xmc_ccu8.c ****   XMC_SCU_CLOCK_EnableClock(XMC_SCU_CLOCK_CCU);
 281:../Libraries/XMCLib/src/xmc_ccu8.c **** #endif
 282:../Libraries/XMCLib/src/xmc_ccu8.c **** 
 283:../Libraries/XMCLib/src/xmc_ccu8.c **** #if defined(CLOCK_GATING_SUPPORTED)
 284:../Libraries/XMCLib/src/xmc_ccu8.c ****   XMC_CCU8_lUngateClock(module);
 285:../Libraries/XMCLib/src/xmc_ccu8.c **** #endif
 286:../Libraries/XMCLib/src/xmc_ccu8.c **** 
 287:../Libraries/XMCLib/src/xmc_ccu8.c **** #if defined(PERIPHERAL_RESET_SUPPORTED)
 288:../Libraries/XMCLib/src/xmc_ccu8.c ****   XMC_CCU8_lDeassertReset(module);
 289:../Libraries/XMCLib/src/xmc_ccu8.c **** #endif
 290:../Libraries/XMCLib/src/xmc_ccu8.c **** }
  49              	 .loc 1 290 0
  50              	 
  51 0010 08BD     	 pop {r3,pc}
  52              	 .cfi_endproc
  53              	.LFE98:
  55 0012 C046     	 .section .text.XMC_CCU8_DisableModule,"ax",%progbits
  56              	 .align 2
  57              	 .global XMC_CCU8_DisableModule
  58              	 .code 16
  59              	 .thumb_func
  61              	XMC_CCU8_DisableModule:
  62              	.LFB99:
 291:../Libraries/XMCLib/src/xmc_ccu8.c **** 
 292:../Libraries/XMCLib/src/xmc_ccu8.c **** /* API to set the CCU8 module as idle and disable the clock  */
 293:../Libraries/XMCLib/src/xmc_ccu8.c **** void XMC_CCU8_DisableModule(XMC_CCU8_MODULE_t *const module)
 294:../Libraries/XMCLib/src/xmc_ccu8.c **** {
  63              	 .loc 1 294 0
  64              	 .cfi_startproc
  65              	.LVL3:
  66 0000 08B5     	 push {r3,lr}
  67              	.LCFI1:
  68              	 .cfi_def_cfa_offset 8
  69              	 .cfi_offset 3,-8
  70              	 .cfi_offset 14,-4
  71              	.LBB20:
  72              	.LBB21:
 220:../Libraries/XMCLib/src/xmc_ccu8.c ****   {
  73              	 .loc 1 220 0
  74 0002 A023     	 mov r3,#160
  75 0004 DB05     	 lsl r3,r3,#23
  76 0006 9842     	 cmp r0,r3
  77 0008 02D1     	 bne .L5
 223:../Libraries/XMCLib/src/xmc_ccu8.c ****       break;
  78              	 .loc 1 223 0
  79 000a 0220     	 mov r0,#2
  80              	.LVL4:
  81 000c FFF7FEFF 	 bl XMC_SCU_CLOCK_GatePeripheralClock
  82              	.LVL5:
  83              	.L5:
  84              	.LBE21:
  85              	.LBE20:
 295:../Libraries/XMCLib/src/xmc_ccu8.c ****   XMC_ASSERT("XMC_CCU8_DisableModule:Invalid Module Pointer", XMC_CCU8_IsValidModule(module));
 296:../Libraries/XMCLib/src/xmc_ccu8.c **** 
 297:../Libraries/XMCLib/src/xmc_ccu8.c **** #if defined(PERIPHERAL_RESET_SUPPORTED)
 298:../Libraries/XMCLib/src/xmc_ccu8.c ****   XMC_CCU8_lAssertReset(module);
 299:../Libraries/XMCLib/src/xmc_ccu8.c **** #endif
 300:../Libraries/XMCLib/src/xmc_ccu8.c **** 
 301:../Libraries/XMCLib/src/xmc_ccu8.c **** #if defined(CLOCK_GATING_SUPPORTED)
 302:../Libraries/XMCLib/src/xmc_ccu8.c ****   XMC_CCU8_lGateClock(module);
 303:../Libraries/XMCLib/src/xmc_ccu8.c **** #endif
 304:../Libraries/XMCLib/src/xmc_ccu8.c **** }
  86              	 .loc 1 304 0
  87              	 
  88 0010 08BD     	 pop {r3,pc}
  89              	 .cfi_endproc
  90              	.LFE99:
  92 0012 C046     	 .section .text.XMC_CCU8_Init,"ax",%progbits
  93              	 .align 2
  94              	 .global XMC_CCU8_Init
  95              	 .code 16
  96              	 .thumb_func
  98              	XMC_CCU8_Init:
  99              	.LFB100:
 305:../Libraries/XMCLib/src/xmc_ccu8.c **** 
 306:../Libraries/XMCLib/src/xmc_ccu8.c **** /* API to initialize CCU8 global resources  */
 307:../Libraries/XMCLib/src/xmc_ccu8.c **** void XMC_CCU8_Init(XMC_CCU8_MODULE_t *const module, const XMC_CCU8_SLICE_MCMS_ACTION_t mcs_action)
 308:../Libraries/XMCLib/src/xmc_ccu8.c **** {
 100              	 .loc 1 308 0
 101              	 .cfi_startproc
 102              	.LVL6:
 103 0000 38B5     	 push {r3,r4,r5,lr}
 104              	.LCFI2:
 105              	 .cfi_def_cfa_offset 16
 106              	 .cfi_offset 3,-16
 107              	 .cfi_offset 4,-12
 108              	 .cfi_offset 5,-8
 109              	 .cfi_offset 14,-4
 110              	.LBB22:
 111              	.LBB23:
 112              	.LBB24:
 240:../Libraries/XMCLib/src/xmc_ccu8.c ****   {
 113              	 .loc 1 240 0
 114 0002 A023     	 mov r3,#160
 115              	.LBE24:
 116              	.LBE23:
 117              	.LBE22:
 118              	 .loc 1 308 0
 119 0004 041C     	 mov r4,r0
 120 0006 0D1C     	 mov r5,r1
 121              	.LBB27:
 122              	.LBB26:
 123              	.LBB25:
 240:../Libraries/XMCLib/src/xmc_ccu8.c ****   {
 124              	 .loc 1 240 0
 125 0008 DB05     	 lsl r3,r3,#23
 126 000a 9842     	 cmp r0,r3
 127 000c 02D1     	 bne .L9
 243:../Libraries/XMCLib/src/xmc_ccu8.c ****       break;
 128              	 .loc 1 243 0
 129 000e 0220     	 mov r0,#2
 130              	.LVL7:
 131 0010 FFF7FEFF 	 bl XMC_SCU_CLOCK_UngatePeripheralClock
 132              	.LVL8:
 133              	.L9:
 134              	.LBE25:
 135              	.LBE26:
 136              	.LBE27:
 137              	.LBB28:
 138              	.LBB29:
 139              	 .file 2 "C:/Users/\261\350\260\346\271\316/Desktop/IFX_S2GL-HW-SW_V1.1.3/Firmware_Software/DAVE project/S2GL_Doppler/Libraries/XMCLib/inc/xmc_ccu8.h"
   1:C:/Users/±è°æ¹Î/Desktop/IFX_S2GL-HW-SW_V1.1.3/Firmware_Software/DAVE project/S2GL_Doppler/Libraries/XMCLib/inc\xmc_ccu8.h **** /**
   2:C:/Users/±è°æ¹Î/Desktop/IFX_S2GL-HW-SW_V1.1.3/Firmware_Software/DAVE project/S2GL_Doppler/Libraries/XMCLib/inc\xmc_ccu8.h ****  * @file xmc_ccu8.h
   3:C:/Users/±è°æ¹Î/Desktop/IFX_S2GL-HW-SW_V1.1.3/Firmware_Software/DAVE project/S2GL_Doppler/Libraries/XMCLib/inc\xmc_ccu8.h ****  * @date 2016-03-09
   4:C:/Users/±è°æ¹Î/Desktop/IFX_S2GL-HW-SW_V1.1.3/Firmware_Software/DAVE project/S2GL_Doppler/Libraries/XMCLib/inc\xmc_ccu8.h ****  *
   5:C:/Users/±è°æ¹Î/Desktop/IFX_S2GL-HW-SW_V1.1.3/Firmware_Software/DAVE project/S2GL_Doppler/Libraries/XMCLib/inc\xmc_ccu8.h ****  * @cond
   6:C:/Users/±è°æ¹Î/Desktop/IFX_S2GL-HW-SW_V1.1.3/Firmware_Software/DAVE project/S2GL_Doppler/Libraries/XMCLib/inc\xmc_ccu8.h ****  **************************************************************************************************
   7:C:/Users/±è°æ¹Î/Desktop/IFX_S2GL-HW-SW_V1.1.3/Firmware_Software/DAVE project/S2GL_Doppler/Libraries/XMCLib/inc\xmc_ccu8.h ****  * XMClib v2.1.6 - XMC Peripheral Driver Library 
   8:C:/Users/±è°æ¹Î/Desktop/IFX_S2GL-HW-SW_V1.1.3/Firmware_Software/DAVE project/S2GL_Doppler/Libraries/XMCLib/inc\xmc_ccu8.h ****  *
   9:C:/Users/±è°æ¹Î/Desktop/IFX_S2GL-HW-SW_V1.1.3/Firmware_Software/DAVE project/S2GL_Doppler/Libraries/XMCLib/inc\xmc_ccu8.h ****  * Copyright (C) 2015-2019 Infineon Technologies AG
  10:C:/Users/±è°æ¹Î/Desktop/IFX_S2GL-HW-SW_V1.1.3/Firmware_Software/DAVE project/S2GL_Doppler/Libraries/XMCLib/inc\xmc_ccu8.h ****  * All rights reserved.                        
  11:C:/Users/±è°æ¹Î/Desktop/IFX_S2GL-HW-SW_V1.1.3/Firmware_Software/DAVE project/S2GL_Doppler/Libraries/XMCLib/inc\xmc_ccu8.h ****  *                                             
  12:C:/Users/±è°æ¹Î/Desktop/IFX_S2GL-HW-SW_V1.1.3/Firmware_Software/DAVE project/S2GL_Doppler/Libraries/XMCLib/inc\xmc_ccu8.h ****  * Redistribution and use in source and binary forms, with or without modification,are permitted pr
  13:C:/Users/±è°æ¹Î/Desktop/IFX_S2GL-HW-SW_V1.1.3/Firmware_Software/DAVE project/S2GL_Doppler/Libraries/XMCLib/inc\xmc_ccu8.h ****  * following conditions are met:   
  14:C:/Users/±è°æ¹Î/Desktop/IFX_S2GL-HW-SW_V1.1.3/Firmware_Software/DAVE project/S2GL_Doppler/Libraries/XMCLib/inc\xmc_ccu8.h ****  *                                                                              
  15:C:/Users/±è°æ¹Î/Desktop/IFX_S2GL-HW-SW_V1.1.3/Firmware_Software/DAVE project/S2GL_Doppler/Libraries/XMCLib/inc\xmc_ccu8.h ****  * Redistributions of source code must retain the above copyright notice, this list of conditions a
  16:C:/Users/±è°æ¹Î/Desktop/IFX_S2GL-HW-SW_V1.1.3/Firmware_Software/DAVE project/S2GL_Doppler/Libraries/XMCLib/inc\xmc_ccu8.h ****  * disclaimer.                        
  17:C:/Users/±è°æ¹Î/Desktop/IFX_S2GL-HW-SW_V1.1.3/Firmware_Software/DAVE project/S2GL_Doppler/Libraries/XMCLib/inc\xmc_ccu8.h ****  * 
  18:C:/Users/±è°æ¹Î/Desktop/IFX_S2GL-HW-SW_V1.1.3/Firmware_Software/DAVE project/S2GL_Doppler/Libraries/XMCLib/inc\xmc_ccu8.h ****  * Redistributions in binary form must reproduce the above copyright notice, this list of condition
  19:C:/Users/±è°æ¹Î/Desktop/IFX_S2GL-HW-SW_V1.1.3/Firmware_Software/DAVE project/S2GL_Doppler/Libraries/XMCLib/inc\xmc_ccu8.h ****  * disclaimer in the documentation and/or other materials provided with the distribution.          
  20:C:/Users/±è°æ¹Î/Desktop/IFX_S2GL-HW-SW_V1.1.3/Firmware_Software/DAVE project/S2GL_Doppler/Libraries/XMCLib/inc\xmc_ccu8.h ****  * 
  21:C:/Users/±è°æ¹Î/Desktop/IFX_S2GL-HW-SW_V1.1.3/Firmware_Software/DAVE project/S2GL_Doppler/Libraries/XMCLib/inc\xmc_ccu8.h ****  * Neither the name of the copyright holders nor the names of its contributors may be used to endor
  22:C:/Users/±è°æ¹Î/Desktop/IFX_S2GL-HW-SW_V1.1.3/Firmware_Software/DAVE project/S2GL_Doppler/Libraries/XMCLib/inc\xmc_ccu8.h ****  * products derived from this software without specific prior written permission.                  
  23:C:/Users/±è°æ¹Î/Desktop/IFX_S2GL-HW-SW_V1.1.3/Firmware_Software/DAVE project/S2GL_Doppler/Libraries/XMCLib/inc\xmc_ccu8.h ****  *                                                                              
  24:C:/Users/±è°æ¹Î/Desktop/IFX_S2GL-HW-SW_V1.1.3/Firmware_Software/DAVE project/S2GL_Doppler/Libraries/XMCLib/inc\xmc_ccu8.h ****  * THIS SOFTWARE IS PROVIDED BY THE COPYRIGHT HOLDERS AND CONTRIBUTORS "AS IS" AND ANY EXPRESS OR I
  25:C:/Users/±è°æ¹Î/Desktop/IFX_S2GL-HW-SW_V1.1.3/Firmware_Software/DAVE project/S2GL_Doppler/Libraries/XMCLib/inc\xmc_ccu8.h ****  * INCLUDING, BUT NOT LIMITED TO, THE IMPLIED WARRANTIES OF MERCHANTABILITY AND FITNESS FOR A PARTI
  26:C:/Users/±è°æ¹Î/Desktop/IFX_S2GL-HW-SW_V1.1.3/Firmware_Software/DAVE project/S2GL_Doppler/Libraries/XMCLib/inc\xmc_ccu8.h ****  * DISCLAIMED. IN NO EVENT SHALL THE COPYRIGHT HOLDER OR CONTRIBUTORS BE LIABLE  FOR ANY DIRECT, IN
  27:C:/Users/±è°æ¹Î/Desktop/IFX_S2GL-HW-SW_V1.1.3/Firmware_Software/DAVE project/S2GL_Doppler/Libraries/XMCLib/inc\xmc_ccu8.h ****  * SPECIAL, EXEMPLARY, OR CONSEQUENTIAL DAMAGES (INCLUDING, BUT NOT LIMITED TO, PROCUREMENT OF SUBS
  28:C:/Users/±è°æ¹Î/Desktop/IFX_S2GL-HW-SW_V1.1.3/Firmware_Software/DAVE project/S2GL_Doppler/Libraries/XMCLib/inc\xmc_ccu8.h ****  * SERVICES; LOSS OF USE, DATA, OR PROFITS; OR BUSINESS INTERRUPTION) HOWEVER CAUSED AND ON ANY THE
  29:C:/Users/±è°æ¹Î/Desktop/IFX_S2GL-HW-SW_V1.1.3/Firmware_Software/DAVE project/S2GL_Doppler/Libraries/XMCLib/inc\xmc_ccu8.h ****  * WHETHER IN CONTRACT, STRICT LIABILITY,OR TORT (INCLUDING NEGLIGENCE OR OTHERWISE) ARISING IN ANY
  30:C:/Users/±è°æ¹Î/Desktop/IFX_S2GL-HW-SW_V1.1.3/Firmware_Software/DAVE project/S2GL_Doppler/Libraries/XMCLib/inc\xmc_ccu8.h ****  * OF THIS SOFTWARE, EVEN IF ADVISED OF THE POSSIBILITY OF SUCH DAMAGE.                            
  31:C:/Users/±è°æ¹Î/Desktop/IFX_S2GL-HW-SW_V1.1.3/Firmware_Software/DAVE project/S2GL_Doppler/Libraries/XMCLib/inc\xmc_ccu8.h ****  *                                                                              
  32:C:/Users/±è°æ¹Î/Desktop/IFX_S2GL-HW-SW_V1.1.3/Firmware_Software/DAVE project/S2GL_Doppler/Libraries/XMCLib/inc\xmc_ccu8.h ****  * To improve the quality of the software, users are encouraged to share modifications, enhancement
  33:C:/Users/±è°æ¹Î/Desktop/IFX_S2GL-HW-SW_V1.1.3/Firmware_Software/DAVE project/S2GL_Doppler/Libraries/XMCLib/inc\xmc_ccu8.h ****  * Infineon Technologies AG dave@infineon.com).                                                    
  34:C:/Users/±è°æ¹Î/Desktop/IFX_S2GL-HW-SW_V1.1.3/Firmware_Software/DAVE project/S2GL_Doppler/Libraries/XMCLib/inc\xmc_ccu8.h ****  **************************************************************************************************
  35:C:/Users/±è°æ¹Î/Desktop/IFX_S2GL-HW-SW_V1.1.3/Firmware_Software/DAVE project/S2GL_Doppler/Libraries/XMCLib/inc\xmc_ccu8.h ****  *
  36:C:/Users/±è°æ¹Î/Desktop/IFX_S2GL-HW-SW_V1.1.3/Firmware_Software/DAVE project/S2GL_Doppler/Libraries/XMCLib/inc\xmc_ccu8.h ****  * Change History
  37:C:/Users/±è°æ¹Î/Desktop/IFX_S2GL-HW-SW_V1.1.3/Firmware_Software/DAVE project/S2GL_Doppler/Libraries/XMCLib/inc\xmc_ccu8.h ****  * --------------
  38:C:/Users/±è°æ¹Î/Desktop/IFX_S2GL-HW-SW_V1.1.3/Firmware_Software/DAVE project/S2GL_Doppler/Libraries/XMCLib/inc\xmc_ccu8.h ****  *
  39:C:/Users/±è°æ¹Î/Desktop/IFX_S2GL-HW-SW_V1.1.3/Firmware_Software/DAVE project/S2GL_Doppler/Libraries/XMCLib/inc\xmc_ccu8.h ****  * 2015-02-20:
  40:C:/Users/±è°æ¹Î/Desktop/IFX_S2GL-HW-SW_V1.1.3/Firmware_Software/DAVE project/S2GL_Doppler/Libraries/XMCLib/inc\xmc_ccu8.h ****  *     - Initial <br>
  41:C:/Users/±è°æ¹Î/Desktop/IFX_S2GL-HW-SW_V1.1.3/Firmware_Software/DAVE project/S2GL_Doppler/Libraries/XMCLib/inc\xmc_ccu8.h ****  *     - Documentation updates <br>
  42:C:/Users/±è°æ¹Î/Desktop/IFX_S2GL-HW-SW_V1.1.3/Firmware_Software/DAVE project/S2GL_Doppler/Libraries/XMCLib/inc\xmc_ccu8.h ****  *
  43:C:/Users/±è°æ¹Î/Desktop/IFX_S2GL-HW-SW_V1.1.3/Firmware_Software/DAVE project/S2GL_Doppler/Libraries/XMCLib/inc\xmc_ccu8.h ****  * 2015-06-20:
  44:C:/Users/±è°æ¹Î/Desktop/IFX_S2GL-HW-SW_V1.1.3/Firmware_Software/DAVE project/S2GL_Doppler/Libraries/XMCLib/inc\xmc_ccu8.h ****  *     - Removed version macros and declaration of GetDriverVersion API <br>
  45:C:/Users/±è°æ¹Î/Desktop/IFX_S2GL-HW-SW_V1.1.3/Firmware_Software/DAVE project/S2GL_Doppler/Libraries/XMCLib/inc\xmc_ccu8.h ****  *     - Added XMC_CCU8_SLICE_LoadSelector() API, to select which compare register value has to be 
  46:C:/Users/±è°æ¹Î/Desktop/IFX_S2GL-HW-SW_V1.1.3/Firmware_Software/DAVE project/S2GL_Doppler/Libraries/XMCLib/inc\xmc_ccu8.h ****  *       during external load event.
  47:C:/Users/±è°æ¹Î/Desktop/IFX_S2GL-HW-SW_V1.1.3/Firmware_Software/DAVE project/S2GL_Doppler/Libraries/XMCLib/inc\xmc_ccu8.h ****  *
  48:C:/Users/±è°æ¹Î/Desktop/IFX_S2GL-HW-SW_V1.1.3/Firmware_Software/DAVE project/S2GL_Doppler/Libraries/XMCLib/inc\xmc_ccu8.h ****  * 2015-07-01:
  49:C:/Users/±è°æ¹Î/Desktop/IFX_S2GL-HW-SW_V1.1.3/Firmware_Software/DAVE project/S2GL_Doppler/Libraries/XMCLib/inc\xmc_ccu8.h ****  *     - In XMC_CCU8_SLICE_CHECK_INTERRUPT macro, fixed the missing item for compare match down for
  50:C:/Users/±è°æ¹Î/Desktop/IFX_S2GL-HW-SW_V1.1.3/Firmware_Software/DAVE project/S2GL_Doppler/Libraries/XMCLib/inc\xmc_ccu8.h ****  *
  51:C:/Users/±è°æ¹Î/Desktop/IFX_S2GL-HW-SW_V1.1.3/Firmware_Software/DAVE project/S2GL_Doppler/Libraries/XMCLib/inc\xmc_ccu8.h ****  * 2015-07-24:
  52:C:/Users/±è°æ¹Î/Desktop/IFX_S2GL-HW-SW_V1.1.3/Firmware_Software/DAVE project/S2GL_Doppler/Libraries/XMCLib/inc\xmc_ccu8.h ****  *     - XMC_CCU8_SLICE_ConfigureStatusBitOverrideEvent() is updated to support XMC14 device. <br>
  53:C:/Users/±è°æ¹Î/Desktop/IFX_S2GL-HW-SW_V1.1.3/Firmware_Software/DAVE project/S2GL_Doppler/Libraries/XMCLib/inc\xmc_ccu8.h ****  *
  54:C:/Users/±è°æ¹Î/Desktop/IFX_S2GL-HW-SW_V1.1.3/Firmware_Software/DAVE project/S2GL_Doppler/Libraries/XMCLib/inc\xmc_ccu8.h ****  * 2015-08-17:
  55:C:/Users/±è°æ¹Î/Desktop/IFX_S2GL-HW-SW_V1.1.3/Firmware_Software/DAVE project/S2GL_Doppler/Libraries/XMCLib/inc\xmc_ccu8.h ****  *     - XMC_CCU8_SLICE_PRESCALER_t enum is added to set the prescaler divider. <br>
  56:C:/Users/±è°æ¹Î/Desktop/IFX_S2GL-HW-SW_V1.1.3/Firmware_Software/DAVE project/S2GL_Doppler/Libraries/XMCLib/inc\xmc_ccu8.h ****  *     - XMC_CCU8_SLICE_SHADOW_TRANSFER_MODE_t is added for all the devices except XMC45 devices, t
  57:C:/Users/±è°æ¹Î/Desktop/IFX_S2GL-HW-SW_V1.1.3/Firmware_Software/DAVE project/S2GL_Doppler/Libraries/XMCLib/inc\xmc_ccu8.h ****  *       shadow transfer has to happen. <br>
  58:C:/Users/±è°æ¹Î/Desktop/IFX_S2GL-HW-SW_V1.1.3/Firmware_Software/DAVE project/S2GL_Doppler/Libraries/XMCLib/inc\xmc_ccu8.h ****  *     - XMC_CCU8_SOURCE_OUT0_t, XMC_CCU8_SOURCE_OUT1_t, XMC_CCU8_SOURCE_OUT2_t, XMC_CCU8_SOURCE_OU
  59:C:/Users/±è°æ¹Î/Desktop/IFX_S2GL-HW-SW_V1.1.3/Firmware_Software/DAVE project/S2GL_Doppler/Libraries/XMCLib/inc\xmc_ccu8.h ****  *       to maps one of the ST to OUT0, OUT1, OUT3, OUT4 signals.
  60:C:/Users/±è°æ¹Î/Desktop/IFX_S2GL-HW-SW_V1.1.3/Firmware_Software/DAVE project/S2GL_Doppler/Libraries/XMCLib/inc\xmc_ccu8.h ****  *     - In XMC_CCU8_SLICE_COMPARE_CONFIG_t structure, selector_out0, selector_out1, selector_out2,
  61:C:/Users/±è°æ¹Î/Desktop/IFX_S2GL-HW-SW_V1.1.3/Firmware_Software/DAVE project/S2GL_Doppler/Libraries/XMCLib/inc\xmc_ccu8.h ****  *       added to support XMC14 devices.
  62:C:/Users/±è°æ¹Î/Desktop/IFX_S2GL-HW-SW_V1.1.3/Firmware_Software/DAVE project/S2GL_Doppler/Libraries/XMCLib/inc\xmc_ccu8.h ****  *     - XMC_CCU8_EnableShadowTransfer() API is made as inline, to improve the speed. <br>
  63:C:/Users/±è°æ¹Î/Desktop/IFX_S2GL-HW-SW_V1.1.3/Firmware_Software/DAVE project/S2GL_Doppler/Libraries/XMCLib/inc\xmc_ccu8.h ****  *     - XMC_CCU8_SLICE_EnableCascadedShadowTransfer(), XMC_CCU8_SLICE_DisableCascadedShadowTransfe
  64:C:/Users/±è°æ¹Î/Desktop/IFX_S2GL-HW-SW_V1.1.3/Firmware_Software/DAVE project/S2GL_Doppler/Libraries/XMCLib/inc\xmc_ccu8.h ****  *       XMC_CCU8_SLICE_SetShadowTransferMode() API are supported for all the devices except XMC45.
  65:C:/Users/±è°æ¹Î/Desktop/IFX_S2GL-HW-SW_V1.1.3/Firmware_Software/DAVE project/S2GL_Doppler/Libraries/XMCLib/inc\xmc_ccu8.h ****  *
  66:C:/Users/±è°æ¹Î/Desktop/IFX_S2GL-HW-SW_V1.1.3/Firmware_Software/DAVE project/S2GL_Doppler/Libraries/XMCLib/inc\xmc_ccu8.h ****  * 2015-09-29:
  67:C:/Users/±è°æ¹Î/Desktop/IFX_S2GL-HW-SW_V1.1.3/Firmware_Software/DAVE project/S2GL_Doppler/Libraries/XMCLib/inc\xmc_ccu8.h ****  *     - In XMC_CCU8_SLICE_EVENT_LEVEL_SENSITIVITY_t, two more enum items are added to support exte
  68:C:/Users/±è°æ¹Î/Desktop/IFX_S2GL-HW-SW_V1.1.3/Firmware_Software/DAVE project/S2GL_Doppler/Libraries/XMCLib/inc\xmc_ccu8.h ****  *       settings.
  69:C:/Users/±è°æ¹Î/Desktop/IFX_S2GL-HW-SW_V1.1.3/Firmware_Software/DAVE project/S2GL_Doppler/Libraries/XMCLib/inc\xmc_ccu8.h ****  *
  70:C:/Users/±è°æ¹Î/Desktop/IFX_S2GL-HW-SW_V1.1.3/Firmware_Software/DAVE project/S2GL_Doppler/Libraries/XMCLib/inc\xmc_ccu8.h ****  * 2015-10-07:
  71:C:/Users/±è°æ¹Î/Desktop/IFX_S2GL-HW-SW_V1.1.3/Firmware_Software/DAVE project/S2GL_Doppler/Libraries/XMCLib/inc\xmc_ccu8.h ****  *     - XMC_CCU8_SLICE_SetTimerCompareMatchChannel1(), XMC_CCU8_SLICE_SetTimerCompareMatchChannel2
  72:C:/Users/±è°æ¹Î/Desktop/IFX_S2GL-HW-SW_V1.1.3/Firmware_Software/DAVE project/S2GL_Doppler/Libraries/XMCLib/inc\xmc_ccu8.h ****  *       added to update the respective compare registers directly.
  73:C:/Users/±è°æ¹Î/Desktop/IFX_S2GL-HW-SW_V1.1.3/Firmware_Software/DAVE project/S2GL_Doppler/Libraries/XMCLib/inc\xmc_ccu8.h ****  *     - XMC_CCU8_SLICE_GetEvent() is made as inline.
  74:C:/Users/±è°æ¹Î/Desktop/IFX_S2GL-HW-SW_V1.1.3/Firmware_Software/DAVE project/S2GL_Doppler/Libraries/XMCLib/inc\xmc_ccu8.h ****  *     - XMC_CCU8_SLICE_MULTI_IRQ_ID_t is added to support the XMC_CCU8_SLICE_EnableMultipleEvents(
  75:C:/Users/±è°æ¹Î/Desktop/IFX_S2GL-HW-SW_V1.1.3/Firmware_Software/DAVE project/S2GL_Doppler/Libraries/XMCLib/inc\xmc_ccu8.h ****  *       XMC_CCU8_SLICE_DisableMultipleEvents() APIs.
  76:C:/Users/±è°æ¹Î/Desktop/IFX_S2GL-HW-SW_V1.1.3/Firmware_Software/DAVE project/S2GL_Doppler/Libraries/XMCLib/inc\xmc_ccu8.h ****  *     - DOC updates for the newly added APIs.
  77:C:/Users/±è°æ¹Î/Desktop/IFX_S2GL-HW-SW_V1.1.3/Firmware_Software/DAVE project/S2GL_Doppler/Libraries/XMCLib/inc\xmc_ccu8.h ****  *
  78:C:/Users/±è°æ¹Î/Desktop/IFX_S2GL-HW-SW_V1.1.3/Firmware_Software/DAVE project/S2GL_Doppler/Libraries/XMCLib/inc\xmc_ccu8.h ****  * 2016-03-09:
  79:C:/Users/±è°æ¹Î/Desktop/IFX_S2GL-HW-SW_V1.1.3/Firmware_Software/DAVE project/S2GL_Doppler/Libraries/XMCLib/inc\xmc_ccu8.h ****  *     - Optimization of write only registers
  80:C:/Users/±è°æ¹Î/Desktop/IFX_S2GL-HW-SW_V1.1.3/Firmware_Software/DAVE project/S2GL_Doppler/Libraries/XMCLib/inc\xmc_ccu8.h ****  *
  81:C:/Users/±è°æ¹Î/Desktop/IFX_S2GL-HW-SW_V1.1.3/Firmware_Software/DAVE project/S2GL_Doppler/Libraries/XMCLib/inc\xmc_ccu8.h ****  * @endcond
  82:C:/Users/±è°æ¹Î/Desktop/IFX_S2GL-HW-SW_V1.1.3/Firmware_Software/DAVE project/S2GL_Doppler/Libraries/XMCLib/inc\xmc_ccu8.h ****  */
  83:C:/Users/±è°æ¹Î/Desktop/IFX_S2GL-HW-SW_V1.1.3/Firmware_Software/DAVE project/S2GL_Doppler/Libraries/XMCLib/inc\xmc_ccu8.h **** 
  84:C:/Users/±è°æ¹Î/Desktop/IFX_S2GL-HW-SW_V1.1.3/Firmware_Software/DAVE project/S2GL_Doppler/Libraries/XMCLib/inc\xmc_ccu8.h **** #ifndef XMC_CCU8_H
  85:C:/Users/±è°æ¹Î/Desktop/IFX_S2GL-HW-SW_V1.1.3/Firmware_Software/DAVE project/S2GL_Doppler/Libraries/XMCLib/inc\xmc_ccu8.h **** #define XMC_CCU8_H
  86:C:/Users/±è°æ¹Î/Desktop/IFX_S2GL-HW-SW_V1.1.3/Firmware_Software/DAVE project/S2GL_Doppler/Libraries/XMCLib/inc\xmc_ccu8.h **** 
  87:C:/Users/±è°æ¹Î/Desktop/IFX_S2GL-HW-SW_V1.1.3/Firmware_Software/DAVE project/S2GL_Doppler/Libraries/XMCLib/inc\xmc_ccu8.h **** /**************************************************************************************************
  88:C:/Users/±è°æ¹Î/Desktop/IFX_S2GL-HW-SW_V1.1.3/Firmware_Software/DAVE project/S2GL_Doppler/Libraries/XMCLib/inc\xmc_ccu8.h ****  * HEADER FILES
  89:C:/Users/±è°æ¹Î/Desktop/IFX_S2GL-HW-SW_V1.1.3/Firmware_Software/DAVE project/S2GL_Doppler/Libraries/XMCLib/inc\xmc_ccu8.h ****  **************************************************************************************************
  90:C:/Users/±è°æ¹Î/Desktop/IFX_S2GL-HW-SW_V1.1.3/Firmware_Software/DAVE project/S2GL_Doppler/Libraries/XMCLib/inc\xmc_ccu8.h **** #include "xmc_common.h"
  91:C:/Users/±è°æ¹Î/Desktop/IFX_S2GL-HW-SW_V1.1.3/Firmware_Software/DAVE project/S2GL_Doppler/Libraries/XMCLib/inc\xmc_ccu8.h **** 
  92:C:/Users/±è°æ¹Î/Desktop/IFX_S2GL-HW-SW_V1.1.3/Firmware_Software/DAVE project/S2GL_Doppler/Libraries/XMCLib/inc\xmc_ccu8.h **** #if defined(CCU80)
  93:C:/Users/±è°æ¹Î/Desktop/IFX_S2GL-HW-SW_V1.1.3/Firmware_Software/DAVE project/S2GL_Doppler/Libraries/XMCLib/inc\xmc_ccu8.h **** 
  94:C:/Users/±è°æ¹Î/Desktop/IFX_S2GL-HW-SW_V1.1.3/Firmware_Software/DAVE project/S2GL_Doppler/Libraries/XMCLib/inc\xmc_ccu8.h **** #if UC_FAMILY == XMC1
  95:C:/Users/±è°æ¹Î/Desktop/IFX_S2GL-HW-SW_V1.1.3/Firmware_Software/DAVE project/S2GL_Doppler/Libraries/XMCLib/inc\xmc_ccu8.h ****  #include "xmc1_ccu8_map.h"
  96:C:/Users/±è°æ¹Î/Desktop/IFX_S2GL-HW-SW_V1.1.3/Firmware_Software/DAVE project/S2GL_Doppler/Libraries/XMCLib/inc\xmc_ccu8.h **** #endif
  97:C:/Users/±è°æ¹Î/Desktop/IFX_S2GL-HW-SW_V1.1.3/Firmware_Software/DAVE project/S2GL_Doppler/Libraries/XMCLib/inc\xmc_ccu8.h **** 
  98:C:/Users/±è°æ¹Î/Desktop/IFX_S2GL-HW-SW_V1.1.3/Firmware_Software/DAVE project/S2GL_Doppler/Libraries/XMCLib/inc\xmc_ccu8.h **** #if UC_FAMILY == XMC4
  99:C:/Users/±è°æ¹Î/Desktop/IFX_S2GL-HW-SW_V1.1.3/Firmware_Software/DAVE project/S2GL_Doppler/Libraries/XMCLib/inc\xmc_ccu8.h ****  #include "xmc4_ccu8_map.h"
 100:C:/Users/±è°æ¹Î/Desktop/IFX_S2GL-HW-SW_V1.1.3/Firmware_Software/DAVE project/S2GL_Doppler/Libraries/XMCLib/inc\xmc_ccu8.h **** #endif
 101:C:/Users/±è°æ¹Î/Desktop/IFX_S2GL-HW-SW_V1.1.3/Firmware_Software/DAVE project/S2GL_Doppler/Libraries/XMCLib/inc\xmc_ccu8.h **** 
 102:C:/Users/±è°æ¹Î/Desktop/IFX_S2GL-HW-SW_V1.1.3/Firmware_Software/DAVE project/S2GL_Doppler/Libraries/XMCLib/inc\xmc_ccu8.h **** /**
 103:C:/Users/±è°æ¹Î/Desktop/IFX_S2GL-HW-SW_V1.1.3/Firmware_Software/DAVE project/S2GL_Doppler/Libraries/XMCLib/inc\xmc_ccu8.h ****  * @addtogroup XMClib XMC Peripheral Library
 104:C:/Users/±è°æ¹Î/Desktop/IFX_S2GL-HW-SW_V1.1.3/Firmware_Software/DAVE project/S2GL_Doppler/Libraries/XMCLib/inc\xmc_ccu8.h ****  * @{
 105:C:/Users/±è°æ¹Î/Desktop/IFX_S2GL-HW-SW_V1.1.3/Firmware_Software/DAVE project/S2GL_Doppler/Libraries/XMCLib/inc\xmc_ccu8.h ****  */
 106:C:/Users/±è°æ¹Î/Desktop/IFX_S2GL-HW-SW_V1.1.3/Firmware_Software/DAVE project/S2GL_Doppler/Libraries/XMCLib/inc\xmc_ccu8.h **** 
 107:C:/Users/±è°æ¹Î/Desktop/IFX_S2GL-HW-SW_V1.1.3/Firmware_Software/DAVE project/S2GL_Doppler/Libraries/XMCLib/inc\xmc_ccu8.h **** /**
 108:C:/Users/±è°æ¹Î/Desktop/IFX_S2GL-HW-SW_V1.1.3/Firmware_Software/DAVE project/S2GL_Doppler/Libraries/XMCLib/inc\xmc_ccu8.h ****  * @addtogroup CCU8
 109:C:/Users/±è°æ¹Î/Desktop/IFX_S2GL-HW-SW_V1.1.3/Firmware_Software/DAVE project/S2GL_Doppler/Libraries/XMCLib/inc\xmc_ccu8.h ****  *
 110:C:/Users/±è°æ¹Î/Desktop/IFX_S2GL-HW-SW_V1.1.3/Firmware_Software/DAVE project/S2GL_Doppler/Libraries/XMCLib/inc\xmc_ccu8.h ****  * @brief Capture Compare Unit 8 (CCU8) low level driver for XMC family of microcontrollers<br>
 111:C:/Users/±è°æ¹Î/Desktop/IFX_S2GL-HW-SW_V1.1.3/Firmware_Software/DAVE project/S2GL_Doppler/Libraries/XMCLib/inc\xmc_ccu8.h ****  *
 112:C:/Users/±è°æ¹Î/Desktop/IFX_S2GL-HW-SW_V1.1.3/Firmware_Software/DAVE project/S2GL_Doppler/Libraries/XMCLib/inc\xmc_ccu8.h ****  * The CCU8 peripheral functions play a major role in applications that need complex Pulse Width Mo
 113:C:/Users/±è°æ¹Î/Desktop/IFX_S2GL-HW-SW_V1.1.3/Firmware_Software/DAVE project/S2GL_Doppler/Libraries/XMCLib/inc\xmc_ccu8.h ****  * generation, with complementary high side and low side switches, multi phase control. These funct
 114:C:/Users/±è°æ¹Î/Desktop/IFX_S2GL-HW-SW_V1.1.3/Firmware_Software/DAVE project/S2GL_Doppler/Libraries/XMCLib/inc\xmc_ccu8.h ****  * with a very flexible and programmable signal conditioning scheme, make the CCU8 the must have pe
 115:C:/Users/±è°æ¹Î/Desktop/IFX_S2GL-HW-SW_V1.1.3/Firmware_Software/DAVE project/S2GL_Doppler/Libraries/XMCLib/inc\xmc_ccu8.h ****  * of the art motor control, multi phase and multi level power electronics systems.\n
 116:C:/Users/±è°æ¹Î/Desktop/IFX_S2GL-HW-SW_V1.1.3/Firmware_Software/DAVE project/S2GL_Doppler/Libraries/XMCLib/inc\xmc_ccu8.h ****  * Each CCU8 module is comprised of four identical 16 bit Capture/Compare Timer slices, CC8y (where
 117:C:/Users/±è°æ¹Î/Desktop/IFX_S2GL-HW-SW_V1.1.3/Firmware_Software/DAVE project/S2GL_Doppler/Libraries/XMCLib/inc\xmc_ccu8.h ****  * timer slice can work in compare mode or in capture mode.
 118:C:/Users/±è°æ¹Î/Desktop/IFX_S2GL-HW-SW_V1.1.3/Firmware_Software/DAVE project/S2GL_Doppler/Libraries/XMCLib/inc\xmc_ccu8.h ****  *
 119:C:/Users/±è°æ¹Î/Desktop/IFX_S2GL-HW-SW_V1.1.3/Firmware_Software/DAVE project/S2GL_Doppler/Libraries/XMCLib/inc\xmc_ccu8.h ****  * APIs provided in this file cover the following functional blocks of CCU8:
 120:C:/Users/±è°æ¹Î/Desktop/IFX_S2GL-HW-SW_V1.1.3/Firmware_Software/DAVE project/S2GL_Doppler/Libraries/XMCLib/inc\xmc_ccu8.h ****  * -- Timer configuration, Capture configuration, Function/Event configuration, Interrupt configura
 121:C:/Users/±è°æ¹Î/Desktop/IFX_S2GL-HW-SW_V1.1.3/Firmware_Software/DAVE project/S2GL_Doppler/Libraries/XMCLib/inc\xmc_ccu8.h ****  * \par Note:
 122:C:/Users/±è°æ¹Î/Desktop/IFX_S2GL-HW-SW_V1.1.3/Firmware_Software/DAVE project/S2GL_Doppler/Libraries/XMCLib/inc\xmc_ccu8.h ****  * 1. SLICE (APIs prefixed with e.g. XMC_CCU8_SLICE_)
 123:C:/Users/±è°æ¹Î/Desktop/IFX_S2GL-HW-SW_V1.1.3/Firmware_Software/DAVE project/S2GL_Doppler/Libraries/XMCLib/inc\xmc_ccu8.h ****  * 2. Module (APIs are not having any prefix e.g. XMC_CCU8_)
 124:C:/Users/±è°æ¹Î/Desktop/IFX_S2GL-HW-SW_V1.1.3/Firmware_Software/DAVE project/S2GL_Doppler/Libraries/XMCLib/inc\xmc_ccu8.h ****  *
 125:C:/Users/±è°æ¹Î/Desktop/IFX_S2GL-HW-SW_V1.1.3/Firmware_Software/DAVE project/S2GL_Doppler/Libraries/XMCLib/inc\xmc_ccu8.h ****  * \par Timer(Compare mode) configuration:
 126:C:/Users/±è°æ¹Î/Desktop/IFX_S2GL-HW-SW_V1.1.3/Firmware_Software/DAVE project/S2GL_Doppler/Libraries/XMCLib/inc\xmc_ccu8.h ****  * This section of the LLD provides the configuration structure XMC_CCU8_SLICE_COMPARE_CONFIG_t, 
 127:C:/Users/±è°æ¹Î/Desktop/IFX_S2GL-HW-SW_V1.1.3/Firmware_Software/DAVE project/S2GL_Doppler/Libraries/XMCLib/inc\xmc_ccu8.h ****  * XMC_CCU8_SLICE_DEAD_TIME_CONFIG_t and the initialization functions XMC_CCU8_SLICE_CompareInit(),
 128:C:/Users/±è°æ¹Î/Desktop/IFX_S2GL-HW-SW_V1.1.3/Firmware_Software/DAVE project/S2GL_Doppler/Libraries/XMCLib/inc\xmc_ccu8.h ****  *
 129:C:/Users/±è°æ¹Î/Desktop/IFX_S2GL-HW-SW_V1.1.3/Firmware_Software/DAVE project/S2GL_Doppler/Libraries/XMCLib/inc\xmc_ccu8.h ****  * It can be used to:
 130:C:/Users/±è°æ¹Î/Desktop/IFX_S2GL-HW-SW_V1.1.3/Firmware_Software/DAVE project/S2GL_Doppler/Libraries/XMCLib/inc\xmc_ccu8.h ****  * -# Start and Stop the timer. (XMC_CCU8_SLICE_StartTimer(), XMC_CCU8_SLICE_StopTimer())
 131:C:/Users/±è°æ¹Î/Desktop/IFX_S2GL-HW-SW_V1.1.3/Firmware_Software/DAVE project/S2GL_Doppler/Libraries/XMCLib/inc\xmc_ccu8.h ****  * -# Update the period, compare, Dither, Prescaler  and Passive values. (XMC_CCU8_SLICE_SetTimerPe
 132:C:/Users/±è°æ¹Î/Desktop/IFX_S2GL-HW-SW_V1.1.3/Firmware_Software/DAVE project/S2GL_Doppler/Libraries/XMCLib/inc\xmc_ccu8.h ****  *    XMC_CCU8_SLICE_SetTimerCompareMatch(), XMC_CCU8_SLICE_SetPrescaler(), XMC_CCU8_SLICE_SetDithe
 133:C:/Users/±è°æ¹Î/Desktop/IFX_S2GL-HW-SW_V1.1.3/Firmware_Software/DAVE project/S2GL_Doppler/Libraries/XMCLib/inc\xmc_ccu8.h ****  *    XMC_CCU8_SLICE_SetPassiveLevel())
 134:C:/Users/±è°æ¹Î/Desktop/IFX_S2GL-HW-SW_V1.1.3/Firmware_Software/DAVE project/S2GL_Doppler/Libraries/XMCLib/inc\xmc_ccu8.h ****  * -# Configure the dead time.(XMC_CCU8_SLICE_SetDeadTimeValue(), XMC_CCU8_SLICE_SetDeadTimePrescal
 135:C:/Users/±è°æ¹Î/Desktop/IFX_S2GL-HW-SW_V1.1.3/Firmware_Software/DAVE project/S2GL_Doppler/Libraries/XMCLib/inc\xmc_ccu8.h ****  * -# Enable the slices to support multichannel mode. (XMC_CCU8_SLICE_EnableMultiChannelMode())
 136:C:/Users/±è°æ¹Î/Desktop/IFX_S2GL-HW-SW_V1.1.3/Firmware_Software/DAVE project/S2GL_Doppler/Libraries/XMCLib/inc\xmc_ccu8.h ****  * 
 137:C:/Users/±è°æ¹Î/Desktop/IFX_S2GL-HW-SW_V1.1.3/Firmware_Software/DAVE project/S2GL_Doppler/Libraries/XMCLib/inc\xmc_ccu8.h ****  * \par Capture configuration:
 138:C:/Users/±è°æ¹Î/Desktop/IFX_S2GL-HW-SW_V1.1.3/Firmware_Software/DAVE project/S2GL_Doppler/Libraries/XMCLib/inc\xmc_ccu8.h ****  * This section of the LLD provides the configuration structure XMC_CCU8_SLICE_CAPTURE_CONFIG_t and
 139:C:/Users/±è°æ¹Î/Desktop/IFX_S2GL-HW-SW_V1.1.3/Firmware_Software/DAVE project/S2GL_Doppler/Libraries/XMCLib/inc\xmc_ccu8.h ****  * function XMC_CCU8_SLICE_CaptureInit().
 140:C:/Users/±è°æ¹Î/Desktop/IFX_S2GL-HW-SW_V1.1.3/Firmware_Software/DAVE project/S2GL_Doppler/Libraries/XMCLib/inc\xmc_ccu8.h ****  *
 141:C:/Users/±è°æ¹Î/Desktop/IFX_S2GL-HW-SW_V1.1.3/Firmware_Software/DAVE project/S2GL_Doppler/Libraries/XMCLib/inc\xmc_ccu8.h ****  * It can be used to:
 142:C:/Users/±è°æ¹Î/Desktop/IFX_S2GL-HW-SW_V1.1.3/Firmware_Software/DAVE project/S2GL_Doppler/Libraries/XMCLib/inc\xmc_ccu8.h ****  * -# Configure the capture functionality. (XMC_CCU8_SLICE_Capture0Config(), XMC_CCU8_SLICE_Capture
 143:C:/Users/±è°æ¹Î/Desktop/IFX_S2GL-HW-SW_V1.1.3/Firmware_Software/DAVE project/S2GL_Doppler/Libraries/XMCLib/inc\xmc_ccu8.h ****  * -# Read the captured values along with the status, which indicate the value is latest or not.
 144:C:/Users/±è°æ¹Î/Desktop/IFX_S2GL-HW-SW_V1.1.3/Firmware_Software/DAVE project/S2GL_Doppler/Libraries/XMCLib/inc\xmc_ccu8.h ****  *    (XMC_CCU8_SLICE_GetCaptureRegisterValue())
 145:C:/Users/±è°æ¹Î/Desktop/IFX_S2GL-HW-SW_V1.1.3/Firmware_Software/DAVE project/S2GL_Doppler/Libraries/XMCLib/inc\xmc_ccu8.h ****  * 
 146:C:/Users/±è°æ¹Î/Desktop/IFX_S2GL-HW-SW_V1.1.3/Firmware_Software/DAVE project/S2GL_Doppler/Libraries/XMCLib/inc\xmc_ccu8.h ****  * \par Function/Event configuration:
 147:C:/Users/±è°æ¹Î/Desktop/IFX_S2GL-HW-SW_V1.1.3/Firmware_Software/DAVE project/S2GL_Doppler/Libraries/XMCLib/inc\xmc_ccu8.h ****  * This section of the LLD provides the configuration structure XMC_CCU8_SLICE_EVENT_CONFIG_t.
 148:C:/Users/±è°æ¹Î/Desktop/IFX_S2GL-HW-SW_V1.1.3/Firmware_Software/DAVE project/S2GL_Doppler/Libraries/XMCLib/inc\xmc_ccu8.h ****  * 
 149:C:/Users/±è°æ¹Î/Desktop/IFX_S2GL-HW-SW_V1.1.3/Firmware_Software/DAVE project/S2GL_Doppler/Libraries/XMCLib/inc\xmc_ccu8.h ****  * It can be used to:
 150:C:/Users/±è°æ¹Î/Desktop/IFX_S2GL-HW-SW_V1.1.3/Firmware_Software/DAVE project/S2GL_Doppler/Libraries/XMCLib/inc\xmc_ccu8.h ****  * -# Enable and Disable the events. (XMC_CCU8_SLICE_EnableEvent(), XMC_CCU8_SLICE_DisableEvent())
 151:C:/Users/±è°æ¹Î/Desktop/IFX_S2GL-HW-SW_V1.1.3/Firmware_Software/DAVE project/S2GL_Doppler/Libraries/XMCLib/inc\xmc_ccu8.h ****  * -# Configure to start and stop the timer on external events.(XMC_CCU8_SLICE_StartConfig(), XMC_C
 152:C:/Users/±è°æ¹Î/Desktop/IFX_S2GL-HW-SW_V1.1.3/Firmware_Software/DAVE project/S2GL_Doppler/Libraries/XMCLib/inc\xmc_ccu8.h ****  * -# Modulation, external load and Gating of the timer output.(XMC_CCU8_SLICE_ModulationConfig(), 
 153:C:/Users/±è°æ¹Î/Desktop/IFX_S2GL-HW-SW_V1.1.3/Firmware_Software/DAVE project/S2GL_Doppler/Libraries/XMCLib/inc\xmc_ccu8.h ****  *    XMC_CCU8_SLICE_LoadConfig(), XMC_CCU8_SLICE_GateConfig())
 154:C:/Users/±è°æ¹Î/Desktop/IFX_S2GL-HW-SW_V1.1.3/Firmware_Software/DAVE project/S2GL_Doppler/Libraries/XMCLib/inc\xmc_ccu8.h ****  * -# Control the count direction of the timer based on the external event. (XMC_CCU8_SLICE_Directi
 155:C:/Users/±è°æ¹Î/Desktop/IFX_S2GL-HW-SW_V1.1.3/Firmware_Software/DAVE project/S2GL_Doppler/Libraries/XMCLib/inc\xmc_ccu8.h ****  * -# Count the external events.(XMC_CCU8_SLICE_CountConfig())
 156:C:/Users/±è°æ¹Î/Desktop/IFX_S2GL-HW-SW_V1.1.3/Firmware_Software/DAVE project/S2GL_Doppler/Libraries/XMCLib/inc\xmc_ccu8.h ****  * -# External Trap. Which can be used as protective feature.(XMC_CCU8_SLICE_EnableTrap(), XMC_CCU8
 157:C:/Users/±è°æ¹Î/Desktop/IFX_S2GL-HW-SW_V1.1.3/Firmware_Software/DAVE project/S2GL_Doppler/Libraries/XMCLib/inc\xmc_ccu8.h ****  *    XMC_CCU8_SLICE_TrapConfig())
 158:C:/Users/±è°æ¹Î/Desktop/IFX_S2GL-HW-SW_V1.1.3/Firmware_Software/DAVE project/S2GL_Doppler/Libraries/XMCLib/inc\xmc_ccu8.h ****  *
 159:C:/Users/±è°æ¹Î/Desktop/IFX_S2GL-HW-SW_V1.1.3/Firmware_Software/DAVE project/S2GL_Doppler/Libraries/XMCLib/inc\xmc_ccu8.h ****  * \par Interrupt configuration:
 160:C:/Users/±è°æ¹Î/Desktop/IFX_S2GL-HW-SW_V1.1.3/Firmware_Software/DAVE project/S2GL_Doppler/Libraries/XMCLib/inc\xmc_ccu8.h ****  * This section of the LLD provides the function to configure the interrupt node to each event (XMC
 161:C:/Users/±è°æ¹Î/Desktop/IFX_S2GL-HW-SW_V1.1.3/Firmware_Software/DAVE project/S2GL_Doppler/Libraries/XMCLib/inc\xmc_ccu8.h ****  *
 162:C:/Users/±è°æ¹Î/Desktop/IFX_S2GL-HW-SW_V1.1.3/Firmware_Software/DAVE project/S2GL_Doppler/Libraries/XMCLib/inc\xmc_ccu8.h ****  * @{
 163:C:/Users/±è°æ¹Î/Desktop/IFX_S2GL-HW-SW_V1.1.3/Firmware_Software/DAVE project/S2GL_Doppler/Libraries/XMCLib/inc\xmc_ccu8.h ****  */
 164:C:/Users/±è°æ¹Î/Desktop/IFX_S2GL-HW-SW_V1.1.3/Firmware_Software/DAVE project/S2GL_Doppler/Libraries/XMCLib/inc\xmc_ccu8.h **** 
 165:C:/Users/±è°æ¹Î/Desktop/IFX_S2GL-HW-SW_V1.1.3/Firmware_Software/DAVE project/S2GL_Doppler/Libraries/XMCLib/inc\xmc_ccu8.h **** /**************************************************************************************************
 166:C:/Users/±è°æ¹Î/Desktop/IFX_S2GL-HW-SW_V1.1.3/Firmware_Software/DAVE project/S2GL_Doppler/Libraries/XMCLib/inc\xmc_ccu8.h ****  * MACROS
 167:C:/Users/±è°æ¹Î/Desktop/IFX_S2GL-HW-SW_V1.1.3/Firmware_Software/DAVE project/S2GL_Doppler/Libraries/XMCLib/inc\xmc_ccu8.h ****  **************************************************************************************************
 168:C:/Users/±è°æ¹Î/Desktop/IFX_S2GL-HW-SW_V1.1.3/Firmware_Software/DAVE project/S2GL_Doppler/Libraries/XMCLib/inc\xmc_ccu8.h **** #define XMC_CCU8_SLICE_CHECK_INTERRUPT(interrupt) \
 169:C:/Users/±è°æ¹Î/Desktop/IFX_S2GL-HW-SW_V1.1.3/Firmware_Software/DAVE project/S2GL_Doppler/Libraries/XMCLib/inc\xmc_ccu8.h ****     ((interrupt == XMC_CCU8_SLICE_IRQ_ID_PERIOD_MATCH)           || \
 170:C:/Users/±è°æ¹Î/Desktop/IFX_S2GL-HW-SW_V1.1.3/Firmware_Software/DAVE project/S2GL_Doppler/Libraries/XMCLib/inc\xmc_ccu8.h ****      (interrupt == XMC_CCU8_SLICE_IRQ_ID_ONE_MATCH)              || \
 171:C:/Users/±è°æ¹Î/Desktop/IFX_S2GL-HW-SW_V1.1.3/Firmware_Software/DAVE project/S2GL_Doppler/Libraries/XMCLib/inc\xmc_ccu8.h ****      (interrupt == XMC_CCU8_SLICE_IRQ_ID_COMPARE_MATCH_UP_CH_1)  || \
 172:C:/Users/±è°æ¹Î/Desktop/IFX_S2GL-HW-SW_V1.1.3/Firmware_Software/DAVE project/S2GL_Doppler/Libraries/XMCLib/inc\xmc_ccu8.h ****      (interrupt == XMC_CCU8_SLICE_IRQ_ID_COMPARE_MATCH_DOWN_CH_1)|| \
 173:C:/Users/±è°æ¹Î/Desktop/IFX_S2GL-HW-SW_V1.1.3/Firmware_Software/DAVE project/S2GL_Doppler/Libraries/XMCLib/inc\xmc_ccu8.h ****      (interrupt == XMC_CCU8_SLICE_IRQ_ID_COMPARE_MATCH_UP_CH_2)  || \
 174:C:/Users/±è°æ¹Î/Desktop/IFX_S2GL-HW-SW_V1.1.3/Firmware_Software/DAVE project/S2GL_Doppler/Libraries/XMCLib/inc\xmc_ccu8.h ****      (interrupt == XMC_CCU8_SLICE_IRQ_ID_COMPARE_MATCH_DOWN_CH_2)|| \
 175:C:/Users/±è°æ¹Î/Desktop/IFX_S2GL-HW-SW_V1.1.3/Firmware_Software/DAVE project/S2GL_Doppler/Libraries/XMCLib/inc\xmc_ccu8.h ****      (interrupt == XMC_CCU8_SLICE_IRQ_ID_EVENT0)                 || \
 176:C:/Users/±è°æ¹Î/Desktop/IFX_S2GL-HW-SW_V1.1.3/Firmware_Software/DAVE project/S2GL_Doppler/Libraries/XMCLib/inc\xmc_ccu8.h ****      (interrupt == XMC_CCU8_SLICE_IRQ_ID_EVENT1)                 || \
 177:C:/Users/±è°æ¹Î/Desktop/IFX_S2GL-HW-SW_V1.1.3/Firmware_Software/DAVE project/S2GL_Doppler/Libraries/XMCLib/inc\xmc_ccu8.h ****      (interrupt == XMC_CCU8_SLICE_IRQ_ID_EVENT2)                 || \
 178:C:/Users/±è°æ¹Î/Desktop/IFX_S2GL-HW-SW_V1.1.3/Firmware_Software/DAVE project/S2GL_Doppler/Libraries/XMCLib/inc\xmc_ccu8.h ****      (interrupt == XMC_CCU8_SLICE_IRQ_ID_TRAP))
 179:C:/Users/±è°æ¹Î/Desktop/IFX_S2GL-HW-SW_V1.1.3/Firmware_Software/DAVE project/S2GL_Doppler/Libraries/XMCLib/inc\xmc_ccu8.h ****      
 180:C:/Users/±è°æ¹Î/Desktop/IFX_S2GL-HW-SW_V1.1.3/Firmware_Software/DAVE project/S2GL_Doppler/Libraries/XMCLib/inc\xmc_ccu8.h **** /* Macro to check if the slice ptr passed is valid */
 181:C:/Users/±è°æ¹Î/Desktop/IFX_S2GL-HW-SW_V1.1.3/Firmware_Software/DAVE project/S2GL_Doppler/Libraries/XMCLib/inc\xmc_ccu8.h **** #define XMC_CCU8_SLICE_CHECK_COMP_CHANNEL(cmp_channel) \
 182:C:/Users/±è°æ¹Î/Desktop/IFX_S2GL-HW-SW_V1.1.3/Firmware_Software/DAVE project/S2GL_Doppler/Libraries/XMCLib/inc\xmc_ccu8.h ****     ((cmp_channel == XMC_CCU8_SLICE_COMPARE_CHANNEL_1) || \
 183:C:/Users/±è°æ¹Î/Desktop/IFX_S2GL-HW-SW_V1.1.3/Firmware_Software/DAVE project/S2GL_Doppler/Libraries/XMCLib/inc\xmc_ccu8.h ****      (cmp_channel == XMC_CCU8_SLICE_COMPARE_CHANNEL_2))
 184:C:/Users/±è°æ¹Î/Desktop/IFX_S2GL-HW-SW_V1.1.3/Firmware_Software/DAVE project/S2GL_Doppler/Libraries/XMCLib/inc\xmc_ccu8.h **** 
 185:C:/Users/±è°æ¹Î/Desktop/IFX_S2GL-HW-SW_V1.1.3/Firmware_Software/DAVE project/S2GL_Doppler/Libraries/XMCLib/inc\xmc_ccu8.h **** /**************************************************************************************************
 186:C:/Users/±è°æ¹Î/Desktop/IFX_S2GL-HW-SW_V1.1.3/Firmware_Software/DAVE project/S2GL_Doppler/Libraries/XMCLib/inc\xmc_ccu8.h ****  * ENUMS
 187:C:/Users/±è°æ¹Î/Desktop/IFX_S2GL-HW-SW_V1.1.3/Firmware_Software/DAVE project/S2GL_Doppler/Libraries/XMCLib/inc\xmc_ccu8.h ****  **************************************************************************************************
 188:C:/Users/±è°æ¹Î/Desktop/IFX_S2GL-HW-SW_V1.1.3/Firmware_Software/DAVE project/S2GL_Doppler/Libraries/XMCLib/inc\xmc_ccu8.h **** 
 189:C:/Users/±è°æ¹Î/Desktop/IFX_S2GL-HW-SW_V1.1.3/Firmware_Software/DAVE project/S2GL_Doppler/Libraries/XMCLib/inc\xmc_ccu8.h **** /**
 190:C:/Users/±è°æ¹Î/Desktop/IFX_S2GL-HW-SW_V1.1.3/Firmware_Software/DAVE project/S2GL_Doppler/Libraries/XMCLib/inc\xmc_ccu8.h ****  * Typedef for CCU8 Global data structure
 191:C:/Users/±è°æ¹Î/Desktop/IFX_S2GL-HW-SW_V1.1.3/Firmware_Software/DAVE project/S2GL_Doppler/Libraries/XMCLib/inc\xmc_ccu8.h ****  */
 192:C:/Users/±è°æ¹Î/Desktop/IFX_S2GL-HW-SW_V1.1.3/Firmware_Software/DAVE project/S2GL_Doppler/Libraries/XMCLib/inc\xmc_ccu8.h **** typedef CCU8_GLOBAL_TypeDef XMC_CCU8_MODULE_t;
 193:C:/Users/±è°æ¹Î/Desktop/IFX_S2GL-HW-SW_V1.1.3/Firmware_Software/DAVE project/S2GL_Doppler/Libraries/XMCLib/inc\xmc_ccu8.h **** 
 194:C:/Users/±è°æ¹Î/Desktop/IFX_S2GL-HW-SW_V1.1.3/Firmware_Software/DAVE project/S2GL_Doppler/Libraries/XMCLib/inc\xmc_ccu8.h **** /**
 195:C:/Users/±è°æ¹Î/Desktop/IFX_S2GL-HW-SW_V1.1.3/Firmware_Software/DAVE project/S2GL_Doppler/Libraries/XMCLib/inc\xmc_ccu8.h ****  * Typedef for CCU8 Slice data structure
 196:C:/Users/±è°æ¹Î/Desktop/IFX_S2GL-HW-SW_V1.1.3/Firmware_Software/DAVE project/S2GL_Doppler/Libraries/XMCLib/inc\xmc_ccu8.h ****  */
 197:C:/Users/±è°æ¹Î/Desktop/IFX_S2GL-HW-SW_V1.1.3/Firmware_Software/DAVE project/S2GL_Doppler/Libraries/XMCLib/inc\xmc_ccu8.h **** typedef CCU8_CC8_TypeDef XMC_CCU8_SLICE_t;
 198:C:/Users/±è°æ¹Î/Desktop/IFX_S2GL-HW-SW_V1.1.3/Firmware_Software/DAVE project/S2GL_Doppler/Libraries/XMCLib/inc\xmc_ccu8.h **** 
 199:C:/Users/±è°æ¹Î/Desktop/IFX_S2GL-HW-SW_V1.1.3/Firmware_Software/DAVE project/S2GL_Doppler/Libraries/XMCLib/inc\xmc_ccu8.h **** /**
 200:C:/Users/±è°æ¹Î/Desktop/IFX_S2GL-HW-SW_V1.1.3/Firmware_Software/DAVE project/S2GL_Doppler/Libraries/XMCLib/inc\xmc_ccu8.h ****  *  Return Value of an API
 201:C:/Users/±è°æ¹Î/Desktop/IFX_S2GL-HW-SW_V1.1.3/Firmware_Software/DAVE project/S2GL_Doppler/Libraries/XMCLib/inc\xmc_ccu8.h ****  */
 202:C:/Users/±è°æ¹Î/Desktop/IFX_S2GL-HW-SW_V1.1.3/Firmware_Software/DAVE project/S2GL_Doppler/Libraries/XMCLib/inc\xmc_ccu8.h **** typedef enum XMC_CCU8_STATUS
 203:C:/Users/±è°æ¹Î/Desktop/IFX_S2GL-HW-SW_V1.1.3/Firmware_Software/DAVE project/S2GL_Doppler/Libraries/XMCLib/inc\xmc_ccu8.h **** {
 204:C:/Users/±è°æ¹Î/Desktop/IFX_S2GL-HW-SW_V1.1.3/Firmware_Software/DAVE project/S2GL_Doppler/Libraries/XMCLib/inc\xmc_ccu8.h ****   XMC_CCU8_STATUS_OK      = 0U, /**< API fulfils request */
 205:C:/Users/±è°æ¹Î/Desktop/IFX_S2GL-HW-SW_V1.1.3/Firmware_Software/DAVE project/S2GL_Doppler/Libraries/XMCLib/inc\xmc_ccu8.h ****   XMC_CCU8_STATUS_ERROR       , /**< API cannot fulfil request */
 206:C:/Users/±è°æ¹Î/Desktop/IFX_S2GL-HW-SW_V1.1.3/Firmware_Software/DAVE project/S2GL_Doppler/Libraries/XMCLib/inc\xmc_ccu8.h ****   XMC_CCU8_STATUS_RUNNING     , /**< The timer slice is currently running */
 207:C:/Users/±è°æ¹Î/Desktop/IFX_S2GL-HW-SW_V1.1.3/Firmware_Software/DAVE project/S2GL_Doppler/Libraries/XMCLib/inc\xmc_ccu8.h ****   XMC_CCU8_STATUS_IDLE          /**< The timer slice is currently idle */
 208:C:/Users/±è°æ¹Î/Desktop/IFX_S2GL-HW-SW_V1.1.3/Firmware_Software/DAVE project/S2GL_Doppler/Libraries/XMCLib/inc\xmc_ccu8.h **** } XMC_CCU8_STATUS_t;
 209:C:/Users/±è°æ¹Î/Desktop/IFX_S2GL-HW-SW_V1.1.3/Firmware_Software/DAVE project/S2GL_Doppler/Libraries/XMCLib/inc\xmc_ccu8.h **** 
 210:C:/Users/±è°æ¹Î/Desktop/IFX_S2GL-HW-SW_V1.1.3/Firmware_Software/DAVE project/S2GL_Doppler/Libraries/XMCLib/inc\xmc_ccu8.h **** /**
 211:C:/Users/±è°æ¹Î/Desktop/IFX_S2GL-HW-SW_V1.1.3/Firmware_Software/DAVE project/S2GL_Doppler/Libraries/XMCLib/inc\xmc_ccu8.h ****  * CCU8 module clock
 212:C:/Users/±è°æ¹Î/Desktop/IFX_S2GL-HW-SW_V1.1.3/Firmware_Software/DAVE project/S2GL_Doppler/Libraries/XMCLib/inc\xmc_ccu8.h ****  */
 213:C:/Users/±è°æ¹Î/Desktop/IFX_S2GL-HW-SW_V1.1.3/Firmware_Software/DAVE project/S2GL_Doppler/Libraries/XMCLib/inc\xmc_ccu8.h **** typedef enum XMC_CCU8_CLOCK
 214:C:/Users/±è°æ¹Î/Desktop/IFX_S2GL-HW-SW_V1.1.3/Firmware_Software/DAVE project/S2GL_Doppler/Libraries/XMCLib/inc\xmc_ccu8.h **** {
 215:C:/Users/±è°æ¹Î/Desktop/IFX_S2GL-HW-SW_V1.1.3/Firmware_Software/DAVE project/S2GL_Doppler/Libraries/XMCLib/inc\xmc_ccu8.h ****   XMC_CCU8_CLOCK_SCU        = 0U, /**< Select the fCCU as the clock */
 216:C:/Users/±è°æ¹Î/Desktop/IFX_S2GL-HW-SW_V1.1.3/Firmware_Software/DAVE project/S2GL_Doppler/Libraries/XMCLib/inc\xmc_ccu8.h ****   XMC_CCU8_CLOCK_EXTERNAL_A     , /**< External clock-A */
 217:C:/Users/±è°æ¹Î/Desktop/IFX_S2GL-HW-SW_V1.1.3/Firmware_Software/DAVE project/S2GL_Doppler/Libraries/XMCLib/inc\xmc_ccu8.h ****   XMC_CCU8_CLOCK_EXTERNAL_B     , /**< External clock-B */
 218:C:/Users/±è°æ¹Î/Desktop/IFX_S2GL-HW-SW_V1.1.3/Firmware_Software/DAVE project/S2GL_Doppler/Libraries/XMCLib/inc\xmc_ccu8.h ****   XMC_CCU8_CLOCK_EXTERNAL_C       /**< External clock-C */
 219:C:/Users/±è°æ¹Î/Desktop/IFX_S2GL-HW-SW_V1.1.3/Firmware_Software/DAVE project/S2GL_Doppler/Libraries/XMCLib/inc\xmc_ccu8.h **** } XMC_CCU8_CLOCK_t;
 220:C:/Users/±è°æ¹Î/Desktop/IFX_S2GL-HW-SW_V1.1.3/Firmware_Software/DAVE project/S2GL_Doppler/Libraries/XMCLib/inc\xmc_ccu8.h **** 
 221:C:/Users/±è°æ¹Î/Desktop/IFX_S2GL-HW-SW_V1.1.3/Firmware_Software/DAVE project/S2GL_Doppler/Libraries/XMCLib/inc\xmc_ccu8.h **** /**
 222:C:/Users/±è°æ¹Î/Desktop/IFX_S2GL-HW-SW_V1.1.3/Firmware_Software/DAVE project/S2GL_Doppler/Libraries/XMCLib/inc\xmc_ccu8.h ****  * CCU8 set the shadow transfer type for multichannel mode
 223:C:/Users/±è°æ¹Î/Desktop/IFX_S2GL-HW-SW_V1.1.3/Firmware_Software/DAVE project/S2GL_Doppler/Libraries/XMCLib/inc\xmc_ccu8.h ****  */
 224:C:/Users/±è°æ¹Î/Desktop/IFX_S2GL-HW-SW_V1.1.3/Firmware_Software/DAVE project/S2GL_Doppler/Libraries/XMCLib/inc\xmc_ccu8.h **** typedef enum XMC_CCU8_MULTI_CHANNEL_SHADOW_TRANSFER
 225:C:/Users/±è°æ¹Î/Desktop/IFX_S2GL-HW-SW_V1.1.3/Firmware_Software/DAVE project/S2GL_Doppler/Libraries/XMCLib/inc\xmc_ccu8.h **** {
 226:C:/Users/±è°æ¹Î/Desktop/IFX_S2GL-HW-SW_V1.1.3/Firmware_Software/DAVE project/S2GL_Doppler/Libraries/XMCLib/inc\xmc_ccu8.h ****   XMC_CCU8_MULTI_CHANNEL_SHADOW_TRANSFER_SW_SLICE0       = (uint32_t)0x4000000, /**< Shadow transfe
 227:C:/Users/±è°æ¹Î/Desktop/IFX_S2GL-HW-SW_V1.1.3/Firmware_Software/DAVE project/S2GL_Doppler/Libraries/XMCLib/inc\xmc_ccu8.h ****                                                                                      only for slice
 228:C:/Users/±è°æ¹Î/Desktop/IFX_S2GL-HW-SW_V1.1.3/Firmware_Software/DAVE project/S2GL_Doppler/Libraries/XMCLib/inc\xmc_ccu8.h ****   XMC_CCU8_MULTI_CHANNEL_SHADOW_TRANSFER_SW_MCSS_SLICE0  = (uint32_t)0x4000400, /**< Shadow transfe
 229:C:/Users/±è°æ¹Î/Desktop/IFX_S2GL-HW-SW_V1.1.3/Firmware_Software/DAVE project/S2GL_Doppler/Libraries/XMCLib/inc\xmc_ccu8.h ****                                                                                      and hardware f
 230:C:/Users/±è°æ¹Î/Desktop/IFX_S2GL-HW-SW_V1.1.3/Firmware_Software/DAVE project/S2GL_Doppler/Libraries/XMCLib/inc\xmc_ccu8.h ****   XMC_CCU8_MULTI_CHANNEL_SHADOW_TRANSFER_SW_SLICE1       = (uint32_t)0x8000000, /**< Shadow transfe
 231:C:/Users/±è°æ¹Î/Desktop/IFX_S2GL-HW-SW_V1.1.3/Firmware_Software/DAVE project/S2GL_Doppler/Libraries/XMCLib/inc\xmc_ccu8.h ****                                                                                      only for slice
 232:C:/Users/±è°æ¹Î/Desktop/IFX_S2GL-HW-SW_V1.1.3/Firmware_Software/DAVE project/S2GL_Doppler/Libraries/XMCLib/inc\xmc_ccu8.h ****   XMC_CCU8_MULTI_CHANNEL_SHADOW_TRANSFER_SW_MCSS_SLICE1  = (uint32_t)0x8000800, /**< Shadow transfe
 233:C:/Users/±è°æ¹Î/Desktop/IFX_S2GL-HW-SW_V1.1.3/Firmware_Software/DAVE project/S2GL_Doppler/Libraries/XMCLib/inc\xmc_ccu8.h ****                                                                                      and hardware f
 234:C:/Users/±è°æ¹Î/Desktop/IFX_S2GL-HW-SW_V1.1.3/Firmware_Software/DAVE project/S2GL_Doppler/Libraries/XMCLib/inc\xmc_ccu8.h ****   XMC_CCU8_MULTI_CHANNEL_SHADOW_TRANSFER_SW_SLICE2       = (uint32_t)0x10000000, /**< Shadow transf
 235:C:/Users/±è°æ¹Î/Desktop/IFX_S2GL-HW-SW_V1.1.3/Firmware_Software/DAVE project/S2GL_Doppler/Libraries/XMCLib/inc\xmc_ccu8.h ****                                                                                       only for slic
 236:C:/Users/±è°æ¹Î/Desktop/IFX_S2GL-HW-SW_V1.1.3/Firmware_Software/DAVE project/S2GL_Doppler/Libraries/XMCLib/inc\xmc_ccu8.h ****   XMC_CCU8_MULTI_CHANNEL_SHADOW_TRANSFER_SW_MCSS_SLICE2  = (uint32_t)0x10001000, /**< Shadow transf
 237:C:/Users/±è°æ¹Î/Desktop/IFX_S2GL-HW-SW_V1.1.3/Firmware_Software/DAVE project/S2GL_Doppler/Libraries/XMCLib/inc\xmc_ccu8.h ****                                                                                       and hardware 
 238:C:/Users/±è°æ¹Î/Desktop/IFX_S2GL-HW-SW_V1.1.3/Firmware_Software/DAVE project/S2GL_Doppler/Libraries/XMCLib/inc\xmc_ccu8.h ****   XMC_CCU8_MULTI_CHANNEL_SHADOW_TRANSFER_SW_SLICE3       = (uint32_t)0x20000000, /**< Shadow transf
 239:C:/Users/±è°æ¹Î/Desktop/IFX_S2GL-HW-SW_V1.1.3/Firmware_Software/DAVE project/S2GL_Doppler/Libraries/XMCLib/inc\xmc_ccu8.h ****                                                                                       only for slic
 240:C:/Users/±è°æ¹Î/Desktop/IFX_S2GL-HW-SW_V1.1.3/Firmware_Software/DAVE project/S2GL_Doppler/Libraries/XMCLib/inc\xmc_ccu8.h ****   XMC_CCU8_MULTI_CHANNEL_SHADOW_TRANSFER_SW_MCSS_SLICE3  = (uint32_t)0x20002000  /**< Shadow transf
 241:C:/Users/±è°æ¹Î/Desktop/IFX_S2GL-HW-SW_V1.1.3/Firmware_Software/DAVE project/S2GL_Doppler/Libraries/XMCLib/inc\xmc_ccu8.h ****                                                                                       and hardware 
 242:C:/Users/±è°æ¹Î/Desktop/IFX_S2GL-HW-SW_V1.1.3/Firmware_Software/DAVE project/S2GL_Doppler/Libraries/XMCLib/inc\xmc_ccu8.h **** } XMC_CCU8_MULTI_CHANNEL_SHADOW_TRANSFER_t;
 243:C:/Users/±è°æ¹Î/Desktop/IFX_S2GL-HW-SW_V1.1.3/Firmware_Software/DAVE project/S2GL_Doppler/Libraries/XMCLib/inc\xmc_ccu8.h **** 
 244:C:/Users/±è°æ¹Î/Desktop/IFX_S2GL-HW-SW_V1.1.3/Firmware_Software/DAVE project/S2GL_Doppler/Libraries/XMCLib/inc\xmc_ccu8.h **** /**
 245:C:/Users/±è°æ¹Î/Desktop/IFX_S2GL-HW-SW_V1.1.3/Firmware_Software/DAVE project/S2GL_Doppler/Libraries/XMCLib/inc\xmc_ccu8.h ****  *  Operational modes of CCU8 slice
 246:C:/Users/±è°æ¹Î/Desktop/IFX_S2GL-HW-SW_V1.1.3/Firmware_Software/DAVE project/S2GL_Doppler/Libraries/XMCLib/inc\xmc_ccu8.h ****  */
 247:C:/Users/±è°æ¹Î/Desktop/IFX_S2GL-HW-SW_V1.1.3/Firmware_Software/DAVE project/S2GL_Doppler/Libraries/XMCLib/inc\xmc_ccu8.h **** typedef enum XMC_CCU8_SLICE_MODE
 248:C:/Users/±è°æ¹Î/Desktop/IFX_S2GL-HW-SW_V1.1.3/Firmware_Software/DAVE project/S2GL_Doppler/Libraries/XMCLib/inc\xmc_ccu8.h **** {
 249:C:/Users/±è°æ¹Î/Desktop/IFX_S2GL-HW-SW_V1.1.3/Firmware_Software/DAVE project/S2GL_Doppler/Libraries/XMCLib/inc\xmc_ccu8.h ****   XMC_CCU8_SLICE_MODE_COMPARE  = 0U, /**< slice(CC8y) operates in Compare Mode */
 250:C:/Users/±è°æ¹Î/Desktop/IFX_S2GL-HW-SW_V1.1.3/Firmware_Software/DAVE project/S2GL_Doppler/Libraries/XMCLib/inc\xmc_ccu8.h ****   XMC_CCU8_SLICE_MODE_CAPTURE        /**< slice(CC8y) operates in Capture Mode */
 251:C:/Users/±è°æ¹Î/Desktop/IFX_S2GL-HW-SW_V1.1.3/Firmware_Software/DAVE project/S2GL_Doppler/Libraries/XMCLib/inc\xmc_ccu8.h **** } XMC_CCU8_SLICE_MODE_t;
 252:C:/Users/±è°æ¹Î/Desktop/IFX_S2GL-HW-SW_V1.1.3/Firmware_Software/DAVE project/S2GL_Doppler/Libraries/XMCLib/inc\xmc_ccu8.h **** 
 253:C:/Users/±è°æ¹Î/Desktop/IFX_S2GL-HW-SW_V1.1.3/Firmware_Software/DAVE project/S2GL_Doppler/Libraries/XMCLib/inc\xmc_ccu8.h **** /**
 254:C:/Users/±è°æ¹Î/Desktop/IFX_S2GL-HW-SW_V1.1.3/Firmware_Software/DAVE project/S2GL_Doppler/Libraries/XMCLib/inc\xmc_ccu8.h ****  * Slice Output selection
 255:C:/Users/±è°æ¹Î/Desktop/IFX_S2GL-HW-SW_V1.1.3/Firmware_Software/DAVE project/S2GL_Doppler/Libraries/XMCLib/inc\xmc_ccu8.h ****  */
 256:C:/Users/±è°æ¹Î/Desktop/IFX_S2GL-HW-SW_V1.1.3/Firmware_Software/DAVE project/S2GL_Doppler/Libraries/XMCLib/inc\xmc_ccu8.h **** typedef enum XMC_CCU8_SLICE_OUTPUT
 257:C:/Users/±è°æ¹Î/Desktop/IFX_S2GL-HW-SW_V1.1.3/Firmware_Software/DAVE project/S2GL_Doppler/Libraries/XMCLib/inc\xmc_ccu8.h **** {
 258:C:/Users/±è°æ¹Î/Desktop/IFX_S2GL-HW-SW_V1.1.3/Firmware_Software/DAVE project/S2GL_Doppler/Libraries/XMCLib/inc\xmc_ccu8.h ****   XMC_CCU8_SLICE_OUTPUT_0  = 1U, /**< Slice Output-0 */
 259:C:/Users/±è°æ¹Î/Desktop/IFX_S2GL-HW-SW_V1.1.3/Firmware_Software/DAVE project/S2GL_Doppler/Libraries/XMCLib/inc\xmc_ccu8.h ****   XMC_CCU8_SLICE_OUTPUT_1  = 2U, /**< Slice Output-1 */
 260:C:/Users/±è°æ¹Î/Desktop/IFX_S2GL-HW-SW_V1.1.3/Firmware_Software/DAVE project/S2GL_Doppler/Libraries/XMCLib/inc\xmc_ccu8.h ****   XMC_CCU8_SLICE_OUTPUT_2  = 4U, /**< Slice Output-2 */
 261:C:/Users/±è°æ¹Î/Desktop/IFX_S2GL-HW-SW_V1.1.3/Firmware_Software/DAVE project/S2GL_Doppler/Libraries/XMCLib/inc\xmc_ccu8.h ****   XMC_CCU8_SLICE_OUTPUT_3  = 8U  /**< Slice Output-3 */
 262:C:/Users/±è°æ¹Î/Desktop/IFX_S2GL-HW-SW_V1.1.3/Firmware_Software/DAVE project/S2GL_Doppler/Libraries/XMCLib/inc\xmc_ccu8.h **** } XMC_CCU8_SLICE_OUTPUT_t;
 263:C:/Users/±è°æ¹Î/Desktop/IFX_S2GL-HW-SW_V1.1.3/Firmware_Software/DAVE project/S2GL_Doppler/Libraries/XMCLib/inc\xmc_ccu8.h **** 
 264:C:/Users/±è°æ¹Î/Desktop/IFX_S2GL-HW-SW_V1.1.3/Firmware_Software/DAVE project/S2GL_Doppler/Libraries/XMCLib/inc\xmc_ccu8.h **** /**
 265:C:/Users/±è°æ¹Î/Desktop/IFX_S2GL-HW-SW_V1.1.3/Firmware_Software/DAVE project/S2GL_Doppler/Libraries/XMCLib/inc\xmc_ccu8.h ****  *  Timer counting modes for the slice
 266:C:/Users/±è°æ¹Î/Desktop/IFX_S2GL-HW-SW_V1.1.3/Firmware_Software/DAVE project/S2GL_Doppler/Libraries/XMCLib/inc\xmc_ccu8.h ****  */
 267:C:/Users/±è°æ¹Î/Desktop/IFX_S2GL-HW-SW_V1.1.3/Firmware_Software/DAVE project/S2GL_Doppler/Libraries/XMCLib/inc\xmc_ccu8.h **** typedef enum XMC_CCU8_SLICE_TIMER_COUNT_MODE
 268:C:/Users/±è°æ¹Î/Desktop/IFX_S2GL-HW-SW_V1.1.3/Firmware_Software/DAVE project/S2GL_Doppler/Libraries/XMCLib/inc\xmc_ccu8.h **** {
 269:C:/Users/±è°æ¹Î/Desktop/IFX_S2GL-HW-SW_V1.1.3/Firmware_Software/DAVE project/S2GL_Doppler/Libraries/XMCLib/inc\xmc_ccu8.h ****   XMC_CCU8_SLICE_TIMER_COUNT_MODE_EA  = 0U, /**< Edge Aligned Mode */
 270:C:/Users/±è°æ¹Î/Desktop/IFX_S2GL-HW-SW_V1.1.3/Firmware_Software/DAVE project/S2GL_Doppler/Libraries/XMCLib/inc\xmc_ccu8.h ****   XMC_CCU8_SLICE_TIMER_COUNT_MODE_CA        /**< Centre Aligned Mode */
 271:C:/Users/±è°æ¹Î/Desktop/IFX_S2GL-HW-SW_V1.1.3/Firmware_Software/DAVE project/S2GL_Doppler/Libraries/XMCLib/inc\xmc_ccu8.h **** } XMC_CCU8_SLICE_TIMER_COUNT_MODE_t;
 272:C:/Users/±è°æ¹Î/Desktop/IFX_S2GL-HW-SW_V1.1.3/Firmware_Software/DAVE project/S2GL_Doppler/Libraries/XMCLib/inc\xmc_ccu8.h **** 
 273:C:/Users/±è°æ¹Î/Desktop/IFX_S2GL-HW-SW_V1.1.3/Firmware_Software/DAVE project/S2GL_Doppler/Libraries/XMCLib/inc\xmc_ccu8.h **** /**
 274:C:/Users/±è°æ¹Î/Desktop/IFX_S2GL-HW-SW_V1.1.3/Firmware_Software/DAVE project/S2GL_Doppler/Libraries/XMCLib/inc\xmc_ccu8.h ****  *  Timer repetition mode for the slice
 275:C:/Users/±è°æ¹Î/Desktop/IFX_S2GL-HW-SW_V1.1.3/Firmware_Software/DAVE project/S2GL_Doppler/Libraries/XMCLib/inc\xmc_ccu8.h ****  */
 276:C:/Users/±è°æ¹Î/Desktop/IFX_S2GL-HW-SW_V1.1.3/Firmware_Software/DAVE project/S2GL_Doppler/Libraries/XMCLib/inc\xmc_ccu8.h **** typedef enum XMC_CCU8_SLICE_TIMER_REPEAT_MODE
 277:C:/Users/±è°æ¹Î/Desktop/IFX_S2GL-HW-SW_V1.1.3/Firmware_Software/DAVE project/S2GL_Doppler/Libraries/XMCLib/inc\xmc_ccu8.h **** {
 278:C:/Users/±è°æ¹Î/Desktop/IFX_S2GL-HW-SW_V1.1.3/Firmware_Software/DAVE project/S2GL_Doppler/Libraries/XMCLib/inc\xmc_ccu8.h ****   XMC_CCU8_SLICE_TIMER_REPEAT_MODE_REPEAT = 0U, /**< Repetitive mode: continuous mode of operation 
 279:C:/Users/±è°æ¹Î/Desktop/IFX_S2GL-HW-SW_V1.1.3/Firmware_Software/DAVE project/S2GL_Doppler/Libraries/XMCLib/inc\xmc_ccu8.h ****   XMC_CCU8_SLICE_TIMER_REPEAT_MODE_SINGLE       /**< Single shot mode: Once a Period match/One matc
 280:C:/Users/±è°æ¹Î/Desktop/IFX_S2GL-HW-SW_V1.1.3/Firmware_Software/DAVE project/S2GL_Doppler/Libraries/XMCLib/inc\xmc_ccu8.h ****                                                      occurs timer goes to idle state */
 281:C:/Users/±è°æ¹Î/Desktop/IFX_S2GL-HW-SW_V1.1.3/Firmware_Software/DAVE project/S2GL_Doppler/Libraries/XMCLib/inc\xmc_ccu8.h **** } XMC_CCU8_SLICE_TIMER_REPEAT_MODE_t;
 282:C:/Users/±è°æ¹Î/Desktop/IFX_S2GL-HW-SW_V1.1.3/Firmware_Software/DAVE project/S2GL_Doppler/Libraries/XMCLib/inc\xmc_ccu8.h **** 
 283:C:/Users/±è°æ¹Î/Desktop/IFX_S2GL-HW-SW_V1.1.3/Firmware_Software/DAVE project/S2GL_Doppler/Libraries/XMCLib/inc\xmc_ccu8.h **** /**
 284:C:/Users/±è°æ¹Î/Desktop/IFX_S2GL-HW-SW_V1.1.3/Firmware_Software/DAVE project/S2GL_Doppler/Libraries/XMCLib/inc\xmc_ccu8.h ****  * Timer counting direction for the CCU8 slice
 285:C:/Users/±è°æ¹Î/Desktop/IFX_S2GL-HW-SW_V1.1.3/Firmware_Software/DAVE project/S2GL_Doppler/Libraries/XMCLib/inc\xmc_ccu8.h ****  */
 286:C:/Users/±è°æ¹Î/Desktop/IFX_S2GL-HW-SW_V1.1.3/Firmware_Software/DAVE project/S2GL_Doppler/Libraries/XMCLib/inc\xmc_ccu8.h **** typedef enum XMC_CCU8_SLICE_TIMER_COUNT_DIR
 287:C:/Users/±è°æ¹Î/Desktop/IFX_S2GL-HW-SW_V1.1.3/Firmware_Software/DAVE project/S2GL_Doppler/Libraries/XMCLib/inc\xmc_ccu8.h **** {
 288:C:/Users/±è°æ¹Î/Desktop/IFX_S2GL-HW-SW_V1.1.3/Firmware_Software/DAVE project/S2GL_Doppler/Libraries/XMCLib/inc\xmc_ccu8.h ****   XMC_CCU8_SLICE_TIMER_COUNT_DIR_UP   = 0U, /**< Counting up */
 289:C:/Users/±è°æ¹Î/Desktop/IFX_S2GL-HW-SW_V1.1.3/Firmware_Software/DAVE project/S2GL_Doppler/Libraries/XMCLib/inc\xmc_ccu8.h ****   XMC_CCU8_SLICE_TIMER_COUNT_DIR_DOWN       /**< Counting down */
 290:C:/Users/±è°æ¹Î/Desktop/IFX_S2GL-HW-SW_V1.1.3/Firmware_Software/DAVE project/S2GL_Doppler/Libraries/XMCLib/inc\xmc_ccu8.h **** } XMC_CCU8_SLICE_TIMER_COUNT_DIR_t;
 291:C:/Users/±è°æ¹Î/Desktop/IFX_S2GL-HW-SW_V1.1.3/Firmware_Software/DAVE project/S2GL_Doppler/Libraries/XMCLib/inc\xmc_ccu8.h **** 
 292:C:/Users/±è°æ¹Î/Desktop/IFX_S2GL-HW-SW_V1.1.3/Firmware_Software/DAVE project/S2GL_Doppler/Libraries/XMCLib/inc\xmc_ccu8.h **** /**
 293:C:/Users/±è°æ¹Î/Desktop/IFX_S2GL-HW-SW_V1.1.3/Firmware_Software/DAVE project/S2GL_Doppler/Libraries/XMCLib/inc\xmc_ccu8.h ****  *  Capture mode register sets
 294:C:/Users/±è°æ¹Î/Desktop/IFX_S2GL-HW-SW_V1.1.3/Firmware_Software/DAVE project/S2GL_Doppler/Libraries/XMCLib/inc\xmc_ccu8.h ****  */
 295:C:/Users/±è°æ¹Î/Desktop/IFX_S2GL-HW-SW_V1.1.3/Firmware_Software/DAVE project/S2GL_Doppler/Libraries/XMCLib/inc\xmc_ccu8.h **** typedef enum XMC_CCU8_SLICE_CAP_REG_SET
 296:C:/Users/±è°æ¹Î/Desktop/IFX_S2GL-HW-SW_V1.1.3/Firmware_Software/DAVE project/S2GL_Doppler/Libraries/XMCLib/inc\xmc_ccu8.h **** {
 297:C:/Users/±è°æ¹Î/Desktop/IFX_S2GL-HW-SW_V1.1.3/Firmware_Software/DAVE project/S2GL_Doppler/Libraries/XMCLib/inc\xmc_ccu8.h ****   XMC_CCU8_SLICE_CAP_REG_SET_LOW  = 0U, /**< Capture register-0, Capture register-1 used */
 298:C:/Users/±è°æ¹Î/Desktop/IFX_S2GL-HW-SW_V1.1.3/Firmware_Software/DAVE project/S2GL_Doppler/Libraries/XMCLib/inc\xmc_ccu8.h ****   XMC_CCU8_SLICE_CAP_REG_SET_HIGH       /**< Capture register-0, Capture register-1 used */
 299:C:/Users/±è°æ¹Î/Desktop/IFX_S2GL-HW-SW_V1.1.3/Firmware_Software/DAVE project/S2GL_Doppler/Libraries/XMCLib/inc\xmc_ccu8.h **** } XMC_CCU8_SLICE_CAP_REG_SET_t;
 300:C:/Users/±è°æ¹Î/Desktop/IFX_S2GL-HW-SW_V1.1.3/Firmware_Software/DAVE project/S2GL_Doppler/Libraries/XMCLib/inc\xmc_ccu8.h **** 
 301:C:/Users/±è°æ¹Î/Desktop/IFX_S2GL-HW-SW_V1.1.3/Firmware_Software/DAVE project/S2GL_Doppler/Libraries/XMCLib/inc\xmc_ccu8.h **** /**
 302:C:/Users/±è°æ¹Î/Desktop/IFX_S2GL-HW-SW_V1.1.3/Firmware_Software/DAVE project/S2GL_Doppler/Libraries/XMCLib/inc\xmc_ccu8.h ****  *  Prescaler mode
 303:C:/Users/±è°æ¹Î/Desktop/IFX_S2GL-HW-SW_V1.1.3/Firmware_Software/DAVE project/S2GL_Doppler/Libraries/XMCLib/inc\xmc_ccu8.h ****  */
 304:C:/Users/±è°æ¹Î/Desktop/IFX_S2GL-HW-SW_V1.1.3/Firmware_Software/DAVE project/S2GL_Doppler/Libraries/XMCLib/inc\xmc_ccu8.h **** typedef enum XMC_CCU8_SLICE_PRESCALER_MODE
 305:C:/Users/±è°æ¹Î/Desktop/IFX_S2GL-HW-SW_V1.1.3/Firmware_Software/DAVE project/S2GL_Doppler/Libraries/XMCLib/inc\xmc_ccu8.h **** {
 306:C:/Users/±è°æ¹Î/Desktop/IFX_S2GL-HW-SW_V1.1.3/Firmware_Software/DAVE project/S2GL_Doppler/Libraries/XMCLib/inc\xmc_ccu8.h ****   XMC_CCU8_SLICE_PRESCALER_MODE_NORMAL = 0U, /**< Fixed division of module clock */
 307:C:/Users/±è°æ¹Î/Desktop/IFX_S2GL-HW-SW_V1.1.3/Firmware_Software/DAVE project/S2GL_Doppler/Libraries/XMCLib/inc\xmc_ccu8.h ****   XMC_CCU8_SLICE_PRESCALER_MODE_FLOAT        /**< Floating divider */
 308:C:/Users/±è°æ¹Î/Desktop/IFX_S2GL-HW-SW_V1.1.3/Firmware_Software/DAVE project/S2GL_Doppler/Libraries/XMCLib/inc\xmc_ccu8.h **** } XMC_CCU8_SLICE_PRESCALER_MODE_t;
 309:C:/Users/±è°æ¹Î/Desktop/IFX_S2GL-HW-SW_V1.1.3/Firmware_Software/DAVE project/S2GL_Doppler/Libraries/XMCLib/inc\xmc_ccu8.h **** 
 310:C:/Users/±è°æ¹Î/Desktop/IFX_S2GL-HW-SW_V1.1.3/Firmware_Software/DAVE project/S2GL_Doppler/Libraries/XMCLib/inc\xmc_ccu8.h **** /**
 311:C:/Users/±è°æ¹Î/Desktop/IFX_S2GL-HW-SW_V1.1.3/Firmware_Software/DAVE project/S2GL_Doppler/Libraries/XMCLib/inc\xmc_ccu8.h ****  *  Timer output passive level
 312:C:/Users/±è°æ¹Î/Desktop/IFX_S2GL-HW-SW_V1.1.3/Firmware_Software/DAVE project/S2GL_Doppler/Libraries/XMCLib/inc\xmc_ccu8.h ****  */
 313:C:/Users/±è°æ¹Î/Desktop/IFX_S2GL-HW-SW_V1.1.3/Firmware_Software/DAVE project/S2GL_Doppler/Libraries/XMCLib/inc\xmc_ccu8.h **** typedef enum XMC_CCU8_SLICE_OUTPUT_PASSIVE_LEVEL
 314:C:/Users/±è°æ¹Î/Desktop/IFX_S2GL-HW-SW_V1.1.3/Firmware_Software/DAVE project/S2GL_Doppler/Libraries/XMCLib/inc\xmc_ccu8.h **** {
 315:C:/Users/±è°æ¹Î/Desktop/IFX_S2GL-HW-SW_V1.1.3/Firmware_Software/DAVE project/S2GL_Doppler/Libraries/XMCLib/inc\xmc_ccu8.h ****   XMC_CCU8_SLICE_OUTPUT_PASSIVE_LEVEL_LOW  = 0U, /**< Passive level = Low */
 316:C:/Users/±è°æ¹Î/Desktop/IFX_S2GL-HW-SW_V1.1.3/Firmware_Software/DAVE project/S2GL_Doppler/Libraries/XMCLib/inc\xmc_ccu8.h ****   XMC_CCU8_SLICE_OUTPUT_PASSIVE_LEVEL_HIGH       /**< Passive level = High */
 317:C:/Users/±è°æ¹Î/Desktop/IFX_S2GL-HW-SW_V1.1.3/Firmware_Software/DAVE project/S2GL_Doppler/Libraries/XMCLib/inc\xmc_ccu8.h **** } XMC_CCU8_SLICE_OUTPUT_PASSIVE_LEVEL_t;
 318:C:/Users/±è°æ¹Î/Desktop/IFX_S2GL-HW-SW_V1.1.3/Firmware_Software/DAVE project/S2GL_Doppler/Libraries/XMCLib/inc\xmc_ccu8.h **** 
 319:C:/Users/±è°æ¹Î/Desktop/IFX_S2GL-HW-SW_V1.1.3/Firmware_Software/DAVE project/S2GL_Doppler/Libraries/XMCLib/inc\xmc_ccu8.h **** /**
 320:C:/Users/±è°æ¹Î/Desktop/IFX_S2GL-HW-SW_V1.1.3/Firmware_Software/DAVE project/S2GL_Doppler/Libraries/XMCLib/inc\xmc_ccu8.h ****  *  Compare Channel selection
 321:C:/Users/±è°æ¹Î/Desktop/IFX_S2GL-HW-SW_V1.1.3/Firmware_Software/DAVE project/S2GL_Doppler/Libraries/XMCLib/inc\xmc_ccu8.h ****  */
 322:C:/Users/±è°æ¹Î/Desktop/IFX_S2GL-HW-SW_V1.1.3/Firmware_Software/DAVE project/S2GL_Doppler/Libraries/XMCLib/inc\xmc_ccu8.h **** typedef enum XMC_CCU8_SLICE_COMPARE_CHANNEL
 323:C:/Users/±è°æ¹Î/Desktop/IFX_S2GL-HW-SW_V1.1.3/Firmware_Software/DAVE project/S2GL_Doppler/Libraries/XMCLib/inc\xmc_ccu8.h **** {
 324:C:/Users/±è°æ¹Î/Desktop/IFX_S2GL-HW-SW_V1.1.3/Firmware_Software/DAVE project/S2GL_Doppler/Libraries/XMCLib/inc\xmc_ccu8.h ****   XMC_CCU8_SLICE_COMPARE_CHANNEL_1  = 0U, /**< Compare Channel-1 */
 325:C:/Users/±è°æ¹Î/Desktop/IFX_S2GL-HW-SW_V1.1.3/Firmware_Software/DAVE project/S2GL_Doppler/Libraries/XMCLib/inc\xmc_ccu8.h ****   XMC_CCU8_SLICE_COMPARE_CHANNEL_2        /**< Compare Channel-2 */
 326:C:/Users/±è°æ¹Î/Desktop/IFX_S2GL-HW-SW_V1.1.3/Firmware_Software/DAVE project/S2GL_Doppler/Libraries/XMCLib/inc\xmc_ccu8.h **** } XMC_CCU8_SLICE_COMPARE_CHANNEL_t;
 327:C:/Users/±è°æ¹Î/Desktop/IFX_S2GL-HW-SW_V1.1.3/Firmware_Software/DAVE project/S2GL_Doppler/Libraries/XMCLib/inc\xmc_ccu8.h **** 
 328:C:/Users/±è°æ¹Î/Desktop/IFX_S2GL-HW-SW_V1.1.3/Firmware_Software/DAVE project/S2GL_Doppler/Libraries/XMCLib/inc\xmc_ccu8.h **** /**
 329:C:/Users/±è°æ¹Î/Desktop/IFX_S2GL-HW-SW_V1.1.3/Firmware_Software/DAVE project/S2GL_Doppler/Libraries/XMCLib/inc\xmc_ccu8.h ****  * Timer clock Divider
 330:C:/Users/±è°æ¹Î/Desktop/IFX_S2GL-HW-SW_V1.1.3/Firmware_Software/DAVE project/S2GL_Doppler/Libraries/XMCLib/inc\xmc_ccu8.h ****  */
 331:C:/Users/±è°æ¹Î/Desktop/IFX_S2GL-HW-SW_V1.1.3/Firmware_Software/DAVE project/S2GL_Doppler/Libraries/XMCLib/inc\xmc_ccu8.h **** typedef enum XMC_CCU8_SLICE_PRESCALER
 332:C:/Users/±è°æ¹Î/Desktop/IFX_S2GL-HW-SW_V1.1.3/Firmware_Software/DAVE project/S2GL_Doppler/Libraries/XMCLib/inc\xmc_ccu8.h **** {
 333:C:/Users/±è°æ¹Î/Desktop/IFX_S2GL-HW-SW_V1.1.3/Firmware_Software/DAVE project/S2GL_Doppler/Libraries/XMCLib/inc\xmc_ccu8.h ****   XMC_CCU8_SLICE_PRESCALER_1  = 0U, /**< Slice Clock = fccu8 */
 334:C:/Users/±è°æ¹Î/Desktop/IFX_S2GL-HW-SW_V1.1.3/Firmware_Software/DAVE project/S2GL_Doppler/Libraries/XMCLib/inc\xmc_ccu8.h ****   XMC_CCU8_SLICE_PRESCALER_2      , /**< Slice Clock = fccu8/2 */
 335:C:/Users/±è°æ¹Î/Desktop/IFX_S2GL-HW-SW_V1.1.3/Firmware_Software/DAVE project/S2GL_Doppler/Libraries/XMCLib/inc\xmc_ccu8.h ****   XMC_CCU8_SLICE_PRESCALER_4      , /**< Slice Clock = fccu8/4 */
 336:C:/Users/±è°æ¹Î/Desktop/IFX_S2GL-HW-SW_V1.1.3/Firmware_Software/DAVE project/S2GL_Doppler/Libraries/XMCLib/inc\xmc_ccu8.h ****   XMC_CCU8_SLICE_PRESCALER_8      , /**< Slice Clock = fccu8/8 */
 337:C:/Users/±è°æ¹Î/Desktop/IFX_S2GL-HW-SW_V1.1.3/Firmware_Software/DAVE project/S2GL_Doppler/Libraries/XMCLib/inc\xmc_ccu8.h ****   XMC_CCU8_SLICE_PRESCALER_16     , /**< Slice Clock = fccu8/16 */
 338:C:/Users/±è°æ¹Î/Desktop/IFX_S2GL-HW-SW_V1.1.3/Firmware_Software/DAVE project/S2GL_Doppler/Libraries/XMCLib/inc\xmc_ccu8.h ****   XMC_CCU8_SLICE_PRESCALER_32     , /**< Slice Clock = fccu8/32 */
 339:C:/Users/±è°æ¹Î/Desktop/IFX_S2GL-HW-SW_V1.1.3/Firmware_Software/DAVE project/S2GL_Doppler/Libraries/XMCLib/inc\xmc_ccu8.h ****   XMC_CCU8_SLICE_PRESCALER_64     , /**< Slice Clock = fccu8/64 */
 340:C:/Users/±è°æ¹Î/Desktop/IFX_S2GL-HW-SW_V1.1.3/Firmware_Software/DAVE project/S2GL_Doppler/Libraries/XMCLib/inc\xmc_ccu8.h ****   XMC_CCU8_SLICE_PRESCALER_128    , /**< Slice Clock = fccu8/128 */
 341:C:/Users/±è°æ¹Î/Desktop/IFX_S2GL-HW-SW_V1.1.3/Firmware_Software/DAVE project/S2GL_Doppler/Libraries/XMCLib/inc\xmc_ccu8.h ****   XMC_CCU8_SLICE_PRESCALER_256    , /**< Slice Clock = fccu8/256 */
 342:C:/Users/±è°æ¹Î/Desktop/IFX_S2GL-HW-SW_V1.1.3/Firmware_Software/DAVE project/S2GL_Doppler/Libraries/XMCLib/inc\xmc_ccu8.h ****   XMC_CCU8_SLICE_PRESCALER_512    , /**< Slice Clock = fccu8/512 */
 343:C:/Users/±è°æ¹Î/Desktop/IFX_S2GL-HW-SW_V1.1.3/Firmware_Software/DAVE project/S2GL_Doppler/Libraries/XMCLib/inc\xmc_ccu8.h ****   XMC_CCU8_SLICE_PRESCALER_1024   , /**< Slice Clock = fccu8/1024 */
 344:C:/Users/±è°æ¹Î/Desktop/IFX_S2GL-HW-SW_V1.1.3/Firmware_Software/DAVE project/S2GL_Doppler/Libraries/XMCLib/inc\xmc_ccu8.h ****   XMC_CCU8_SLICE_PRESCALER_2048   , /**< Slice Clock = fccu8/2048 */
 345:C:/Users/±è°æ¹Î/Desktop/IFX_S2GL-HW-SW_V1.1.3/Firmware_Software/DAVE project/S2GL_Doppler/Libraries/XMCLib/inc\xmc_ccu8.h ****   XMC_CCU8_SLICE_PRESCALER_4096   , /**< Slice Clock = fccu8/4096 */
 346:C:/Users/±è°æ¹Î/Desktop/IFX_S2GL-HW-SW_V1.1.3/Firmware_Software/DAVE project/S2GL_Doppler/Libraries/XMCLib/inc\xmc_ccu8.h ****   XMC_CCU8_SLICE_PRESCALER_8192   , /**< Slice Clock = fccu8/8192 */
 347:C:/Users/±è°æ¹Î/Desktop/IFX_S2GL-HW-SW_V1.1.3/Firmware_Software/DAVE project/S2GL_Doppler/Libraries/XMCLib/inc\xmc_ccu8.h ****   XMC_CCU8_SLICE_PRESCALER_16384  , /**< Slice Clock = fccu8/16384 */
 348:C:/Users/±è°æ¹Î/Desktop/IFX_S2GL-HW-SW_V1.1.3/Firmware_Software/DAVE project/S2GL_Doppler/Libraries/XMCLib/inc\xmc_ccu8.h ****   XMC_CCU8_SLICE_PRESCALER_32768    /**< Slice Clock = fccu8/32768 */
 349:C:/Users/±è°æ¹Î/Desktop/IFX_S2GL-HW-SW_V1.1.3/Firmware_Software/DAVE project/S2GL_Doppler/Libraries/XMCLib/inc\xmc_ccu8.h **** } XMC_CCU8_SLICE_PRESCALER_t;
 350:C:/Users/±è°æ¹Î/Desktop/IFX_S2GL-HW-SW_V1.1.3/Firmware_Software/DAVE project/S2GL_Doppler/Libraries/XMCLib/inc\xmc_ccu8.h **** 
 351:C:/Users/±è°æ¹Î/Desktop/IFX_S2GL-HW-SW_V1.1.3/Firmware_Software/DAVE project/S2GL_Doppler/Libraries/XMCLib/inc\xmc_ccu8.h **** /**
 352:C:/Users/±è°æ¹Î/Desktop/IFX_S2GL-HW-SW_V1.1.3/Firmware_Software/DAVE project/S2GL_Doppler/Libraries/XMCLib/inc\xmc_ccu8.h ****  * Dead Time Generator Clock Divider
 353:C:/Users/±è°æ¹Î/Desktop/IFX_S2GL-HW-SW_V1.1.3/Firmware_Software/DAVE project/S2GL_Doppler/Libraries/XMCLib/inc\xmc_ccu8.h ****  */
 354:C:/Users/±è°æ¹Î/Desktop/IFX_S2GL-HW-SW_V1.1.3/Firmware_Software/DAVE project/S2GL_Doppler/Libraries/XMCLib/inc\xmc_ccu8.h **** typedef enum XMC_CCU8_SLICE_DTC_DIV
 355:C:/Users/±è°æ¹Î/Desktop/IFX_S2GL-HW-SW_V1.1.3/Firmware_Software/DAVE project/S2GL_Doppler/Libraries/XMCLib/inc\xmc_ccu8.h **** {
 356:C:/Users/±è°æ¹Î/Desktop/IFX_S2GL-HW-SW_V1.1.3/Firmware_Software/DAVE project/S2GL_Doppler/Libraries/XMCLib/inc\xmc_ccu8.h ****   XMC_CCU8_SLICE_DTC_DIV_1  = 0U, /**< DTC clock = Slice Clock */
 357:C:/Users/±è°æ¹Î/Desktop/IFX_S2GL-HW-SW_V1.1.3/Firmware_Software/DAVE project/S2GL_Doppler/Libraries/XMCLib/inc\xmc_ccu8.h ****   XMC_CCU8_SLICE_DTC_DIV_2      , /**< DTC clock = Slice Clock/2 */
 358:C:/Users/±è°æ¹Î/Desktop/IFX_S2GL-HW-SW_V1.1.3/Firmware_Software/DAVE project/S2GL_Doppler/Libraries/XMCLib/inc\xmc_ccu8.h ****   XMC_CCU8_SLICE_DTC_DIV_4      , /**< DTC clock = Slice Clock/4 */
 359:C:/Users/±è°æ¹Î/Desktop/IFX_S2GL-HW-SW_V1.1.3/Firmware_Software/DAVE project/S2GL_Doppler/Libraries/XMCLib/inc\xmc_ccu8.h ****   XMC_CCU8_SLICE_DTC_DIV_8        /**< DTC clock = Slice Clock/8 */
 360:C:/Users/±è°æ¹Î/Desktop/IFX_S2GL-HW-SW_V1.1.3/Firmware_Software/DAVE project/S2GL_Doppler/Libraries/XMCLib/inc\xmc_ccu8.h **** } XMC_CCU8_SLICE_DTC_DIV_t;
 361:C:/Users/±è°æ¹Î/Desktop/IFX_S2GL-HW-SW_V1.1.3/Firmware_Software/DAVE project/S2GL_Doppler/Libraries/XMCLib/inc\xmc_ccu8.h **** 
 362:C:/Users/±è°æ¹Î/Desktop/IFX_S2GL-HW-SW_V1.1.3/Firmware_Software/DAVE project/S2GL_Doppler/Libraries/XMCLib/inc\xmc_ccu8.h **** 
 363:C:/Users/±è°æ¹Î/Desktop/IFX_S2GL-HW-SW_V1.1.3/Firmware_Software/DAVE project/S2GL_Doppler/Libraries/XMCLib/inc\xmc_ccu8.h **** /**
 364:C:/Users/±è°æ¹Î/Desktop/IFX_S2GL-HW-SW_V1.1.3/Firmware_Software/DAVE project/S2GL_Doppler/Libraries/XMCLib/inc\xmc_ccu8.h ****  *  The compare channel output which is routed to the slice output signal(STy).
 365:C:/Users/±è°æ¹Î/Desktop/IFX_S2GL-HW-SW_V1.1.3/Firmware_Software/DAVE project/S2GL_Doppler/Libraries/XMCLib/inc\xmc_ccu8.h ****  */
 366:C:/Users/±è°æ¹Î/Desktop/IFX_S2GL-HW-SW_V1.1.3/Firmware_Software/DAVE project/S2GL_Doppler/Libraries/XMCLib/inc\xmc_ccu8.h **** typedef enum XMC_CCU8_SLICE_STATUS
 367:C:/Users/±è°æ¹Î/Desktop/IFX_S2GL-HW-SW_V1.1.3/Firmware_Software/DAVE project/S2GL_Doppler/Libraries/XMCLib/inc\xmc_ccu8.h **** {
 368:C:/Users/±è°æ¹Î/Desktop/IFX_S2GL-HW-SW_V1.1.3/Firmware_Software/DAVE project/S2GL_Doppler/Libraries/XMCLib/inc\xmc_ccu8.h ****   XMC_CCU8_SLICE_STATUS_CHANNEL_1        = 0U, /**< Channel-1 status connected to Slice Status */
 369:C:/Users/±è°æ¹Î/Desktop/IFX_S2GL-HW-SW_V1.1.3/Firmware_Software/DAVE project/S2GL_Doppler/Libraries/XMCLib/inc\xmc_ccu8.h ****   XMC_CCU8_SLICE_STATUS_CHANNEL_2            , /**< Channel-2 status connected to Slice Status */
 370:C:/Users/±è°æ¹Î/Desktop/IFX_S2GL-HW-SW_V1.1.3/Firmware_Software/DAVE project/S2GL_Doppler/Libraries/XMCLib/inc\xmc_ccu8.h ****   XMC_CCU8_SLICE_STATUS_CHANNEL_1_AND_2      , /**< \b Wired \b AND of Channel-1 and Channel-2 stat
 371:C:/Users/±è°æ¹Î/Desktop/IFX_S2GL-HW-SW_V1.1.3/Firmware_Software/DAVE project/S2GL_Doppler/Libraries/XMCLib/inc\xmc_ccu8.h ****                                                     Slice status */
 372:C:/Users/±è°æ¹Î/Desktop/IFX_S2GL-HW-SW_V1.1.3/Firmware_Software/DAVE project/S2GL_Doppler/Libraries/XMCLib/inc\xmc_ccu8.h **** #if ((UC_SERIES == XMC13) || (UC_SERIES == XMC14)) || defined(DOXYGEN)
 373:C:/Users/±è°æ¹Î/Desktop/IFX_S2GL-HW-SW_V1.1.3/Firmware_Software/DAVE project/S2GL_Doppler/Libraries/XMCLib/inc\xmc_ccu8.h ****   XMC_CCU8_SLICE_STATUS_CHANNEL_1_OR_2         /**< \b Wired \b OR of Channel-1 and Channel-2 statu
 374:C:/Users/±è°æ¹Î/Desktop/IFX_S2GL-HW-SW_V1.1.3/Firmware_Software/DAVE project/S2GL_Doppler/Libraries/XMCLib/inc\xmc_ccu8.h ****                                                     status. @note Only available for XMC1300 and XM
 375:C:/Users/±è°æ¹Î/Desktop/IFX_S2GL-HW-SW_V1.1.3/Firmware_Software/DAVE project/S2GL_Doppler/Libraries/XMCLib/inc\xmc_ccu8.h **** #endif
 376:C:/Users/±è°æ¹Î/Desktop/IFX_S2GL-HW-SW_V1.1.3/Firmware_Software/DAVE project/S2GL_Doppler/Libraries/XMCLib/inc\xmc_ccu8.h **** } XMC_CCU8_SLICE_STATUS_t;
 377:C:/Users/±è°æ¹Î/Desktop/IFX_S2GL-HW-SW_V1.1.3/Firmware_Software/DAVE project/S2GL_Doppler/Libraries/XMCLib/inc\xmc_ccu8.h **** 
 378:C:/Users/±è°æ¹Î/Desktop/IFX_S2GL-HW-SW_V1.1.3/Firmware_Software/DAVE project/S2GL_Doppler/Libraries/XMCLib/inc\xmc_ccu8.h **** /**
 379:C:/Users/±è°æ¹Î/Desktop/IFX_S2GL-HW-SW_V1.1.3/Firmware_Software/DAVE project/S2GL_Doppler/Libraries/XMCLib/inc\xmc_ccu8.h ****  *  Compare channel for which modulation has to be applied
 380:C:/Users/±è°æ¹Î/Desktop/IFX_S2GL-HW-SW_V1.1.3/Firmware_Software/DAVE project/S2GL_Doppler/Libraries/XMCLib/inc\xmc_ccu8.h ****  */
 381:C:/Users/±è°æ¹Î/Desktop/IFX_S2GL-HW-SW_V1.1.3/Firmware_Software/DAVE project/S2GL_Doppler/Libraries/XMCLib/inc\xmc_ccu8.h **** typedef enum XMC_CCU8_SLICE_MODULATION_CHANNEL
 382:C:/Users/±è°æ¹Î/Desktop/IFX_S2GL-HW-SW_V1.1.3/Firmware_Software/DAVE project/S2GL_Doppler/Libraries/XMCLib/inc\xmc_ccu8.h **** {
 383:C:/Users/±è°æ¹Î/Desktop/IFX_S2GL-HW-SW_V1.1.3/Firmware_Software/DAVE project/S2GL_Doppler/Libraries/XMCLib/inc\xmc_ccu8.h ****   XMC_CCU8_SLICE_MODULATION_CHANNEL_NONE  = 0U, /**< No modulation */
 384:C:/Users/±è°æ¹Î/Desktop/IFX_S2GL-HW-SW_V1.1.3/Firmware_Software/DAVE project/S2GL_Doppler/Libraries/XMCLib/inc\xmc_ccu8.h ****   XMC_CCU8_SLICE_MODULATION_CHANNEL_1         , /**< Modulation for Compare Channel-1 */
 385:C:/Users/±è°æ¹Î/Desktop/IFX_S2GL-HW-SW_V1.1.3/Firmware_Software/DAVE project/S2GL_Doppler/Libraries/XMCLib/inc\xmc_ccu8.h ****   XMC_CCU8_SLICE_MODULATION_CHANNEL_2         , /**< Modulation for Compare Channel-2 */
 386:C:/Users/±è°æ¹Î/Desktop/IFX_S2GL-HW-SW_V1.1.3/Firmware_Software/DAVE project/S2GL_Doppler/Libraries/XMCLib/inc\xmc_ccu8.h ****   XMC_CCU8_SLICE_MODULATION_CHANNEL_1_AND_2     /**< Modulation for Compare Channel-1 and Compare C
 387:C:/Users/±è°æ¹Î/Desktop/IFX_S2GL-HW-SW_V1.1.3/Firmware_Software/DAVE project/S2GL_Doppler/Libraries/XMCLib/inc\xmc_ccu8.h **** } XMC_CCU8_SLICE_MODULATION_CHANNEL_t;
 388:C:/Users/±è°æ¹Î/Desktop/IFX_S2GL-HW-SW_V1.1.3/Firmware_Software/DAVE project/S2GL_Doppler/Libraries/XMCLib/inc\xmc_ccu8.h **** 
 389:C:/Users/±è°æ¹Î/Desktop/IFX_S2GL-HW-SW_V1.1.3/Firmware_Software/DAVE project/S2GL_Doppler/Libraries/XMCLib/inc\xmc_ccu8.h **** /**
 390:C:/Users/±è°æ¹Î/Desktop/IFX_S2GL-HW-SW_V1.1.3/Firmware_Software/DAVE project/S2GL_Doppler/Libraries/XMCLib/inc\xmc_ccu8.h ****  *  External Function list
 391:C:/Users/±è°æ¹Î/Desktop/IFX_S2GL-HW-SW_V1.1.3/Firmware_Software/DAVE project/S2GL_Doppler/Libraries/XMCLib/inc\xmc_ccu8.h ****  */
 392:C:/Users/±è°æ¹Î/Desktop/IFX_S2GL-HW-SW_V1.1.3/Firmware_Software/DAVE project/S2GL_Doppler/Libraries/XMCLib/inc\xmc_ccu8.h **** typedef enum XMC_CCU8_SLICE_FUNCTION
 393:C:/Users/±è°æ¹Î/Desktop/IFX_S2GL-HW-SW_V1.1.3/Firmware_Software/DAVE project/S2GL_Doppler/Libraries/XMCLib/inc\xmc_ccu8.h **** {
 394:C:/Users/±è°æ¹Î/Desktop/IFX_S2GL-HW-SW_V1.1.3/Firmware_Software/DAVE project/S2GL_Doppler/Libraries/XMCLib/inc\xmc_ccu8.h ****   XMC_CCU8_SLICE_FUNCTION_START           = 0U, /**< Start function */
 395:C:/Users/±è°æ¹Î/Desktop/IFX_S2GL-HW-SW_V1.1.3/Firmware_Software/DAVE project/S2GL_Doppler/Libraries/XMCLib/inc\xmc_ccu8.h ****   XMC_CCU8_SLICE_FUNCTION_STOP                , /**< Stop function */
 396:C:/Users/±è°æ¹Î/Desktop/IFX_S2GL-HW-SW_V1.1.3/Firmware_Software/DAVE project/S2GL_Doppler/Libraries/XMCLib/inc\xmc_ccu8.h ****   XMC_CCU8_SLICE_FUNCTION_CAPTURE_EVENT0      , /**< Capture Event-0 function, CCycapt0 signal is u
 397:C:/Users/±è°æ¹Î/Desktop/IFX_S2GL-HW-SW_V1.1.3/Firmware_Software/DAVE project/S2GL_Doppler/Libraries/XMCLib/inc\xmc_ccu8.h ****                                                      generation */
 398:C:/Users/±è°æ¹Î/Desktop/IFX_S2GL-HW-SW_V1.1.3/Firmware_Software/DAVE project/S2GL_Doppler/Libraries/XMCLib/inc\xmc_ccu8.h ****   XMC_CCU8_SLICE_FUNCTION_CAPTURE_EVENT1      , /**< Capture Event-1 function, CCycapt1 signal is u
 399:C:/Users/±è°æ¹Î/Desktop/IFX_S2GL-HW-SW_V1.1.3/Firmware_Software/DAVE project/S2GL_Doppler/Libraries/XMCLib/inc\xmc_ccu8.h ****                                                      generation */
 400:C:/Users/±è°æ¹Î/Desktop/IFX_S2GL-HW-SW_V1.1.3/Firmware_Software/DAVE project/S2GL_Doppler/Libraries/XMCLib/inc\xmc_ccu8.h ****   XMC_CCU8_SLICE_FUNCTION_GATING              , /**< Gating function */
 401:C:/Users/±è°æ¹Î/Desktop/IFX_S2GL-HW-SW_V1.1.3/Firmware_Software/DAVE project/S2GL_Doppler/Libraries/XMCLib/inc\xmc_ccu8.h ****   XMC_CCU8_SLICE_FUNCTION_DIRECTION           , /**< Direction function */
 402:C:/Users/±è°æ¹Î/Desktop/IFX_S2GL-HW-SW_V1.1.3/Firmware_Software/DAVE project/S2GL_Doppler/Libraries/XMCLib/inc\xmc_ccu8.h ****   XMC_CCU8_SLICE_FUNCTION_LOAD                , /**< Load function */
 403:C:/Users/±è°æ¹Î/Desktop/IFX_S2GL-HW-SW_V1.1.3/Firmware_Software/DAVE project/S2GL_Doppler/Libraries/XMCLib/inc\xmc_ccu8.h ****   XMC_CCU8_SLICE_FUNCTION_COUNT               , /**< Counting function */
 404:C:/Users/±è°æ¹Î/Desktop/IFX_S2GL-HW-SW_V1.1.3/Firmware_Software/DAVE project/S2GL_Doppler/Libraries/XMCLib/inc\xmc_ccu8.h ****   XMC_CCU8_SLICE_FUNCTION_OVERRIDE            , /**< Override function */
 405:C:/Users/±è°æ¹Î/Desktop/IFX_S2GL-HW-SW_V1.1.3/Firmware_Software/DAVE project/S2GL_Doppler/Libraries/XMCLib/inc\xmc_ccu8.h ****   XMC_CCU8_SLICE_FUNCTION_MODULATION          , /**< Modulation function */
 406:C:/Users/±è°æ¹Î/Desktop/IFX_S2GL-HW-SW_V1.1.3/Firmware_Software/DAVE project/S2GL_Doppler/Libraries/XMCLib/inc\xmc_ccu8.h ****   XMC_CCU8_SLICE_FUNCTION_TRAP                  /**< Trap function */
 407:C:/Users/±è°æ¹Î/Desktop/IFX_S2GL-HW-SW_V1.1.3/Firmware_Software/DAVE project/S2GL_Doppler/Libraries/XMCLib/inc\xmc_ccu8.h **** } XMC_CCU8_SLICE_FUNCTION_t;
 408:C:/Users/±è°æ¹Î/Desktop/IFX_S2GL-HW-SW_V1.1.3/Firmware_Software/DAVE project/S2GL_Doppler/Libraries/XMCLib/inc\xmc_ccu8.h **** 
 409:C:/Users/±è°æ¹Î/Desktop/IFX_S2GL-HW-SW_V1.1.3/Firmware_Software/DAVE project/S2GL_Doppler/Libraries/XMCLib/inc\xmc_ccu8.h **** /**
 410:C:/Users/±è°æ¹Î/Desktop/IFX_S2GL-HW-SW_V1.1.3/Firmware_Software/DAVE project/S2GL_Doppler/Libraries/XMCLib/inc\xmc_ccu8.h ****  *  External Event list
 411:C:/Users/±è°æ¹Î/Desktop/IFX_S2GL-HW-SW_V1.1.3/Firmware_Software/DAVE project/S2GL_Doppler/Libraries/XMCLib/inc\xmc_ccu8.h ****  */
 412:C:/Users/±è°æ¹Î/Desktop/IFX_S2GL-HW-SW_V1.1.3/Firmware_Software/DAVE project/S2GL_Doppler/Libraries/XMCLib/inc\xmc_ccu8.h **** typedef enum XMC_CCU8_SLICE_EVENT
 413:C:/Users/±è°æ¹Î/Desktop/IFX_S2GL-HW-SW_V1.1.3/Firmware_Software/DAVE project/S2GL_Doppler/Libraries/XMCLib/inc\xmc_ccu8.h **** {
 414:C:/Users/±è°æ¹Î/Desktop/IFX_S2GL-HW-SW_V1.1.3/Firmware_Software/DAVE project/S2GL_Doppler/Libraries/XMCLib/inc\xmc_ccu8.h ****   XMC_CCU8_SLICE_EVENT_NONE  = 0U, /**< None */
 415:C:/Users/±è°æ¹Î/Desktop/IFX_S2GL-HW-SW_V1.1.3/Firmware_Software/DAVE project/S2GL_Doppler/Libraries/XMCLib/inc\xmc_ccu8.h ****   XMC_CCU8_SLICE_EVENT_0         , /**< Event-0 */
 416:C:/Users/±è°æ¹Î/Desktop/IFX_S2GL-HW-SW_V1.1.3/Firmware_Software/DAVE project/S2GL_Doppler/Libraries/XMCLib/inc\xmc_ccu8.h ****   XMC_CCU8_SLICE_EVENT_1         , /**< Event-1 */
 417:C:/Users/±è°æ¹Î/Desktop/IFX_S2GL-HW-SW_V1.1.3/Firmware_Software/DAVE project/S2GL_Doppler/Libraries/XMCLib/inc\xmc_ccu8.h ****   XMC_CCU8_SLICE_EVENT_2           /**< Event-2 */
 418:C:/Users/±è°æ¹Î/Desktop/IFX_S2GL-HW-SW_V1.1.3/Firmware_Software/DAVE project/S2GL_Doppler/Libraries/XMCLib/inc\xmc_ccu8.h **** } XMC_CCU8_SLICE_EVENT_t;
 419:C:/Users/±è°æ¹Î/Desktop/IFX_S2GL-HW-SW_V1.1.3/Firmware_Software/DAVE project/S2GL_Doppler/Libraries/XMCLib/inc\xmc_ccu8.h **** 
 420:C:/Users/±è°æ¹Î/Desktop/IFX_S2GL-HW-SW_V1.1.3/Firmware_Software/DAVE project/S2GL_Doppler/Libraries/XMCLib/inc\xmc_ccu8.h **** /**
 421:C:/Users/±è°æ¹Î/Desktop/IFX_S2GL-HW-SW_V1.1.3/Firmware_Software/DAVE project/S2GL_Doppler/Libraries/XMCLib/inc\xmc_ccu8.h ****  *  External Event trigger criteria  - Edge sensitivity
 422:C:/Users/±è°æ¹Î/Desktop/IFX_S2GL-HW-SW_V1.1.3/Firmware_Software/DAVE project/S2GL_Doppler/Libraries/XMCLib/inc\xmc_ccu8.h ****  */
 423:C:/Users/±è°æ¹Î/Desktop/IFX_S2GL-HW-SW_V1.1.3/Firmware_Software/DAVE project/S2GL_Doppler/Libraries/XMCLib/inc\xmc_ccu8.h **** typedef enum XMC_CCU8_SLICE_EVENT_EDGE_SENSITIVITY
 424:C:/Users/±è°æ¹Î/Desktop/IFX_S2GL-HW-SW_V1.1.3/Firmware_Software/DAVE project/S2GL_Doppler/Libraries/XMCLib/inc\xmc_ccu8.h **** {
 425:C:/Users/±è°æ¹Î/Desktop/IFX_S2GL-HW-SW_V1.1.3/Firmware_Software/DAVE project/S2GL_Doppler/Libraries/XMCLib/inc\xmc_ccu8.h ****   XMC_CCU8_SLICE_EVENT_EDGE_SENSITIVITY_NONE          = 0U, /**< None */
 426:C:/Users/±è°æ¹Î/Desktop/IFX_S2GL-HW-SW_V1.1.3/Firmware_Software/DAVE project/S2GL_Doppler/Libraries/XMCLib/inc\xmc_ccu8.h ****   XMC_CCU8_SLICE_EVENT_EDGE_SENSITIVITY_RISING_EDGE       , /**< Rising Edge of the input signal ge
 427:C:/Users/±è°æ¹Î/Desktop/IFX_S2GL-HW-SW_V1.1.3/Firmware_Software/DAVE project/S2GL_Doppler/Libraries/XMCLib/inc\xmc_ccu8.h ****                                                                  event trigger */
 428:C:/Users/±è°æ¹Î/Desktop/IFX_S2GL-HW-SW_V1.1.3/Firmware_Software/DAVE project/S2GL_Doppler/Libraries/XMCLib/inc\xmc_ccu8.h ****   XMC_CCU8_SLICE_EVENT_EDGE_SENSITIVITY_FALLING_EDGE      , /**< Falling Edge of the input signal g
 429:C:/Users/±è°æ¹Î/Desktop/IFX_S2GL-HW-SW_V1.1.3/Firmware_Software/DAVE project/S2GL_Doppler/Libraries/XMCLib/inc\xmc_ccu8.h ****                                                                  trigger */
 430:C:/Users/±è°æ¹Î/Desktop/IFX_S2GL-HW-SW_V1.1.3/Firmware_Software/DAVE project/S2GL_Doppler/Libraries/XMCLib/inc\xmc_ccu8.h ****   XMC_CCU8_SLICE_EVENT_EDGE_SENSITIVITY_DUAL_EDGE           /**< Both Rising and Falling edges caus
 431:C:/Users/±è°æ¹Î/Desktop/IFX_S2GL-HW-SW_V1.1.3/Firmware_Software/DAVE project/S2GL_Doppler/Libraries/XMCLib/inc\xmc_ccu8.h **** } XMC_CCU8_SLICE_EVENT_EDGE_SENSITIVITY_t;
 432:C:/Users/±è°æ¹Î/Desktop/IFX_S2GL-HW-SW_V1.1.3/Firmware_Software/DAVE project/S2GL_Doppler/Libraries/XMCLib/inc\xmc_ccu8.h **** 
 433:C:/Users/±è°æ¹Î/Desktop/IFX_S2GL-HW-SW_V1.1.3/Firmware_Software/DAVE project/S2GL_Doppler/Libraries/XMCLib/inc\xmc_ccu8.h **** /**
 434:C:/Users/±è°æ¹Î/Desktop/IFX_S2GL-HW-SW_V1.1.3/Firmware_Software/DAVE project/S2GL_Doppler/Libraries/XMCLib/inc\xmc_ccu8.h ****  *  External Event trigger criteria  - Level sensitivity
 435:C:/Users/±è°æ¹Î/Desktop/IFX_S2GL-HW-SW_V1.1.3/Firmware_Software/DAVE project/S2GL_Doppler/Libraries/XMCLib/inc\xmc_ccu8.h ****  */
 436:C:/Users/±è°æ¹Î/Desktop/IFX_S2GL-HW-SW_V1.1.3/Firmware_Software/DAVE project/S2GL_Doppler/Libraries/XMCLib/inc\xmc_ccu8.h **** typedef enum XMC_CCU8_SLICE_EVENT_LEVEL_SENSITIVITY
 437:C:/Users/±è°æ¹Î/Desktop/IFX_S2GL-HW-SW_V1.1.3/Firmware_Software/DAVE project/S2GL_Doppler/Libraries/XMCLib/inc\xmc_ccu8.h **** {
 438:C:/Users/±è°æ¹Î/Desktop/IFX_S2GL-HW-SW_V1.1.3/Firmware_Software/DAVE project/S2GL_Doppler/Libraries/XMCLib/inc\xmc_ccu8.h ****   XMC_CCU8_SLICE_EVENT_LEVEL_SENSITIVITY_ACTIVE_HIGH = 0U, /**< Level sensitive functions react to 
 439:C:/Users/±è°æ¹Î/Desktop/IFX_S2GL-HW-SW_V1.1.3/Firmware_Software/DAVE project/S2GL_Doppler/Libraries/XMCLib/inc\xmc_ccu8.h ****   XMC_CCU8_SLICE_EVENT_LEVEL_SENSITIVITY_ACTIVE_LOW  = 1U, /**< Level sensitive functions react to 
 440:C:/Users/±è°æ¹Î/Desktop/IFX_S2GL-HW-SW_V1.1.3/Firmware_Software/DAVE project/S2GL_Doppler/Libraries/XMCLib/inc\xmc_ccu8.h ****     /* Below enum items can be utilised specific to the functionality */
 441:C:/Users/±è°æ¹Î/Desktop/IFX_S2GL-HW-SW_V1.1.3/Firmware_Software/DAVE project/S2GL_Doppler/Libraries/XMCLib/inc\xmc_ccu8.h ****   XMC_CCU8_SLICE_EVENT_LEVEL_SENSITIVITY_COUNT_UP_ON_LOW = 0U, /**< Timer counts up, during Low sta
 442:C:/Users/±è°æ¹Î/Desktop/IFX_S2GL-HW-SW_V1.1.3/Firmware_Software/DAVE project/S2GL_Doppler/Libraries/XMCLib/inc\xmc_ccu8.h ****   XMC_CCU8_SLICE_EVENT_LEVEL_SENSITIVITY_COUNT_UP_ON_HIGH = 1U /**< Timer counts up, during High st
 443:C:/Users/±è°æ¹Î/Desktop/IFX_S2GL-HW-SW_V1.1.3/Firmware_Software/DAVE project/S2GL_Doppler/Libraries/XMCLib/inc\xmc_ccu8.h **** } XMC_CCU8_SLICE_EVENT_LEVEL_SENSITIVITY_t;
 444:C:/Users/±è°æ¹Î/Desktop/IFX_S2GL-HW-SW_V1.1.3/Firmware_Software/DAVE project/S2GL_Doppler/Libraries/XMCLib/inc\xmc_ccu8.h **** 
 445:C:/Users/±è°æ¹Î/Desktop/IFX_S2GL-HW-SW_V1.1.3/Firmware_Software/DAVE project/S2GL_Doppler/Libraries/XMCLib/inc\xmc_ccu8.h **** /**
 446:C:/Users/±è°æ¹Î/Desktop/IFX_S2GL-HW-SW_V1.1.3/Firmware_Software/DAVE project/S2GL_Doppler/Libraries/XMCLib/inc\xmc_ccu8.h ****  *  Low pass filter Configuration. The External Event input should be stable for a selected number 
 447:C:/Users/±è°æ¹Î/Desktop/IFX_S2GL-HW-SW_V1.1.3/Firmware_Software/DAVE project/S2GL_Doppler/Libraries/XMCLib/inc\xmc_ccu8.h ****  */
 448:C:/Users/±è°æ¹Î/Desktop/IFX_S2GL-HW-SW_V1.1.3/Firmware_Software/DAVE project/S2GL_Doppler/Libraries/XMCLib/inc\xmc_ccu8.h **** typedef enum XMC_CCU8_SLICE_EVENT_FILTER
 449:C:/Users/±è°æ¹Î/Desktop/IFX_S2GL-HW-SW_V1.1.3/Firmware_Software/DAVE project/S2GL_Doppler/Libraries/XMCLib/inc\xmc_ccu8.h **** {
 450:C:/Users/±è°æ¹Î/Desktop/IFX_S2GL-HW-SW_V1.1.3/Firmware_Software/DAVE project/S2GL_Doppler/Libraries/XMCLib/inc\xmc_ccu8.h ****   XMC_CCU8_SLICE_EVENT_FILTER_DISABLED  = 0U, /**< No Low Pass Filtering is applied */
 451:C:/Users/±è°æ¹Î/Desktop/IFX_S2GL-HW-SW_V1.1.3/Firmware_Software/DAVE project/S2GL_Doppler/Libraries/XMCLib/inc\xmc_ccu8.h ****   XMC_CCU8_SLICE_EVENT_FILTER_3_CYCLES      , /**< Input should be stable for 3 clock cycles */
 452:C:/Users/±è°æ¹Î/Desktop/IFX_S2GL-HW-SW_V1.1.3/Firmware_Software/DAVE project/S2GL_Doppler/Libraries/XMCLib/inc\xmc_ccu8.h ****   XMC_CCU8_SLICE_EVENT_FILTER_5_CYCLES      , /**< Input should be stable for 5 clock cycles */
 453:C:/Users/±è°æ¹Î/Desktop/IFX_S2GL-HW-SW_V1.1.3/Firmware_Software/DAVE project/S2GL_Doppler/Libraries/XMCLib/inc\xmc_ccu8.h ****   XMC_CCU8_SLICE_EVENT_FILTER_7_CYCLES        /**< Input should be stable for 7 clock cycles */
 454:C:/Users/±è°æ¹Î/Desktop/IFX_S2GL-HW-SW_V1.1.3/Firmware_Software/DAVE project/S2GL_Doppler/Libraries/XMCLib/inc\xmc_ccu8.h **** } XMC_CCU8_SLICE_EVENT_FILTER_t;
 455:C:/Users/±è°æ¹Î/Desktop/IFX_S2GL-HW-SW_V1.1.3/Firmware_Software/DAVE project/S2GL_Doppler/Libraries/XMCLib/inc\xmc_ccu8.h **** 
 456:C:/Users/±è°æ¹Î/Desktop/IFX_S2GL-HW-SW_V1.1.3/Firmware_Software/DAVE project/S2GL_Doppler/Libraries/XMCLib/inc\xmc_ccu8.h **** /**
 457:C:/Users/±è°æ¹Î/Desktop/IFX_S2GL-HW-SW_V1.1.3/Firmware_Software/DAVE project/S2GL_Doppler/Libraries/XMCLib/inc\xmc_ccu8.h ****  *  External Event Input list. This list depicts the possible input connections to the CCU8 slice.
 458:C:/Users/±è°æ¹Î/Desktop/IFX_S2GL-HW-SW_V1.1.3/Firmware_Software/DAVE project/S2GL_Doppler/Libraries/XMCLib/inc\xmc_ccu8.h ****  *  Interconnects are specific to each device.
 459:C:/Users/±è°æ¹Î/Desktop/IFX_S2GL-HW-SW_V1.1.3/Firmware_Software/DAVE project/S2GL_Doppler/Libraries/XMCLib/inc\xmc_ccu8.h ****  */
 460:C:/Users/±è°æ¹Î/Desktop/IFX_S2GL-HW-SW_V1.1.3/Firmware_Software/DAVE project/S2GL_Doppler/Libraries/XMCLib/inc\xmc_ccu8.h **** typedef uint8_t XMC_CCU8_SLICE_INPUT_t;
 461:C:/Users/±è°æ¹Î/Desktop/IFX_S2GL-HW-SW_V1.1.3/Firmware_Software/DAVE project/S2GL_Doppler/Libraries/XMCLib/inc\xmc_ccu8.h **** 
 462:C:/Users/±è°æ¹Î/Desktop/IFX_S2GL-HW-SW_V1.1.3/Firmware_Software/DAVE project/S2GL_Doppler/Libraries/XMCLib/inc\xmc_ccu8.h **** 
 463:C:/Users/±è°æ¹Î/Desktop/IFX_S2GL-HW-SW_V1.1.3/Firmware_Software/DAVE project/S2GL_Doppler/Libraries/XMCLib/inc\xmc_ccu8.h **** /**
 464:C:/Users/±è°æ¹Î/Desktop/IFX_S2GL-HW-SW_V1.1.3/Firmware_Software/DAVE project/S2GL_Doppler/Libraries/XMCLib/inc\xmc_ccu8.h ****  * Actions that can be performed upon detection of an external Timer STOP event
 465:C:/Users/±è°æ¹Î/Desktop/IFX_S2GL-HW-SW_V1.1.3/Firmware_Software/DAVE project/S2GL_Doppler/Libraries/XMCLib/inc\xmc_ccu8.h ****  */
 466:C:/Users/±è°æ¹Î/Desktop/IFX_S2GL-HW-SW_V1.1.3/Firmware_Software/DAVE project/S2GL_Doppler/Libraries/XMCLib/inc\xmc_ccu8.h **** typedef enum XMC_CCU8_SLICE_END_MODE
 467:C:/Users/±è°æ¹Î/Desktop/IFX_S2GL-HW-SW_V1.1.3/Firmware_Software/DAVE project/S2GL_Doppler/Libraries/XMCLib/inc\xmc_ccu8.h **** {
 468:C:/Users/±è°æ¹Î/Desktop/IFX_S2GL-HW-SW_V1.1.3/Firmware_Software/DAVE project/S2GL_Doppler/Libraries/XMCLib/inc\xmc_ccu8.h ****   XMC_CCU8_SLICE_END_MODE_TIMER_STOP       = 0U, /**< Stops the timer, without clearing TIMER regis
 469:C:/Users/±è°æ¹Î/Desktop/IFX_S2GL-HW-SW_V1.1.3/Firmware_Software/DAVE project/S2GL_Doppler/Libraries/XMCLib/inc\xmc_ccu8.h ****   XMC_CCU8_SLICE_END_MODE_TIMER_CLEAR          , /**< Without stopping timer, clears the TIMER regi
 470:C:/Users/±è°æ¹Î/Desktop/IFX_S2GL-HW-SW_V1.1.3/Firmware_Software/DAVE project/S2GL_Doppler/Libraries/XMCLib/inc\xmc_ccu8.h ****   XMC_CCU8_SLICE_END_MODE_TIMER_STOP_CLEAR       /**< Stops the timer and clears the TIMER register
 471:C:/Users/±è°æ¹Î/Desktop/IFX_S2GL-HW-SW_V1.1.3/Firmware_Software/DAVE project/S2GL_Doppler/Libraries/XMCLib/inc\xmc_ccu8.h **** } XMC_CCU8_SLICE_END_MODE_t;
 472:C:/Users/±è°æ¹Î/Desktop/IFX_S2GL-HW-SW_V1.1.3/Firmware_Software/DAVE project/S2GL_Doppler/Libraries/XMCLib/inc\xmc_ccu8.h **** 
 473:C:/Users/±è°æ¹Î/Desktop/IFX_S2GL-HW-SW_V1.1.3/Firmware_Software/DAVE project/S2GL_Doppler/Libraries/XMCLib/inc\xmc_ccu8.h **** /**
 474:C:/Users/±è°æ¹Î/Desktop/IFX_S2GL-HW-SW_V1.1.3/Firmware_Software/DAVE project/S2GL_Doppler/Libraries/XMCLib/inc\xmc_ccu8.h ****  *  Actions that can be performed upon detection of an external Timer START event
 475:C:/Users/±è°æ¹Î/Desktop/IFX_S2GL-HW-SW_V1.1.3/Firmware_Software/DAVE project/S2GL_Doppler/Libraries/XMCLib/inc\xmc_ccu8.h ****  */
 476:C:/Users/±è°æ¹Î/Desktop/IFX_S2GL-HW-SW_V1.1.3/Firmware_Software/DAVE project/S2GL_Doppler/Libraries/XMCLib/inc\xmc_ccu8.h **** typedef enum XMC_CCU8_SLICE_START_MODE
 477:C:/Users/±è°æ¹Î/Desktop/IFX_S2GL-HW-SW_V1.1.3/Firmware_Software/DAVE project/S2GL_Doppler/Libraries/XMCLib/inc\xmc_ccu8.h **** {
 478:C:/Users/±è°æ¹Î/Desktop/IFX_S2GL-HW-SW_V1.1.3/Firmware_Software/DAVE project/S2GL_Doppler/Libraries/XMCLib/inc\xmc_ccu8.h ****   XMC_CCU8_SLICE_START_MODE_TIMER_START       = 0U, /**< Start the timer from the current count of 
 479:C:/Users/±è°æ¹Î/Desktop/IFX_S2GL-HW-SW_V1.1.3/Firmware_Software/DAVE project/S2GL_Doppler/Libraries/XMCLib/inc\xmc_ccu8.h ****   XMC_CCU8_SLICE_START_MODE_TIMER_START_CLEAR       /**< Clears the TIMER register and start the ti
 480:C:/Users/±è°æ¹Î/Desktop/IFX_S2GL-HW-SW_V1.1.3/Firmware_Software/DAVE project/S2GL_Doppler/Libraries/XMCLib/inc\xmc_ccu8.h **** } XMC_CCU8_SLICE_START_MODE_t;
 481:C:/Users/±è°æ¹Î/Desktop/IFX_S2GL-HW-SW_V1.1.3/Firmware_Software/DAVE project/S2GL_Doppler/Libraries/XMCLib/inc\xmc_ccu8.h **** 
 482:C:/Users/±è°æ¹Î/Desktop/IFX_S2GL-HW-SW_V1.1.3/Firmware_Software/DAVE project/S2GL_Doppler/Libraries/XMCLib/inc\xmc_ccu8.h **** /**
 483:C:/Users/±è°æ¹Î/Desktop/IFX_S2GL-HW-SW_V1.1.3/Firmware_Software/DAVE project/S2GL_Doppler/Libraries/XMCLib/inc\xmc_ccu8.h ****  *  Modulation of timer output signals
 484:C:/Users/±è°æ¹Î/Desktop/IFX_S2GL-HW-SW_V1.1.3/Firmware_Software/DAVE project/S2GL_Doppler/Libraries/XMCLib/inc\xmc_ccu8.h ****  */
 485:C:/Users/±è°æ¹Î/Desktop/IFX_S2GL-HW-SW_V1.1.3/Firmware_Software/DAVE project/S2GL_Doppler/Libraries/XMCLib/inc\xmc_ccu8.h **** typedef enum XMC_CCU8_SLICE_MODULATION_MODE
 486:C:/Users/±è°æ¹Î/Desktop/IFX_S2GL-HW-SW_V1.1.3/Firmware_Software/DAVE project/S2GL_Doppler/Libraries/XMCLib/inc\xmc_ccu8.h **** {
 487:C:/Users/±è°æ¹Î/Desktop/IFX_S2GL-HW-SW_V1.1.3/Firmware_Software/DAVE project/S2GL_Doppler/Libraries/XMCLib/inc\xmc_ccu8.h ****   XMC_CCU8_SLICE_MODULATION_MODE_CLEAR_ST_OUT  = 0U, /**< Clear ST and OUT signals */
 488:C:/Users/±è°æ¹Î/Desktop/IFX_S2GL-HW-SW_V1.1.3/Firmware_Software/DAVE project/S2GL_Doppler/Libraries/XMCLib/inc\xmc_ccu8.h ****   XMC_CCU8_SLICE_MODULATION_MODE_CLEAR_OUT           /**< Clear only the OUT signal */
 489:C:/Users/±è°æ¹Î/Desktop/IFX_S2GL-HW-SW_V1.1.3/Firmware_Software/DAVE project/S2GL_Doppler/Libraries/XMCLib/inc\xmc_ccu8.h **** } XMC_CCU8_SLICE_MODULATION_MODE_t;
 490:C:/Users/±è°æ¹Î/Desktop/IFX_S2GL-HW-SW_V1.1.3/Firmware_Software/DAVE project/S2GL_Doppler/Libraries/XMCLib/inc\xmc_ccu8.h **** 
 491:C:/Users/±è°æ¹Î/Desktop/IFX_S2GL-HW-SW_V1.1.3/Firmware_Software/DAVE project/S2GL_Doppler/Libraries/XMCLib/inc\xmc_ccu8.h **** /**
 492:C:/Users/±è°æ¹Î/Desktop/IFX_S2GL-HW-SW_V1.1.3/Firmware_Software/DAVE project/S2GL_Doppler/Libraries/XMCLib/inc\xmc_ccu8.h ****  *  Trap exit mode
 493:C:/Users/±è°æ¹Î/Desktop/IFX_S2GL-HW-SW_V1.1.3/Firmware_Software/DAVE project/S2GL_Doppler/Libraries/XMCLib/inc\xmc_ccu8.h ****  */
 494:C:/Users/±è°æ¹Î/Desktop/IFX_S2GL-HW-SW_V1.1.3/Firmware_Software/DAVE project/S2GL_Doppler/Libraries/XMCLib/inc\xmc_ccu8.h **** typedef enum XMC_CCU8_SLICE_TRAP_EXIT_MODE
 495:C:/Users/±è°æ¹Î/Desktop/IFX_S2GL-HW-SW_V1.1.3/Firmware_Software/DAVE project/S2GL_Doppler/Libraries/XMCLib/inc\xmc_ccu8.h **** {
 496:C:/Users/±è°æ¹Î/Desktop/IFX_S2GL-HW-SW_V1.1.3/Firmware_Software/DAVE project/S2GL_Doppler/Libraries/XMCLib/inc\xmc_ccu8.h ****   XMC_CCU8_SLICE_TRAP_EXIT_MODE_AUTOMATIC = 0U, /**< Clear trap state as soon as the trap signal is
 497:C:/Users/±è°æ¹Î/Desktop/IFX_S2GL-HW-SW_V1.1.3/Firmware_Software/DAVE project/S2GL_Doppler/Libraries/XMCLib/inc\xmc_ccu8.h ****   XMC_CCU8_SLICE_TRAP_EXIT_MODE_SW              /**< Clear only when acknowledged by software */
 498:C:/Users/±è°æ¹Î/Desktop/IFX_S2GL-HW-SW_V1.1.3/Firmware_Software/DAVE project/S2GL_Doppler/Libraries/XMCLib/inc\xmc_ccu8.h **** } XMC_CCU8_SLICE_TRAP_EXIT_MODE_t;
 499:C:/Users/±è°æ¹Î/Desktop/IFX_S2GL-HW-SW_V1.1.3/Firmware_Software/DAVE project/S2GL_Doppler/Libraries/XMCLib/inc\xmc_ccu8.h **** 
 500:C:/Users/±è°æ¹Î/Desktop/IFX_S2GL-HW-SW_V1.1.3/Firmware_Software/DAVE project/S2GL_Doppler/Libraries/XMCLib/inc\xmc_ccu8.h **** /**
 501:C:/Users/±è°æ¹Î/Desktop/IFX_S2GL-HW-SW_V1.1.3/Firmware_Software/DAVE project/S2GL_Doppler/Libraries/XMCLib/inc\xmc_ccu8.h ****  *  Timer clear on capture
 502:C:/Users/±è°æ¹Î/Desktop/IFX_S2GL-HW-SW_V1.1.3/Firmware_Software/DAVE project/S2GL_Doppler/Libraries/XMCLib/inc\xmc_ccu8.h ****  */
 503:C:/Users/±è°æ¹Î/Desktop/IFX_S2GL-HW-SW_V1.1.3/Firmware_Software/DAVE project/S2GL_Doppler/Libraries/XMCLib/inc\xmc_ccu8.h **** typedef enum XMC_CCU8_SLICE_TIMER_CLEAR_MODE
 504:C:/Users/±è°æ¹Î/Desktop/IFX_S2GL-HW-SW_V1.1.3/Firmware_Software/DAVE project/S2GL_Doppler/Libraries/XMCLib/inc\xmc_ccu8.h **** {
 505:C:/Users/±è°æ¹Î/Desktop/IFX_S2GL-HW-SW_V1.1.3/Firmware_Software/DAVE project/S2GL_Doppler/Libraries/XMCLib/inc\xmc_ccu8.h ****   XMC_CCU8_SLICE_TIMER_CLEAR_MODE_NEVER    = 0U, /**< Never clear the timer on any capture event */
 506:C:/Users/±è°æ¹Î/Desktop/IFX_S2GL-HW-SW_V1.1.3/Firmware_Software/DAVE project/S2GL_Doppler/Libraries/XMCLib/inc\xmc_ccu8.h ****   XMC_CCU8_SLICE_TIMER_CLEAR_MODE_CAP_HIGH     , /**< Clear only when timer value has been captured
 507:C:/Users/±è°æ¹Î/Desktop/IFX_S2GL-HW-SW_V1.1.3/Firmware_Software/DAVE project/S2GL_Doppler/Libraries/XMCLib/inc\xmc_ccu8.h ****   XMC_CCU8_SLICE_TIMER_CLEAR_MODE_CAP_LOW      , /**< Clear only when timer value has been captured
 508:C:/Users/±è°æ¹Î/Desktop/IFX_S2GL-HW-SW_V1.1.3/Firmware_Software/DAVE project/S2GL_Doppler/Libraries/XMCLib/inc\xmc_ccu8.h ****   XMC_CCU8_SLICE_TIMER_CLEAR_MODE_ALWAYS         /**< Always clear the timer upon detection of any 
 509:C:/Users/±è°æ¹Î/Desktop/IFX_S2GL-HW-SW_V1.1.3/Firmware_Software/DAVE project/S2GL_Doppler/Libraries/XMCLib/inc\xmc_ccu8.h **** } XMC_CCU8_SLICE_TIMER_CLEAR_MODE_t;
 510:C:/Users/±è°æ¹Î/Desktop/IFX_S2GL-HW-SW_V1.1.3/Firmware_Software/DAVE project/S2GL_Doppler/Libraries/XMCLib/inc\xmc_ccu8.h **** 
 511:C:/Users/±è°æ¹Î/Desktop/IFX_S2GL-HW-SW_V1.1.3/Firmware_Software/DAVE project/S2GL_Doppler/Libraries/XMCLib/inc\xmc_ccu8.h **** /**
 512:C:/Users/±è°æ¹Î/Desktop/IFX_S2GL-HW-SW_V1.1.3/Firmware_Software/DAVE project/S2GL_Doppler/Libraries/XMCLib/inc\xmc_ccu8.h ****  *  Multi Channel Shadow transfer request configuration options
 513:C:/Users/±è°æ¹Î/Desktop/IFX_S2GL-HW-SW_V1.1.3/Firmware_Software/DAVE project/S2GL_Doppler/Libraries/XMCLib/inc\xmc_ccu8.h ****  */
 514:C:/Users/±è°æ¹Î/Desktop/IFX_S2GL-HW-SW_V1.1.3/Firmware_Software/DAVE project/S2GL_Doppler/Libraries/XMCLib/inc\xmc_ccu8.h **** typedef enum XMC_CCU8_SLICE_MCMS_ACTION
 515:C:/Users/±è°æ¹Î/Desktop/IFX_S2GL-HW-SW_V1.1.3/Firmware_Software/DAVE project/S2GL_Doppler/Libraries/XMCLib/inc\xmc_ccu8.h **** {
 516:C:/Users/±è°æ¹Î/Desktop/IFX_S2GL-HW-SW_V1.1.3/Firmware_Software/DAVE project/S2GL_Doppler/Libraries/XMCLib/inc\xmc_ccu8.h ****   XMC_CCU8_SLICE_MCMS_ACTION_TRANSFER_PR_CR          = 0U, /**< Transfer Compare and Period Shadow 
 517:C:/Users/±è°æ¹Î/Desktop/IFX_S2GL-HW-SW_V1.1.3/Firmware_Software/DAVE project/S2GL_Doppler/Libraries/XMCLib/inc\xmc_ccu8.h ****                                                                 the actual registers upon MCS xfer 
 518:C:/Users/±è°æ¹Î/Desktop/IFX_S2GL-HW-SW_V1.1.3/Firmware_Software/DAVE project/S2GL_Doppler/Libraries/XMCLib/inc\xmc_ccu8.h ****   XMC_CCU8_SLICE_MCMS_ACTION_TRANSFER_PR_CR_PCMP     = 1U, /**< Transfer Compare, Period and Presca
 519:C:/Users/±è°æ¹Î/Desktop/IFX_S2GL-HW-SW_V1.1.3/Firmware_Software/DAVE project/S2GL_Doppler/Libraries/XMCLib/inc\xmc_ccu8.h ****                                                                 register values to the actual regis
 520:C:/Users/±è°æ¹Î/Desktop/IFX_S2GL-HW-SW_V1.1.3/Firmware_Software/DAVE project/S2GL_Doppler/Libraries/XMCLib/inc\xmc_ccu8.h ****                                                                 request */
 521:C:/Users/±è°æ¹Î/Desktop/IFX_S2GL-HW-SW_V1.1.3/Firmware_Software/DAVE project/S2GL_Doppler/Libraries/XMCLib/inc\xmc_ccu8.h ****   XMC_CCU8_SLICE_MCMS_ACTION_TRANSFER_PR_CR_PCMP_DIT = 3U  /**< Transfer Compare, Period ,Prescaler
 522:C:/Users/±è°æ¹Î/Desktop/IFX_S2GL-HW-SW_V1.1.3/Firmware_Software/DAVE project/S2GL_Doppler/Libraries/XMCLib/inc\xmc_ccu8.h ****                                                                 Compare register values to the actu
 523:C:/Users/±è°æ¹Î/Desktop/IFX_S2GL-HW-SW_V1.1.3/Firmware_Software/DAVE project/S2GL_Doppler/Libraries/XMCLib/inc\xmc_ccu8.h ****                                                                 MCS xfer request */
 524:C:/Users/±è°æ¹Î/Desktop/IFX_S2GL-HW-SW_V1.1.3/Firmware_Software/DAVE project/S2GL_Doppler/Libraries/XMCLib/inc\xmc_ccu8.h **** } XMC_CCU8_SLICE_MCMS_ACTION_t;
 525:C:/Users/±è°æ¹Î/Desktop/IFX_S2GL-HW-SW_V1.1.3/Firmware_Software/DAVE project/S2GL_Doppler/Libraries/XMCLib/inc\xmc_ccu8.h **** 
 526:C:/Users/±è°æ¹Î/Desktop/IFX_S2GL-HW-SW_V1.1.3/Firmware_Software/DAVE project/S2GL_Doppler/Libraries/XMCLib/inc\xmc_ccu8.h **** /**
 527:C:/Users/±è°æ¹Î/Desktop/IFX_S2GL-HW-SW_V1.1.3/Firmware_Software/DAVE project/S2GL_Doppler/Libraries/XMCLib/inc\xmc_ccu8.h ****  * Available Interrupt Event Ids
 528:C:/Users/±è°æ¹Î/Desktop/IFX_S2GL-HW-SW_V1.1.3/Firmware_Software/DAVE project/S2GL_Doppler/Libraries/XMCLib/inc\xmc_ccu8.h ****  */
 529:C:/Users/±è°æ¹Î/Desktop/IFX_S2GL-HW-SW_V1.1.3/Firmware_Software/DAVE project/S2GL_Doppler/Libraries/XMCLib/inc\xmc_ccu8.h **** typedef enum XMC_CCU8_SLICE_IRQ_ID
 530:C:/Users/±è°æ¹Î/Desktop/IFX_S2GL-HW-SW_V1.1.3/Firmware_Software/DAVE project/S2GL_Doppler/Libraries/XMCLib/inc\xmc_ccu8.h **** {
 531:C:/Users/±è°æ¹Î/Desktop/IFX_S2GL-HW-SW_V1.1.3/Firmware_Software/DAVE project/S2GL_Doppler/Libraries/XMCLib/inc\xmc_ccu8.h ****   XMC_CCU8_SLICE_IRQ_ID_PERIOD_MATCH            = 0U , /**< Period match counting up */
 532:C:/Users/±è°æ¹Î/Desktop/IFX_S2GL-HW-SW_V1.1.3/Firmware_Software/DAVE project/S2GL_Doppler/Libraries/XMCLib/inc\xmc_ccu8.h ****   XMC_CCU8_SLICE_IRQ_ID_ONE_MATCH               = 1U , /**< One match counting down */
 533:C:/Users/±è°æ¹Î/Desktop/IFX_S2GL-HW-SW_V1.1.3/Firmware_Software/DAVE project/S2GL_Doppler/Libraries/XMCLib/inc\xmc_ccu8.h ****   XMC_CCU8_SLICE_IRQ_ID_COMPARE_MATCH_UP_CH_1   = 2U , /**< Compare match counting up for channel 1
 534:C:/Users/±è°æ¹Î/Desktop/IFX_S2GL-HW-SW_V1.1.3/Firmware_Software/DAVE project/S2GL_Doppler/Libraries/XMCLib/inc\xmc_ccu8.h ****   XMC_CCU8_SLICE_IRQ_ID_COMPARE_MATCH_DOWN_CH_1 = 3U , /**< Compare match counting down for channel
 535:C:/Users/±è°æ¹Î/Desktop/IFX_S2GL-HW-SW_V1.1.3/Firmware_Software/DAVE project/S2GL_Doppler/Libraries/XMCLib/inc\xmc_ccu8.h ****   XMC_CCU8_SLICE_IRQ_ID_COMPARE_MATCH_UP_CH_2   = 4U , /**< Compare match counting up for channel 2
 536:C:/Users/±è°æ¹Î/Desktop/IFX_S2GL-HW-SW_V1.1.3/Firmware_Software/DAVE project/S2GL_Doppler/Libraries/XMCLib/inc\xmc_ccu8.h ****   XMC_CCU8_SLICE_IRQ_ID_COMPARE_MATCH_DOWN_CH_2 = 5U , /**< Compare match counting down for channel
 537:C:/Users/±è°æ¹Î/Desktop/IFX_S2GL-HW-SW_V1.1.3/Firmware_Software/DAVE project/S2GL_Doppler/Libraries/XMCLib/inc\xmc_ccu8.h ****   XMC_CCU8_SLICE_IRQ_ID_EVENT0                  = 8U , /**< Event-0 occurrence */
 538:C:/Users/±è°æ¹Î/Desktop/IFX_S2GL-HW-SW_V1.1.3/Firmware_Software/DAVE project/S2GL_Doppler/Libraries/XMCLib/inc\xmc_ccu8.h ****   XMC_CCU8_SLICE_IRQ_ID_EVENT1                  = 9U , /**< Event-1 occurrence */
 539:C:/Users/±è°æ¹Î/Desktop/IFX_S2GL-HW-SW_V1.1.3/Firmware_Software/DAVE project/S2GL_Doppler/Libraries/XMCLib/inc\xmc_ccu8.h ****   XMC_CCU8_SLICE_IRQ_ID_EVENT2                  = 10U, /**< Event-2 occurrence */
 540:C:/Users/±è°æ¹Î/Desktop/IFX_S2GL-HW-SW_V1.1.3/Firmware_Software/DAVE project/S2GL_Doppler/Libraries/XMCLib/inc\xmc_ccu8.h ****   XMC_CCU8_SLICE_IRQ_ID_TRAP                    = 11U  /**< Trap occurrence */
 541:C:/Users/±è°æ¹Î/Desktop/IFX_S2GL-HW-SW_V1.1.3/Firmware_Software/DAVE project/S2GL_Doppler/Libraries/XMCLib/inc\xmc_ccu8.h **** } XMC_CCU8_SLICE_IRQ_ID_t;
 542:C:/Users/±è°æ¹Î/Desktop/IFX_S2GL-HW-SW_V1.1.3/Firmware_Software/DAVE project/S2GL_Doppler/Libraries/XMCLib/inc\xmc_ccu8.h **** 
 543:C:/Users/±è°æ¹Î/Desktop/IFX_S2GL-HW-SW_V1.1.3/Firmware_Software/DAVE project/S2GL_Doppler/Libraries/XMCLib/inc\xmc_ccu8.h **** /**
 544:C:/Users/±è°æ¹Î/Desktop/IFX_S2GL-HW-SW_V1.1.3/Firmware_Software/DAVE project/S2GL_Doppler/Libraries/XMCLib/inc\xmc_ccu8.h ****  * Available Interrupt Event Ids, which is added to support multi event APIs
 545:C:/Users/±è°æ¹Î/Desktop/IFX_S2GL-HW-SW_V1.1.3/Firmware_Software/DAVE project/S2GL_Doppler/Libraries/XMCLib/inc\xmc_ccu8.h ****  */
 546:C:/Users/±è°æ¹Î/Desktop/IFX_S2GL-HW-SW_V1.1.3/Firmware_Software/DAVE project/S2GL_Doppler/Libraries/XMCLib/inc\xmc_ccu8.h **** typedef enum XMC_CCU8_SLICE_MULTI_IRQ_ID
 547:C:/Users/±è°æ¹Î/Desktop/IFX_S2GL-HW-SW_V1.1.3/Firmware_Software/DAVE project/S2GL_Doppler/Libraries/XMCLib/inc\xmc_ccu8.h **** {
 548:C:/Users/±è°æ¹Î/Desktop/IFX_S2GL-HW-SW_V1.1.3/Firmware_Software/DAVE project/S2GL_Doppler/Libraries/XMCLib/inc\xmc_ccu8.h ****   XMC_CCU8_SLICE_MULTI_IRQ_ID_PERIOD_MATCH            = 0x1U,   /**< Period match counting up */
 549:C:/Users/±è°æ¹Î/Desktop/IFX_S2GL-HW-SW_V1.1.3/Firmware_Software/DAVE project/S2GL_Doppler/Libraries/XMCLib/inc\xmc_ccu8.h ****   XMC_CCU8_SLICE_MULTI_IRQ_ID_ONE_MATCH               = 0x2U,   /**< One match counting down */
 550:C:/Users/±è°æ¹Î/Desktop/IFX_S2GL-HW-SW_V1.1.3/Firmware_Software/DAVE project/S2GL_Doppler/Libraries/XMCLib/inc\xmc_ccu8.h ****   XMC_CCU8_SLICE_MULTI_IRQ_ID_COMPARE_MATCH_UP_CH_1   = 0x4U,   /**< Compare match counting up for 
 551:C:/Users/±è°æ¹Î/Desktop/IFX_S2GL-HW-SW_V1.1.3/Firmware_Software/DAVE project/S2GL_Doppler/Libraries/XMCLib/inc\xmc_ccu8.h ****   XMC_CCU8_SLICE_MULTI_IRQ_ID_COMPARE_MATCH_DOWN_CH_1 = 0x8U,   /**< Compare match counting down fo
 552:C:/Users/±è°æ¹Î/Desktop/IFX_S2GL-HW-SW_V1.1.3/Firmware_Software/DAVE project/S2GL_Doppler/Libraries/XMCLib/inc\xmc_ccu8.h ****   XMC_CCU8_SLICE_MULTI_IRQ_ID_COMPARE_MATCH_UP_CH_2   = 0x10U,  /**< Compare match counting up for 
 553:C:/Users/±è°æ¹Î/Desktop/IFX_S2GL-HW-SW_V1.1.3/Firmware_Software/DAVE project/S2GL_Doppler/Libraries/XMCLib/inc\xmc_ccu8.h ****   XMC_CCU8_SLICE_MULTI_IRQ_ID_COMPARE_MATCH_DOWN_CH_2 = 0x20U,  /**< Compare match counting down fo
 554:C:/Users/±è°æ¹Î/Desktop/IFX_S2GL-HW-SW_V1.1.3/Firmware_Software/DAVE project/S2GL_Doppler/Libraries/XMCLib/inc\xmc_ccu8.h ****   XMC_CCU8_SLICE_MULTI_IRQ_ID_EVENT0                  = 0x100U, /**< Event-0 occurrence */
 555:C:/Users/±è°æ¹Î/Desktop/IFX_S2GL-HW-SW_V1.1.3/Firmware_Software/DAVE project/S2GL_Doppler/Libraries/XMCLib/inc\xmc_ccu8.h ****   XMC_CCU8_SLICE_MULTI_IRQ_ID_EVENT1                  = 0x200U, /**< Event-1 occurrence */
 556:C:/Users/±è°æ¹Î/Desktop/IFX_S2GL-HW-SW_V1.1.3/Firmware_Software/DAVE project/S2GL_Doppler/Libraries/XMCLib/inc\xmc_ccu8.h ****   XMC_CCU8_SLICE_MULTI_IRQ_ID_EVENT2                  = 0x400U, /**< Event-2 occurrence */
 557:C:/Users/±è°æ¹Î/Desktop/IFX_S2GL-HW-SW_V1.1.3/Firmware_Software/DAVE project/S2GL_Doppler/Libraries/XMCLib/inc\xmc_ccu8.h **** } XMC_CCU8_SLICE_MULTI_IRQ_ID_t;
 558:C:/Users/±è°æ¹Î/Desktop/IFX_S2GL-HW-SW_V1.1.3/Firmware_Software/DAVE project/S2GL_Doppler/Libraries/XMCLib/inc\xmc_ccu8.h **** 
 559:C:/Users/±è°æ¹Î/Desktop/IFX_S2GL-HW-SW_V1.1.3/Firmware_Software/DAVE project/S2GL_Doppler/Libraries/XMCLib/inc\xmc_ccu8.h **** /**
 560:C:/Users/±è°æ¹Î/Desktop/IFX_S2GL-HW-SW_V1.1.3/Firmware_Software/DAVE project/S2GL_Doppler/Libraries/XMCLib/inc\xmc_ccu8.h ****  * Service Request Lines for CCU8. Event are mapped to these SR lines and these are used to generat
 561:C:/Users/±è°æ¹Î/Desktop/IFX_S2GL-HW-SW_V1.1.3/Firmware_Software/DAVE project/S2GL_Doppler/Libraries/XMCLib/inc\xmc_ccu8.h ****  */
 562:C:/Users/±è°æ¹Î/Desktop/IFX_S2GL-HW-SW_V1.1.3/Firmware_Software/DAVE project/S2GL_Doppler/Libraries/XMCLib/inc\xmc_ccu8.h **** typedef enum XMC_CCU8_SLICE_SR_ID
 563:C:/Users/±è°æ¹Î/Desktop/IFX_S2GL-HW-SW_V1.1.3/Firmware_Software/DAVE project/S2GL_Doppler/Libraries/XMCLib/inc\xmc_ccu8.h **** {
 564:C:/Users/±è°æ¹Î/Desktop/IFX_S2GL-HW-SW_V1.1.3/Firmware_Software/DAVE project/S2GL_Doppler/Libraries/XMCLib/inc\xmc_ccu8.h ****   XMC_CCU8_SLICE_SR_ID_0    = 0U, /**< Service Request Line-0 selected  */
 565:C:/Users/±è°æ¹Î/Desktop/IFX_S2GL-HW-SW_V1.1.3/Firmware_Software/DAVE project/S2GL_Doppler/Libraries/XMCLib/inc\xmc_ccu8.h ****   XMC_CCU8_SLICE_SR_ID_1        , /**< Service Request Line-1 selected  */
 566:C:/Users/±è°æ¹Î/Desktop/IFX_S2GL-HW-SW_V1.1.3/Firmware_Software/DAVE project/S2GL_Doppler/Libraries/XMCLib/inc\xmc_ccu8.h ****   XMC_CCU8_SLICE_SR_ID_2        , /**< Service Request Line-2 selected  */
 567:C:/Users/±è°æ¹Î/Desktop/IFX_S2GL-HW-SW_V1.1.3/Firmware_Software/DAVE project/S2GL_Doppler/Libraries/XMCLib/inc\xmc_ccu8.h ****   XMC_CCU8_SLICE_SR_ID_3          /**< Service Request Line-3 selected  */
 568:C:/Users/±è°æ¹Î/Desktop/IFX_S2GL-HW-SW_V1.1.3/Firmware_Software/DAVE project/S2GL_Doppler/Libraries/XMCLib/inc\xmc_ccu8.h **** } XMC_CCU8_SLICE_SR_ID_t;
 569:C:/Users/±è°æ¹Î/Desktop/IFX_S2GL-HW-SW_V1.1.3/Firmware_Software/DAVE project/S2GL_Doppler/Libraries/XMCLib/inc\xmc_ccu8.h **** 
 570:C:/Users/±è°æ¹Î/Desktop/IFX_S2GL-HW-SW_V1.1.3/Firmware_Software/DAVE project/S2GL_Doppler/Libraries/XMCLib/inc\xmc_ccu8.h **** 
 571:C:/Users/±è°æ¹Î/Desktop/IFX_S2GL-HW-SW_V1.1.3/Firmware_Software/DAVE project/S2GL_Doppler/Libraries/XMCLib/inc\xmc_ccu8.h **** /**
 572:C:/Users/±è°æ¹Î/Desktop/IFX_S2GL-HW-SW_V1.1.3/Firmware_Software/DAVE project/S2GL_Doppler/Libraries/XMCLib/inc\xmc_ccu8.h ****  *  Slice shadow transfer options.
 573:C:/Users/±è°æ¹Î/Desktop/IFX_S2GL-HW-SW_V1.1.3/Firmware_Software/DAVE project/S2GL_Doppler/Libraries/XMCLib/inc\xmc_ccu8.h ****  */
 574:C:/Users/±è°æ¹Î/Desktop/IFX_S2GL-HW-SW_V1.1.3/Firmware_Software/DAVE project/S2GL_Doppler/Libraries/XMCLib/inc\xmc_ccu8.h **** typedef enum XMC_CCU8_SHADOW_TRANSFER
 575:C:/Users/±è°æ¹Î/Desktop/IFX_S2GL-HW-SW_V1.1.3/Firmware_Software/DAVE project/S2GL_Doppler/Libraries/XMCLib/inc\xmc_ccu8.h **** {
 576:C:/Users/±è°æ¹Î/Desktop/IFX_S2GL-HW-SW_V1.1.3/Firmware_Software/DAVE project/S2GL_Doppler/Libraries/XMCLib/inc\xmc_ccu8.h ****   XMC_CCU8_SHADOW_TRANSFER_SLICE_0            = CCU8_GCSS_S0SE_Msk,  /**< Transfer Period, Compare 
 577:C:/Users/±è°æ¹Î/Desktop/IFX_S2GL-HW-SW_V1.1.3/Firmware_Software/DAVE project/S2GL_Doppler/Libraries/XMCLib/inc\xmc_ccu8.h ****                                                                           shadow register values to
 578:C:/Users/±è°æ¹Î/Desktop/IFX_S2GL-HW-SW_V1.1.3/Firmware_Software/DAVE project/S2GL_Doppler/Libraries/XMCLib/inc\xmc_ccu8.h ****                                                                           SLICE-0 */
 579:C:/Users/±è°æ¹Î/Desktop/IFX_S2GL-HW-SW_V1.1.3/Firmware_Software/DAVE project/S2GL_Doppler/Libraries/XMCLib/inc\xmc_ccu8.h ****   XMC_CCU8_SHADOW_TRANSFER_DITHER_SLICE_0     = CCU8_GCSS_S0DSE_Msk, /**< Transfer Dither compare s
 580:C:/Users/±è°æ¹Î/Desktop/IFX_S2GL-HW-SW_V1.1.3/Firmware_Software/DAVE project/S2GL_Doppler/Libraries/XMCLib/inc\xmc_ccu8.h ****                                                                           to actual register for SL
 581:C:/Users/±è°æ¹Î/Desktop/IFX_S2GL-HW-SW_V1.1.3/Firmware_Software/DAVE project/S2GL_Doppler/Libraries/XMCLib/inc\xmc_ccu8.h ****   XMC_CCU8_SHADOW_TRANSFER_PRESCALER_SLICE_0  = CCU8_GCSS_S0PSE_Msk, /**< Transfer Prescaler shadow
 582:C:/Users/±è°æ¹Î/Desktop/IFX_S2GL-HW-SW_V1.1.3/Firmware_Software/DAVE project/S2GL_Doppler/Libraries/XMCLib/inc\xmc_ccu8.h ****                                                                           actual register for SLICE
 583:C:/Users/±è°æ¹Î/Desktop/IFX_S2GL-HW-SW_V1.1.3/Firmware_Software/DAVE project/S2GL_Doppler/Libraries/XMCLib/inc\xmc_ccu8.h ****   XMC_CCU8_SHADOW_TRANSFER_SLICE_1            = CCU8_GCSS_S1SE_Msk,  /**< Transfer Period, Compare 
 584:C:/Users/±è°æ¹Î/Desktop/IFX_S2GL-HW-SW_V1.1.3/Firmware_Software/DAVE project/S2GL_Doppler/Libraries/XMCLib/inc\xmc_ccu8.h ****                                                                           shadow register values to
 585:C:/Users/±è°æ¹Î/Desktop/IFX_S2GL-HW-SW_V1.1.3/Firmware_Software/DAVE project/S2GL_Doppler/Libraries/XMCLib/inc\xmc_ccu8.h ****                                                                           SLICE-1 */
 586:C:/Users/±è°æ¹Î/Desktop/IFX_S2GL-HW-SW_V1.1.3/Firmware_Software/DAVE project/S2GL_Doppler/Libraries/XMCLib/inc\xmc_ccu8.h ****   XMC_CCU8_SHADOW_TRANSFER_DITHER_SLICE_1     = CCU8_GCSS_S1DSE_Msk, /**< Transfer Dither compare s
 587:C:/Users/±è°æ¹Î/Desktop/IFX_S2GL-HW-SW_V1.1.3/Firmware_Software/DAVE project/S2GL_Doppler/Libraries/XMCLib/inc\xmc_ccu8.h ****                                                                           to actual registers for S
 588:C:/Users/±è°æ¹Î/Desktop/IFX_S2GL-HW-SW_V1.1.3/Firmware_Software/DAVE project/S2GL_Doppler/Libraries/XMCLib/inc\xmc_ccu8.h ****   XMC_CCU8_SHADOW_TRANSFER_PRESCALER_SLICE_1  = CCU8_GCSS_S1PSE_Msk, /**< Transfer Prescaler shadow
 589:C:/Users/±è°æ¹Î/Desktop/IFX_S2GL-HW-SW_V1.1.3/Firmware_Software/DAVE project/S2GL_Doppler/Libraries/XMCLib/inc\xmc_ccu8.h ****                                                                           actual register for SLICE
 590:C:/Users/±è°æ¹Î/Desktop/IFX_S2GL-HW-SW_V1.1.3/Firmware_Software/DAVE project/S2GL_Doppler/Libraries/XMCLib/inc\xmc_ccu8.h ****   XMC_CCU8_SHADOW_TRANSFER_SLICE_2            = CCU8_GCSS_S2SE_Msk,  /**< Transfer Period, Compare 
 591:C:/Users/±è°æ¹Î/Desktop/IFX_S2GL-HW-SW_V1.1.3/Firmware_Software/DAVE project/S2GL_Doppler/Libraries/XMCLib/inc\xmc_ccu8.h ****                                                                           shadow register values to
 592:C:/Users/±è°æ¹Î/Desktop/IFX_S2GL-HW-SW_V1.1.3/Firmware_Software/DAVE project/S2GL_Doppler/Libraries/XMCLib/inc\xmc_ccu8.h ****                                                                           SLICE-2 */
 593:C:/Users/±è°æ¹Î/Desktop/IFX_S2GL-HW-SW_V1.1.3/Firmware_Software/DAVE project/S2GL_Doppler/Libraries/XMCLib/inc\xmc_ccu8.h ****   XMC_CCU8_SHADOW_TRANSFER_DITHER_SLICE_2     = CCU8_GCSS_S2DSE_Msk, /**< Transfer Dither compare s
 594:C:/Users/±è°æ¹Î/Desktop/IFX_S2GL-HW-SW_V1.1.3/Firmware_Software/DAVE project/S2GL_Doppler/Libraries/XMCLib/inc\xmc_ccu8.h ****                                                                           to actual register for SL
 595:C:/Users/±è°æ¹Î/Desktop/IFX_S2GL-HW-SW_V1.1.3/Firmware_Software/DAVE project/S2GL_Doppler/Libraries/XMCLib/inc\xmc_ccu8.h ****   XMC_CCU8_SHADOW_TRANSFER_PRESCALER_SLICE_2  = CCU8_GCSS_S2PSE_Msk, /**< Transfer Prescaler shadow
 596:C:/Users/±è°æ¹Î/Desktop/IFX_S2GL-HW-SW_V1.1.3/Firmware_Software/DAVE project/S2GL_Doppler/Libraries/XMCLib/inc\xmc_ccu8.h ****                                                                           actual register for SLICE
 597:C:/Users/±è°æ¹Î/Desktop/IFX_S2GL-HW-SW_V1.1.3/Firmware_Software/DAVE project/S2GL_Doppler/Libraries/XMCLib/inc\xmc_ccu8.h ****   XMC_CCU8_SHADOW_TRANSFER_SLICE_3            = CCU8_GCSS_S3SE_Msk,  /**< Transfer Period, Compare 
 598:C:/Users/±è°æ¹Î/Desktop/IFX_S2GL-HW-SW_V1.1.3/Firmware_Software/DAVE project/S2GL_Doppler/Libraries/XMCLib/inc\xmc_ccu8.h ****                                                                           shadow register values to
 599:C:/Users/±è°æ¹Î/Desktop/IFX_S2GL-HW-SW_V1.1.3/Firmware_Software/DAVE project/S2GL_Doppler/Libraries/XMCLib/inc\xmc_ccu8.h ****                                                                           SLICE-3 */
 600:C:/Users/±è°æ¹Î/Desktop/IFX_S2GL-HW-SW_V1.1.3/Firmware_Software/DAVE project/S2GL_Doppler/Libraries/XMCLib/inc\xmc_ccu8.h ****   XMC_CCU8_SHADOW_TRANSFER_DITHER_SLICE_3     = CCU8_GCSS_S3DSE_Msk, /**< Transfer Dither compare s
 601:C:/Users/±è°æ¹Î/Desktop/IFX_S2GL-HW-SW_V1.1.3/Firmware_Software/DAVE project/S2GL_Doppler/Libraries/XMCLib/inc\xmc_ccu8.h ****                                                                           to actual register for SL
 602:C:/Users/±è°æ¹Î/Desktop/IFX_S2GL-HW-SW_V1.1.3/Firmware_Software/DAVE project/S2GL_Doppler/Libraries/XMCLib/inc\xmc_ccu8.h ****   XMC_CCU8_SHADOW_TRANSFER_PRESCALER_SLICE_3  = CCU8_GCSS_S3PSE_Msk  /**< Transfer Prescaler shadow
 603:C:/Users/±è°æ¹Î/Desktop/IFX_S2GL-HW-SW_V1.1.3/Firmware_Software/DAVE project/S2GL_Doppler/Libraries/XMCLib/inc\xmc_ccu8.h ****                                                                           actual register for SLICE
 604:C:/Users/±è°æ¹Î/Desktop/IFX_S2GL-HW-SW_V1.1.3/Firmware_Software/DAVE project/S2GL_Doppler/Libraries/XMCLib/inc\xmc_ccu8.h **** } XMC_CCU8_SHADOW_TRANSFER_t;
 605:C:/Users/±è°æ¹Î/Desktop/IFX_S2GL-HW-SW_V1.1.3/Firmware_Software/DAVE project/S2GL_Doppler/Libraries/XMCLib/inc\xmc_ccu8.h **** 
 606:C:/Users/±è°æ¹Î/Desktop/IFX_S2GL-HW-SW_V1.1.3/Firmware_Software/DAVE project/S2GL_Doppler/Libraries/XMCLib/inc\xmc_ccu8.h **** #if (UC_SERIES != XMC45) || defined(DOXYGEN)
 607:C:/Users/±è°æ¹Î/Desktop/IFX_S2GL-HW-SW_V1.1.3/Firmware_Software/DAVE project/S2GL_Doppler/Libraries/XMCLib/inc\xmc_ccu8.h **** /**
 608:C:/Users/±è°æ¹Î/Desktop/IFX_S2GL-HW-SW_V1.1.3/Firmware_Software/DAVE project/S2GL_Doppler/Libraries/XMCLib/inc\xmc_ccu8.h ****  *  Slice shadow transfer mode options.
 609:C:/Users/±è°æ¹Î/Desktop/IFX_S2GL-HW-SW_V1.1.3/Firmware_Software/DAVE project/S2GL_Doppler/Libraries/XMCLib/inc\xmc_ccu8.h ****  * @note Not available for XMC4500 series
 610:C:/Users/±è°æ¹Î/Desktop/IFX_S2GL-HW-SW_V1.1.3/Firmware_Software/DAVE project/S2GL_Doppler/Libraries/XMCLib/inc\xmc_ccu8.h ****  */
 611:C:/Users/±è°æ¹Î/Desktop/IFX_S2GL-HW-SW_V1.1.3/Firmware_Software/DAVE project/S2GL_Doppler/Libraries/XMCLib/inc\xmc_ccu8.h **** typedef enum XMC_CCU8_SLICE_SHADOW_TRANSFER_MODE
 612:C:/Users/±è°æ¹Î/Desktop/IFX_S2GL-HW-SW_V1.1.3/Firmware_Software/DAVE project/S2GL_Doppler/Libraries/XMCLib/inc\xmc_ccu8.h **** {
 613:C:/Users/±è°æ¹Î/Desktop/IFX_S2GL-HW-SW_V1.1.3/Firmware_Software/DAVE project/S2GL_Doppler/Libraries/XMCLib/inc\xmc_ccu8.h ****   XMC_CCU8_SLICE_SHADOW_TRANSFER_MODE_IN_PERIOD_MATCH_AND_ONE_MATCH = 0U, /**< Shadow transfer is d
 614:C:/Users/±è°æ¹Î/Desktop/IFX_S2GL-HW-SW_V1.1.3/Firmware_Software/DAVE project/S2GL_Doppler/Libraries/XMCLib/inc\xmc_ccu8.h ****                                                                                One match. */
 615:C:/Users/±è°æ¹Î/Desktop/IFX_S2GL-HW-SW_V1.1.3/Firmware_Software/DAVE project/S2GL_Doppler/Libraries/XMCLib/inc\xmc_ccu8.h ****   XMC_CCU8_SLICE_SHADOW_TRANSFER_MODE_ONLY_IN_PERIOD_MATCH = 1U,  /**< Shadow transfer is done only
 616:C:/Users/±è°æ¹Î/Desktop/IFX_S2GL-HW-SW_V1.1.3/Firmware_Software/DAVE project/S2GL_Doppler/Libraries/XMCLib/inc\xmc_ccu8.h ****   XMC_CCU8_SLICE_SHADOW_TRANSFER_MODE_ONLY_IN_ONE_MATCH = 2U  /**< Shadow transfer is done only in 
 617:C:/Users/±è°æ¹Î/Desktop/IFX_S2GL-HW-SW_V1.1.3/Firmware_Software/DAVE project/S2GL_Doppler/Libraries/XMCLib/inc\xmc_ccu8.h **** } XMC_CCU8_SLICE_SHADOW_TRANSFER_MODE_t;
 618:C:/Users/±è°æ¹Î/Desktop/IFX_S2GL-HW-SW_V1.1.3/Firmware_Software/DAVE project/S2GL_Doppler/Libraries/XMCLib/inc\xmc_ccu8.h **** #endif
 619:C:/Users/±è°æ¹Î/Desktop/IFX_S2GL-HW-SW_V1.1.3/Firmware_Software/DAVE project/S2GL_Doppler/Libraries/XMCLib/inc\xmc_ccu8.h **** 
 620:C:/Users/±è°æ¹Î/Desktop/IFX_S2GL-HW-SW_V1.1.3/Firmware_Software/DAVE project/S2GL_Doppler/Libraries/XMCLib/inc\xmc_ccu8.h **** #if defined(CCU8V3) || defined(DOXYGEN) /* Defined for XMC1400 devices only */
 621:C:/Users/±è°æ¹Î/Desktop/IFX_S2GL-HW-SW_V1.1.3/Firmware_Software/DAVE project/S2GL_Doppler/Libraries/XMCLib/inc\xmc_ccu8.h **** /**
 622:C:/Users/±è°æ¹Î/Desktop/IFX_S2GL-HW-SW_V1.1.3/Firmware_Software/DAVE project/S2GL_Doppler/Libraries/XMCLib/inc\xmc_ccu8.h ****  *  Output sources for OUTy0 signal
 623:C:/Users/±è°æ¹Î/Desktop/IFX_S2GL-HW-SW_V1.1.3/Firmware_Software/DAVE project/S2GL_Doppler/Libraries/XMCLib/inc\xmc_ccu8.h ****  * @note Only available for XMC1400 series
 624:C:/Users/±è°æ¹Î/Desktop/IFX_S2GL-HW-SW_V1.1.3/Firmware_Software/DAVE project/S2GL_Doppler/Libraries/XMCLib/inc\xmc_ccu8.h ****  */
 625:C:/Users/±è°æ¹Î/Desktop/IFX_S2GL-HW-SW_V1.1.3/Firmware_Software/DAVE project/S2GL_Doppler/Libraries/XMCLib/inc\xmc_ccu8.h ****  typedef enum XMC_CCU8_SOURCE_OUT0
 626:C:/Users/±è°æ¹Î/Desktop/IFX_S2GL-HW-SW_V1.1.3/Firmware_Software/DAVE project/S2GL_Doppler/Libraries/XMCLib/inc\xmc_ccu8.h **** {
 627:C:/Users/±è°æ¹Î/Desktop/IFX_S2GL-HW-SW_V1.1.3/Firmware_Software/DAVE project/S2GL_Doppler/Libraries/XMCLib/inc\xmc_ccu8.h ****   XMC_CCU8_SOURCE_OUT0_ST1      = (uint32_t)0x0, /**< CCU8yST1 signal path is connected the CCU8x.O
 628:C:/Users/±è°æ¹Î/Desktop/IFX_S2GL-HW-SW_V1.1.3/Firmware_Software/DAVE project/S2GL_Doppler/Libraries/XMCLib/inc\xmc_ccu8.h ****   XMC_CCU8_SOURCE_OUT0_INV_ST1  = (uint32_t)0x1, /**< Inverted CCU8yST1 signal path is connected th
 629:C:/Users/±è°æ¹Î/Desktop/IFX_S2GL-HW-SW_V1.1.3/Firmware_Software/DAVE project/S2GL_Doppler/Libraries/XMCLib/inc\xmc_ccu8.h ****   XMC_CCU8_SOURCE_OUT0_ST2      = (uint32_t)0x2, /**< CCU8yST2 signal path is connected the CCU8x.O
 630:C:/Users/±è°æ¹Î/Desktop/IFX_S2GL-HW-SW_V1.1.3/Firmware_Software/DAVE project/S2GL_Doppler/Libraries/XMCLib/inc\xmc_ccu8.h ****   XMC_CCU8_SOURCE_OUT0_INV_ST2  = (uint32_t)0x3  /**< Inverted CCU8yST2 signal path is connected th
 631:C:/Users/±è°æ¹Î/Desktop/IFX_S2GL-HW-SW_V1.1.3/Firmware_Software/DAVE project/S2GL_Doppler/Libraries/XMCLib/inc\xmc_ccu8.h **** } XMC_CCU8_SOURCE_OUT0_t;
 632:C:/Users/±è°æ¹Î/Desktop/IFX_S2GL-HW-SW_V1.1.3/Firmware_Software/DAVE project/S2GL_Doppler/Libraries/XMCLib/inc\xmc_ccu8.h **** 
 633:C:/Users/±è°æ¹Î/Desktop/IFX_S2GL-HW-SW_V1.1.3/Firmware_Software/DAVE project/S2GL_Doppler/Libraries/XMCLib/inc\xmc_ccu8.h **** /**
 634:C:/Users/±è°æ¹Î/Desktop/IFX_S2GL-HW-SW_V1.1.3/Firmware_Software/DAVE project/S2GL_Doppler/Libraries/XMCLib/inc\xmc_ccu8.h ****  *  Output sources for OUTy1 signal
 635:C:/Users/±è°æ¹Î/Desktop/IFX_S2GL-HW-SW_V1.1.3/Firmware_Software/DAVE project/S2GL_Doppler/Libraries/XMCLib/inc\xmc_ccu8.h ****  *  @note Only available for XMC1400 series
 636:C:/Users/±è°æ¹Î/Desktop/IFX_S2GL-HW-SW_V1.1.3/Firmware_Software/DAVE project/S2GL_Doppler/Libraries/XMCLib/inc\xmc_ccu8.h ****  */
 637:C:/Users/±è°æ¹Î/Desktop/IFX_S2GL-HW-SW_V1.1.3/Firmware_Software/DAVE project/S2GL_Doppler/Libraries/XMCLib/inc\xmc_ccu8.h ****  typedef enum XMC_CCU8_SOURCE_OUT1
 638:C:/Users/±è°æ¹Î/Desktop/IFX_S2GL-HW-SW_V1.1.3/Firmware_Software/DAVE project/S2GL_Doppler/Libraries/XMCLib/inc\xmc_ccu8.h **** {
 639:C:/Users/±è°æ¹Î/Desktop/IFX_S2GL-HW-SW_V1.1.3/Firmware_Software/DAVE project/S2GL_Doppler/Libraries/XMCLib/inc\xmc_ccu8.h ****   XMC_CCU8_SOURCE_OUT1_ST1      = (uint32_t)0x1, /**< CCU8yST1 signal path is connected the CCU8x.O
 640:C:/Users/±è°æ¹Î/Desktop/IFX_S2GL-HW-SW_V1.1.3/Firmware_Software/DAVE project/S2GL_Doppler/Libraries/XMCLib/inc\xmc_ccu8.h ****   XMC_CCU8_SOURCE_OUT1_INV_ST1  = (uint32_t)0x0, /**< Inverted CCU8yST1 signal path is connected th
 641:C:/Users/±è°æ¹Î/Desktop/IFX_S2GL-HW-SW_V1.1.3/Firmware_Software/DAVE project/S2GL_Doppler/Libraries/XMCLib/inc\xmc_ccu8.h ****   XMC_CCU8_SOURCE_OUT1_ST2      = (uint32_t)0x3, /**< CCU8yST2 signal path is connected the CCU8x.O
 642:C:/Users/±è°æ¹Î/Desktop/IFX_S2GL-HW-SW_V1.1.3/Firmware_Software/DAVE project/S2GL_Doppler/Libraries/XMCLib/inc\xmc_ccu8.h ****   XMC_CCU8_SOURCE_OUT1_INV_ST2  = (uint32_t)0x2  /**< Inverted CCU8yST2 signal path is connected th
 643:C:/Users/±è°æ¹Î/Desktop/IFX_S2GL-HW-SW_V1.1.3/Firmware_Software/DAVE project/S2GL_Doppler/Libraries/XMCLib/inc\xmc_ccu8.h **** } XMC_CCU8_SOURCE_OUT1_t;
 644:C:/Users/±è°æ¹Î/Desktop/IFX_S2GL-HW-SW_V1.1.3/Firmware_Software/DAVE project/S2GL_Doppler/Libraries/XMCLib/inc\xmc_ccu8.h **** 
 645:C:/Users/±è°æ¹Î/Desktop/IFX_S2GL-HW-SW_V1.1.3/Firmware_Software/DAVE project/S2GL_Doppler/Libraries/XMCLib/inc\xmc_ccu8.h **** /**
 646:C:/Users/±è°æ¹Î/Desktop/IFX_S2GL-HW-SW_V1.1.3/Firmware_Software/DAVE project/S2GL_Doppler/Libraries/XMCLib/inc\xmc_ccu8.h ****  * Output sources for OUTy2 signal
 647:C:/Users/±è°æ¹Î/Desktop/IFX_S2GL-HW-SW_V1.1.3/Firmware_Software/DAVE project/S2GL_Doppler/Libraries/XMCLib/inc\xmc_ccu8.h ****  * @note Only available for XMC1400 series
 648:C:/Users/±è°æ¹Î/Desktop/IFX_S2GL-HW-SW_V1.1.3/Firmware_Software/DAVE project/S2GL_Doppler/Libraries/XMCLib/inc\xmc_ccu8.h ****  */
 649:C:/Users/±è°æ¹Î/Desktop/IFX_S2GL-HW-SW_V1.1.3/Firmware_Software/DAVE project/S2GL_Doppler/Libraries/XMCLib/inc\xmc_ccu8.h ****  typedef enum XMC_CCU8_SOURCE_OUT2
 650:C:/Users/±è°æ¹Î/Desktop/IFX_S2GL-HW-SW_V1.1.3/Firmware_Software/DAVE project/S2GL_Doppler/Libraries/XMCLib/inc\xmc_ccu8.h **** {
 651:C:/Users/±è°æ¹Î/Desktop/IFX_S2GL-HW-SW_V1.1.3/Firmware_Software/DAVE project/S2GL_Doppler/Libraries/XMCLib/inc\xmc_ccu8.h ****   XMC_CCU8_SOURCE_OUT2_ST2      = (uint32_t)0x0, /**< CCU8yST2 signal path is connected the CCU8x.O
 652:C:/Users/±è°æ¹Î/Desktop/IFX_S2GL-HW-SW_V1.1.3/Firmware_Software/DAVE project/S2GL_Doppler/Libraries/XMCLib/inc\xmc_ccu8.h ****   XMC_CCU8_SOURCE_OUT2_INV_ST2  = (uint32_t)0x1, /**< Inverted CCU8yST2 signal path is connected th
 653:C:/Users/±è°æ¹Î/Desktop/IFX_S2GL-HW-SW_V1.1.3/Firmware_Software/DAVE project/S2GL_Doppler/Libraries/XMCLib/inc\xmc_ccu8.h ****   XMC_CCU8_SOURCE_OUT2_ST1      = (uint32_t)0x2, /**< CCU8yST1 signal path is connected the CCU8x.O
 654:C:/Users/±è°æ¹Î/Desktop/IFX_S2GL-HW-SW_V1.1.3/Firmware_Software/DAVE project/S2GL_Doppler/Libraries/XMCLib/inc\xmc_ccu8.h ****   XMC_CCU8_SOURCE_OUT2_INV_ST1  = (uint32_t)0x3  /**< Inverted CCU8yST1 signal path is connected th
 655:C:/Users/±è°æ¹Î/Desktop/IFX_S2GL-HW-SW_V1.1.3/Firmware_Software/DAVE project/S2GL_Doppler/Libraries/XMCLib/inc\xmc_ccu8.h **** } XMC_CCU8_SOURCE_OUT2_t;
 656:C:/Users/±è°æ¹Î/Desktop/IFX_S2GL-HW-SW_V1.1.3/Firmware_Software/DAVE project/S2GL_Doppler/Libraries/XMCLib/inc\xmc_ccu8.h **** 
 657:C:/Users/±è°æ¹Î/Desktop/IFX_S2GL-HW-SW_V1.1.3/Firmware_Software/DAVE project/S2GL_Doppler/Libraries/XMCLib/inc\xmc_ccu8.h **** /**
 658:C:/Users/±è°æ¹Î/Desktop/IFX_S2GL-HW-SW_V1.1.3/Firmware_Software/DAVE project/S2GL_Doppler/Libraries/XMCLib/inc\xmc_ccu8.h ****  *  Output sources for OUTy3 signal
 659:C:/Users/±è°æ¹Î/Desktop/IFX_S2GL-HW-SW_V1.1.3/Firmware_Software/DAVE project/S2GL_Doppler/Libraries/XMCLib/inc\xmc_ccu8.h ****  *  @note Only available for XMC1400 series
 660:C:/Users/±è°æ¹Î/Desktop/IFX_S2GL-HW-SW_V1.1.3/Firmware_Software/DAVE project/S2GL_Doppler/Libraries/XMCLib/inc\xmc_ccu8.h ****  */
 661:C:/Users/±è°æ¹Î/Desktop/IFX_S2GL-HW-SW_V1.1.3/Firmware_Software/DAVE project/S2GL_Doppler/Libraries/XMCLib/inc\xmc_ccu8.h ****  typedef enum XMC_CCU8_SOURCE_OUT3
 662:C:/Users/±è°æ¹Î/Desktop/IFX_S2GL-HW-SW_V1.1.3/Firmware_Software/DAVE project/S2GL_Doppler/Libraries/XMCLib/inc\xmc_ccu8.h **** {
 663:C:/Users/±è°æ¹Î/Desktop/IFX_S2GL-HW-SW_V1.1.3/Firmware_Software/DAVE project/S2GL_Doppler/Libraries/XMCLib/inc\xmc_ccu8.h ****   XMC_CCU8_SOURCE_OUT3_ST2      = (uint32_t)0x1, /**< CCU8yST2 signal path is connected the CCU8x.O
 664:C:/Users/±è°æ¹Î/Desktop/IFX_S2GL-HW-SW_V1.1.3/Firmware_Software/DAVE project/S2GL_Doppler/Libraries/XMCLib/inc\xmc_ccu8.h ****   XMC_CCU8_SOURCE_OUT3_INV_ST2  = (uint32_t)0x0, /**< Inverted CCU8yST2 signal path is connected th
 665:C:/Users/±è°æ¹Î/Desktop/IFX_S2GL-HW-SW_V1.1.3/Firmware_Software/DAVE project/S2GL_Doppler/Libraries/XMCLib/inc\xmc_ccu8.h ****   XMC_CCU8_SOURCE_OUT3_ST1      = (uint32_t)0x3, /**< CCU8yST1 signal path is connected the CCU8x.O
 666:C:/Users/±è°æ¹Î/Desktop/IFX_S2GL-HW-SW_V1.1.3/Firmware_Software/DAVE project/S2GL_Doppler/Libraries/XMCLib/inc\xmc_ccu8.h ****   XMC_CCU8_SOURCE_OUT3_INV_ST1  = (uint32_t)0x2  /**< Inverted CCU8yST1 signal path is connected th
 667:C:/Users/±è°æ¹Î/Desktop/IFX_S2GL-HW-SW_V1.1.3/Firmware_Software/DAVE project/S2GL_Doppler/Libraries/XMCLib/inc\xmc_ccu8.h **** } XMC_CCU8_SOURCE_OUT3_t;
 668:C:/Users/±è°æ¹Î/Desktop/IFX_S2GL-HW-SW_V1.1.3/Firmware_Software/DAVE project/S2GL_Doppler/Libraries/XMCLib/inc\xmc_ccu8.h **** #endif
 669:C:/Users/±è°æ¹Î/Desktop/IFX_S2GL-HW-SW_V1.1.3/Firmware_Software/DAVE project/S2GL_Doppler/Libraries/XMCLib/inc\xmc_ccu8.h **** 
 670:C:/Users/±è°æ¹Î/Desktop/IFX_S2GL-HW-SW_V1.1.3/Firmware_Software/DAVE project/S2GL_Doppler/Libraries/XMCLib/inc\xmc_ccu8.h **** 
 671:C:/Users/±è°æ¹Î/Desktop/IFX_S2GL-HW-SW_V1.1.3/Firmware_Software/DAVE project/S2GL_Doppler/Libraries/XMCLib/inc\xmc_ccu8.h **** /**
 672:C:/Users/±è°æ¹Î/Desktop/IFX_S2GL-HW-SW_V1.1.3/Firmware_Software/DAVE project/S2GL_Doppler/Libraries/XMCLib/inc\xmc_ccu8.h ****  *  Output selector for CCU8x.OUT0-3
 673:C:/Users/±è°æ¹Î/Desktop/IFX_S2GL-HW-SW_V1.1.3/Firmware_Software/DAVE project/S2GL_Doppler/Libraries/XMCLib/inc\xmc_ccu8.h ****  */
 674:C:/Users/±è°æ¹Î/Desktop/IFX_S2GL-HW-SW_V1.1.3/Firmware_Software/DAVE project/S2GL_Doppler/Libraries/XMCLib/inc\xmc_ccu8.h **** #if !defined(CCU8V3) /* Defined for all devices except XMC1400 */
 675:C:/Users/±è°æ¹Î/Desktop/IFX_S2GL-HW-SW_V1.1.3/Firmware_Software/DAVE project/S2GL_Doppler/Libraries/XMCLib/inc\xmc_ccu8.h **** typedef enum XMC_CCU8_OUT_PATH
 676:C:/Users/±è°æ¹Î/Desktop/IFX_S2GL-HW-SW_V1.1.3/Firmware_Software/DAVE project/S2GL_Doppler/Libraries/XMCLib/inc\xmc_ccu8.h **** {
 677:C:/Users/±è°æ¹Î/Desktop/IFX_S2GL-HW-SW_V1.1.3/Firmware_Software/DAVE project/S2GL_Doppler/Libraries/XMCLib/inc\xmc_ccu8.h ****   XMC_CCU8_OUT_PATH_OUT0_ST1      = (uint32_t)0x20000, /**< CCU8yST1 signal path is connected the C
 678:C:/Users/±è°æ¹Î/Desktop/IFX_S2GL-HW-SW_V1.1.3/Firmware_Software/DAVE project/S2GL_Doppler/Libraries/XMCLib/inc\xmc_ccu8.h ****   XMC_CCU8_OUT_PATH_OUT0_INV_ST1  = (uint32_t)0x20002, /**< Inverted CCU8yST1 signal path is connec
 679:C:/Users/±è°æ¹Î/Desktop/IFX_S2GL-HW-SW_V1.1.3/Firmware_Software/DAVE project/S2GL_Doppler/Libraries/XMCLib/inc\xmc_ccu8.h ****   XMC_CCU8_OUT_PATH_OUT1_ST1      = (uint32_t)0x40000, /**< CCU8yST1 signal path is connected the C
 680:C:/Users/±è°æ¹Î/Desktop/IFX_S2GL-HW-SW_V1.1.3/Firmware_Software/DAVE project/S2GL_Doppler/Libraries/XMCLib/inc\xmc_ccu8.h ****   XMC_CCU8_OUT_PATH_OUT1_INV_ST1  = (uint32_t)0x40004, /**< Inverted CCU8yST1 signal path is connec
 681:C:/Users/±è°æ¹Î/Desktop/IFX_S2GL-HW-SW_V1.1.3/Firmware_Software/DAVE project/S2GL_Doppler/Libraries/XMCLib/inc\xmc_ccu8.h ****   XMC_CCU8_OUT_PATH_OUT2_ST2      = (uint32_t)0x80000, /**< CCU8yST2 signal path is connected the C
 682:C:/Users/±è°æ¹Î/Desktop/IFX_S2GL-HW-SW_V1.1.3/Firmware_Software/DAVE project/S2GL_Doppler/Libraries/XMCLib/inc\xmc_ccu8.h ****   XMC_CCU8_OUT_PATH_OUT2_INV_ST2  = (uint32_t)0x80008, /**< Inverted CCU8yST2 signal path is connec
 683:C:/Users/±è°æ¹Î/Desktop/IFX_S2GL-HW-SW_V1.1.3/Firmware_Software/DAVE project/S2GL_Doppler/Libraries/XMCLib/inc\xmc_ccu8.h ****   XMC_CCU8_OUT_PATH_OUT3_ST2      = (uint32_t)0x100000,/**< CCU8yST2 signal path is connected the C
 684:C:/Users/±è°æ¹Î/Desktop/IFX_S2GL-HW-SW_V1.1.3/Firmware_Software/DAVE project/S2GL_Doppler/Libraries/XMCLib/inc\xmc_ccu8.h ****   XMC_CCU8_OUT_PATH_OUT3_INV_ST1  = (uint32_t)0x100010 /**< Inverted CCU8yST2 signal path is connec
 685:C:/Users/±è°æ¹Î/Desktop/IFX_S2GL-HW-SW_V1.1.3/Firmware_Software/DAVE project/S2GL_Doppler/Libraries/XMCLib/inc\xmc_ccu8.h **** } XMC_CCU8_OUT_PATH_t;
 686:C:/Users/±è°æ¹Î/Desktop/IFX_S2GL-HW-SW_V1.1.3/Firmware_Software/DAVE project/S2GL_Doppler/Libraries/XMCLib/inc\xmc_ccu8.h **** #else
 687:C:/Users/±è°æ¹Î/Desktop/IFX_S2GL-HW-SW_V1.1.3/Firmware_Software/DAVE project/S2GL_Doppler/Libraries/XMCLib/inc\xmc_ccu8.h **** typedef enum XMC_CCU8_OUT_PATH
 688:C:/Users/±è°æ¹Î/Desktop/IFX_S2GL-HW-SW_V1.1.3/Firmware_Software/DAVE project/S2GL_Doppler/Libraries/XMCLib/inc\xmc_ccu8.h **** {
 689:C:/Users/±è°æ¹Î/Desktop/IFX_S2GL-HW-SW_V1.1.3/Firmware_Software/DAVE project/S2GL_Doppler/Libraries/XMCLib/inc\xmc_ccu8.h ****   XMC_CCU8_OUT_PATH_OUT0_ST1      = (uint32_t)0x000C0, /**< CCU8yST1 signal path is connected the C
 690:C:/Users/±è°æ¹Î/Desktop/IFX_S2GL-HW-SW_V1.1.3/Firmware_Software/DAVE project/S2GL_Doppler/Libraries/XMCLib/inc\xmc_ccu8.h ****   XMC_CCU8_OUT_PATH_OUT0_INV_ST1  = (uint32_t)0x000D0, /**< Inverted CCU8yST1 signal path is connec
 691:C:/Users/±è°æ¹Î/Desktop/IFX_S2GL-HW-SW_V1.1.3/Firmware_Software/DAVE project/S2GL_Doppler/Libraries/XMCLib/inc\xmc_ccu8.h ****   XMC_CCU8_OUT_PATH_OUT0_ST2      = (uint32_t)0x000E0, /**< CCU8yST2 signal path is connected the C
 692:C:/Users/±è°æ¹Î/Desktop/IFX_S2GL-HW-SW_V1.1.3/Firmware_Software/DAVE project/S2GL_Doppler/Libraries/XMCLib/inc\xmc_ccu8.h ****   XMC_CCU8_OUT_PATH_OUT0_INV_ST2  = (uint32_t)0x000F0, /**< Inverted CCU8yST2 signal path is connec
 693:C:/Users/±è°æ¹Î/Desktop/IFX_S2GL-HW-SW_V1.1.3/Firmware_Software/DAVE project/S2GL_Doppler/Libraries/XMCLib/inc\xmc_ccu8.h ****   XMC_CCU8_OUT_PATH_OUT1_ST1      = (uint32_t)0x00D00, /**< CCU8yST1 signal path is connected the C
 694:C:/Users/±è°æ¹Î/Desktop/IFX_S2GL-HW-SW_V1.1.3/Firmware_Software/DAVE project/S2GL_Doppler/Libraries/XMCLib/inc\xmc_ccu8.h ****   XMC_CCU8_OUT_PATH_OUT1_INV_ST1  = (uint32_t)0x00C00, /**< Inverted CCU8yST1 signal path is connec
 695:C:/Users/±è°æ¹Î/Desktop/IFX_S2GL-HW-SW_V1.1.3/Firmware_Software/DAVE project/S2GL_Doppler/Libraries/XMCLib/inc\xmc_ccu8.h ****   XMC_CCU8_OUT_PATH_OUT1_ST2      = (uint32_t)0x00F00, /**< CCU8yST2 signal path is connected the C
 696:C:/Users/±è°æ¹Î/Desktop/IFX_S2GL-HW-SW_V1.1.3/Firmware_Software/DAVE project/S2GL_Doppler/Libraries/XMCLib/inc\xmc_ccu8.h ****   XMC_CCU8_OUT_PATH_OUT1_INV_ST2  = (uint32_t)0x00E00, /**< Inverted CCU8yST2 signal path is connec
 697:C:/Users/±è°æ¹Î/Desktop/IFX_S2GL-HW-SW_V1.1.3/Firmware_Software/DAVE project/S2GL_Doppler/Libraries/XMCLib/inc\xmc_ccu8.h ****   XMC_CCU8_OUT_PATH_OUT2_ST2      = (uint32_t)0x0C000, /**< CCU8yST2 signal path is connected the C
 698:C:/Users/±è°æ¹Î/Desktop/IFX_S2GL-HW-SW_V1.1.3/Firmware_Software/DAVE project/S2GL_Doppler/Libraries/XMCLib/inc\xmc_ccu8.h ****   XMC_CCU8_OUT_PATH_OUT2_INV_ST2  = (uint32_t)0x0D000, /**< Inverted CCU8yST2 signal path is connec
 699:C:/Users/±è°æ¹Î/Desktop/IFX_S2GL-HW-SW_V1.1.3/Firmware_Software/DAVE project/S2GL_Doppler/Libraries/XMCLib/inc\xmc_ccu8.h ****   XMC_CCU8_OUT_PATH_OUT2_ST1      = (uint32_t)0x0E000, /**< CCU8yST1 signal path is connected the C
 700:C:/Users/±è°æ¹Î/Desktop/IFX_S2GL-HW-SW_V1.1.3/Firmware_Software/DAVE project/S2GL_Doppler/Libraries/XMCLib/inc\xmc_ccu8.h ****   XMC_CCU8_OUT_PATH_OUT2_INV_ST1  = (uint32_t)0x0F000, /**< Inverted CCU8yST1 signal path is connec
 701:C:/Users/±è°æ¹Î/Desktop/IFX_S2GL-HW-SW_V1.1.3/Firmware_Software/DAVE project/S2GL_Doppler/Libraries/XMCLib/inc\xmc_ccu8.h ****   XMC_CCU8_OUT_PATH_OUT3_ST2      = (uint32_t)0xD0000, /**< CCU8yST2 signal path is connected the C
 702:C:/Users/±è°æ¹Î/Desktop/IFX_S2GL-HW-SW_V1.1.3/Firmware_Software/DAVE project/S2GL_Doppler/Libraries/XMCLib/inc\xmc_ccu8.h ****   XMC_CCU8_OUT_PATH_OUT3_INV_ST2  = (uint32_t)0xC0000, /**< Inverted CCU8yST2 signal path is connec
 703:C:/Users/±è°æ¹Î/Desktop/IFX_S2GL-HW-SW_V1.1.3/Firmware_Software/DAVE project/S2GL_Doppler/Libraries/XMCLib/inc\xmc_ccu8.h ****   XMC_CCU8_OUT_PATH_OUT3_ST1      = (uint32_t)0xF0000, /**< CCU8yST1 signal path is connected the C
 704:C:/Users/±è°æ¹Î/Desktop/IFX_S2GL-HW-SW_V1.1.3/Firmware_Software/DAVE project/S2GL_Doppler/Libraries/XMCLib/inc\xmc_ccu8.h ****   XMC_CCU8_OUT_PATH_OUT3_INV_ST1  = (uint32_t)0xE0000  /**< Inverted CCU8yST1 signal path is connec
 705:C:/Users/±è°æ¹Î/Desktop/IFX_S2GL-HW-SW_V1.1.3/Firmware_Software/DAVE project/S2GL_Doppler/Libraries/XMCLib/inc\xmc_ccu8.h **** } XMC_CCU8_OUT_PATH_t;
 706:C:/Users/±è°æ¹Î/Desktop/IFX_S2GL-HW-SW_V1.1.3/Firmware_Software/DAVE project/S2GL_Doppler/Libraries/XMCLib/inc\xmc_ccu8.h **** 
 707:C:/Users/±è°æ¹Î/Desktop/IFX_S2GL-HW-SW_V1.1.3/Firmware_Software/DAVE project/S2GL_Doppler/Libraries/XMCLib/inc\xmc_ccu8.h **** /**
 708:C:/Users/±è°æ¹Î/Desktop/IFX_S2GL-HW-SW_V1.1.3/Firmware_Software/DAVE project/S2GL_Doppler/Libraries/XMCLib/inc\xmc_ccu8.h ****  *  Immediate write into configuration register
 709:C:/Users/±è°æ¹Î/Desktop/IFX_S2GL-HW-SW_V1.1.3/Firmware_Software/DAVE project/S2GL_Doppler/Libraries/XMCLib/inc\xmc_ccu8.h ****  *  @note Only available for XMC1400 series
 710:C:/Users/±è°æ¹Î/Desktop/IFX_S2GL-HW-SW_V1.1.3/Firmware_Software/DAVE project/S2GL_Doppler/Libraries/XMCLib/inc\xmc_ccu8.h ****  */
 711:C:/Users/±è°æ¹Î/Desktop/IFX_S2GL-HW-SW_V1.1.3/Firmware_Software/DAVE project/S2GL_Doppler/Libraries/XMCLib/inc\xmc_ccu8.h **** typedef enum XMC_CCU8_SLICE_WRITE_INTO
 712:C:/Users/±è°æ¹Î/Desktop/IFX_S2GL-HW-SW_V1.1.3/Firmware_Software/DAVE project/S2GL_Doppler/Libraries/XMCLib/inc\xmc_ccu8.h **** {
 713:C:/Users/±è°æ¹Î/Desktop/IFX_S2GL-HW-SW_V1.1.3/Firmware_Software/DAVE project/S2GL_Doppler/Libraries/XMCLib/inc\xmc_ccu8.h ****   XMC_CCU8_SLICE_WRITE_INTO_PERIOD_CONFIGURATION = CCU8_CC8_STC_IRPC_Msk,                  /**< Imm
 714:C:/Users/±è°æ¹Î/Desktop/IFX_S2GL-HW-SW_V1.1.3/Firmware_Software/DAVE project/S2GL_Doppler/Libraries/XMCLib/inc\xmc_ccu8.h ****                                                                                                 Wri
 715:C:/Users/±è°æ¹Î/Desktop/IFX_S2GL-HW-SW_V1.1.3/Firmware_Software/DAVE project/S2GL_Doppler/Libraries/XMCLib/inc\xmc_ccu8.h ****                                                                                                 Con
 716:C:/Users/±è°æ¹Î/Desktop/IFX_S2GL-HW-SW_V1.1.3/Firmware_Software/DAVE project/S2GL_Doppler/Libraries/XMCLib/inc\xmc_ccu8.h ****   XMC_CCU8_SLICE_WRITE_INTO_COMPARE1_CONFIGURATION = CCU8_CC8_STC_IRCC1_Msk,               /**< Imm
 717:C:/Users/±è°æ¹Î/Desktop/IFX_S2GL-HW-SW_V1.1.3/Firmware_Software/DAVE project/S2GL_Doppler/Libraries/XMCLib/inc\xmc_ccu8.h ****                                                                                                 Wri
 718:C:/Users/±è°æ¹Î/Desktop/IFX_S2GL-HW-SW_V1.1.3/Firmware_Software/DAVE project/S2GL_Doppler/Libraries/XMCLib/inc\xmc_ccu8.h ****                                                                                                 Con
 719:C:/Users/±è°æ¹Î/Desktop/IFX_S2GL-HW-SW_V1.1.3/Firmware_Software/DAVE project/S2GL_Doppler/Libraries/XMCLib/inc\xmc_ccu8.h ****   XMC_CCU8_SLICE_WRITE_INTO_COMPARE2_CONFIGURATION = CCU8_CC8_STC_IRCC2_Msk,               /**< Imm
 720:C:/Users/±è°æ¹Î/Desktop/IFX_S2GL-HW-SW_V1.1.3/Firmware_Software/DAVE project/S2GL_Doppler/Libraries/XMCLib/inc\xmc_ccu8.h ****                                                                                                 Wri
 721:C:/Users/±è°æ¹Î/Desktop/IFX_S2GL-HW-SW_V1.1.3/Firmware_Software/DAVE project/S2GL_Doppler/Libraries/XMCLib/inc\xmc_ccu8.h ****                                                                                                 Con
 722:C:/Users/±è°æ¹Î/Desktop/IFX_S2GL-HW-SW_V1.1.3/Firmware_Software/DAVE project/S2GL_Doppler/Libraries/XMCLib/inc\xmc_ccu8.h ****   XMC_CCU8_SLICE_WRITE_INTO_PASSIVE_LEVEL_CONFIGURATION = CCU8_CC8_STC_IRLC_Msk,           /**< Imm
 723:C:/Users/±è°æ¹Î/Desktop/IFX_S2GL-HW-SW_V1.1.3/Firmware_Software/DAVE project/S2GL_Doppler/Libraries/XMCLib/inc\xmc_ccu8.h ****                                                                                                 Wri
 724:C:/Users/±è°æ¹Î/Desktop/IFX_S2GL-HW-SW_V1.1.3/Firmware_Software/DAVE project/S2GL_Doppler/Libraries/XMCLib/inc\xmc_ccu8.h **** 	                                                                                            Config
 725:C:/Users/±è°æ¹Î/Desktop/IFX_S2GL-HW-SW_V1.1.3/Firmware_Software/DAVE project/S2GL_Doppler/Libraries/XMCLib/inc\xmc_ccu8.h ****   XMC_CCU8_SLICE_WRITE_INTO_DITHER_VALUE_CONFIGURATION = CCU8_CC8_STC_IRDC_Msk,            /**< Imm
 726:C:/Users/±è°æ¹Î/Desktop/IFX_S2GL-HW-SW_V1.1.3/Firmware_Software/DAVE project/S2GL_Doppler/Libraries/XMCLib/inc\xmc_ccu8.h ****                                                                                                 Wri
 727:C:/Users/±è°æ¹Î/Desktop/IFX_S2GL-HW-SW_V1.1.3/Firmware_Software/DAVE project/S2GL_Doppler/Libraries/XMCLib/inc\xmc_ccu8.h **** 	                                                                                            Config
 728:C:/Users/±è°æ¹Î/Desktop/IFX_S2GL-HW-SW_V1.1.3/Firmware_Software/DAVE project/S2GL_Doppler/Libraries/XMCLib/inc\xmc_ccu8.h ****   XMC_CCU8_SLICE_WRITE_INTO_FLOATING_PRESCALER_VALUE_CONFIGURATION = CCU8_CC8_STC_IRFC_Msk /**< Imm
 729:C:/Users/±è°æ¹Î/Desktop/IFX_S2GL-HW-SW_V1.1.3/Firmware_Software/DAVE project/S2GL_Doppler/Libraries/XMCLib/inc\xmc_ccu8.h ****                                                                                                 Wri
 730:C:/Users/±è°æ¹Î/Desktop/IFX_S2GL-HW-SW_V1.1.3/Firmware_Software/DAVE project/S2GL_Doppler/Libraries/XMCLib/inc\xmc_ccu8.h ****                                                                                                 Val
 731:C:/Users/±è°æ¹Î/Desktop/IFX_S2GL-HW-SW_V1.1.3/Firmware_Software/DAVE project/S2GL_Doppler/Libraries/XMCLib/inc\xmc_ccu8.h **** } XMC_CCU8_SLICE_WRITE_INTO_t;
 732:C:/Users/±è°æ¹Î/Desktop/IFX_S2GL-HW-SW_V1.1.3/Firmware_Software/DAVE project/S2GL_Doppler/Libraries/XMCLib/inc\xmc_ccu8.h **** 
 733:C:/Users/±è°æ¹Î/Desktop/IFX_S2GL-HW-SW_V1.1.3/Firmware_Software/DAVE project/S2GL_Doppler/Libraries/XMCLib/inc\xmc_ccu8.h **** 
 734:C:/Users/±è°æ¹Î/Desktop/IFX_S2GL-HW-SW_V1.1.3/Firmware_Software/DAVE project/S2GL_Doppler/Libraries/XMCLib/inc\xmc_ccu8.h **** /**
 735:C:/Users/±è°æ¹Î/Desktop/IFX_S2GL-HW-SW_V1.1.3/Firmware_Software/DAVE project/S2GL_Doppler/Libraries/XMCLib/inc\xmc_ccu8.h ****  *  Automatic Shadow Transfer request when writing into shadow register
 736:C:/Users/±è°æ¹Î/Desktop/IFX_S2GL-HW-SW_V1.1.3/Firmware_Software/DAVE project/S2GL_Doppler/Libraries/XMCLib/inc\xmc_ccu8.h ****  *  @note Only available for XMC1400 series
 737:C:/Users/±è°æ¹Î/Desktop/IFX_S2GL-HW-SW_V1.1.3/Firmware_Software/DAVE project/S2GL_Doppler/Libraries/XMCLib/inc\xmc_ccu8.h ****  */
 738:C:/Users/±è°æ¹Î/Desktop/IFX_S2GL-HW-SW_V1.1.3/Firmware_Software/DAVE project/S2GL_Doppler/Libraries/XMCLib/inc\xmc_ccu8.h **** typedef enum XMC_CCU8_SLICE_AUTOMAIC_SHADOW_TRANSFER_WRITE_INTO
 739:C:/Users/±è°æ¹Î/Desktop/IFX_S2GL-HW-SW_V1.1.3/Firmware_Software/DAVE project/S2GL_Doppler/Libraries/XMCLib/inc\xmc_ccu8.h **** {
 740:C:/Users/±è°æ¹Î/Desktop/IFX_S2GL-HW-SW_V1.1.3/Firmware_Software/DAVE project/S2GL_Doppler/Libraries/XMCLib/inc\xmc_ccu8.h ****   XMC_CCU8_SLICE_AUTOMAIC_SHADOW_TRANSFER_WRITE_INTO_PERIOD_SHADOW = CCU8_CC8_STC_ASPC_Msk,        
 741:C:/Users/±è°æ¹Î/Desktop/IFX_S2GL-HW-SW_V1.1.3/Firmware_Software/DAVE project/S2GL_Doppler/Libraries/XMCLib/inc\xmc_ccu8.h **** 	                                                                                                  
 742:C:/Users/±è°æ¹Î/Desktop/IFX_S2GL-HW-SW_V1.1.3/Firmware_Software/DAVE project/S2GL_Doppler/Libraries/XMCLib/inc\xmc_ccu8.h ****                                                                                                    
 743:C:/Users/±è°æ¹Î/Desktop/IFX_S2GL-HW-SW_V1.1.3/Firmware_Software/DAVE project/S2GL_Doppler/Libraries/XMCLib/inc\xmc_ccu8.h ****                                                                                                    
 744:C:/Users/±è°æ¹Î/Desktop/IFX_S2GL-HW-SW_V1.1.3/Firmware_Software/DAVE project/S2GL_Doppler/Libraries/XMCLib/inc\xmc_ccu8.h ****   XMC_CCU8_SLICE_AUTOMAIC_SHADOW_TRANSFER_WRITE_INTO_COMPARE1_SHADOW = CCU8_CC8_STC_ASCC1_Msk,     
 745:C:/Users/±è°æ¹Î/Desktop/IFX_S2GL-HW-SW_V1.1.3/Firmware_Software/DAVE project/S2GL_Doppler/Libraries/XMCLib/inc\xmc_ccu8.h **** 	                                                                                                  
 746:C:/Users/±è°æ¹Î/Desktop/IFX_S2GL-HW-SW_V1.1.3/Firmware_Software/DAVE project/S2GL_Doppler/Libraries/XMCLib/inc\xmc_ccu8.h **** 	                                                                                                  
 747:C:/Users/±è°æ¹Î/Desktop/IFX_S2GL-HW-SW_V1.1.3/Firmware_Software/DAVE project/S2GL_Doppler/Libraries/XMCLib/inc\xmc_ccu8.h **** 	                                                                                                  
 748:C:/Users/±è°æ¹Î/Desktop/IFX_S2GL-HW-SW_V1.1.3/Firmware_Software/DAVE project/S2GL_Doppler/Libraries/XMCLib/inc\xmc_ccu8.h ****   XMC_CCU8_SLICE_AUTOMAIC_SHADOW_TRANSFER_WRITE_INTO_COMPARE2_SHADOW = CCU8_CC8_STC_ASCC2_Msk,     
 749:C:/Users/±è°æ¹Î/Desktop/IFX_S2GL-HW-SW_V1.1.3/Firmware_Software/DAVE project/S2GL_Doppler/Libraries/XMCLib/inc\xmc_ccu8.h **** 	                                                                                                  
 750:C:/Users/±è°æ¹Î/Desktop/IFX_S2GL-HW-SW_V1.1.3/Firmware_Software/DAVE project/S2GL_Doppler/Libraries/XMCLib/inc\xmc_ccu8.h **** 	                                                                                                  
 751:C:/Users/±è°æ¹Î/Desktop/IFX_S2GL-HW-SW_V1.1.3/Firmware_Software/DAVE project/S2GL_Doppler/Libraries/XMCLib/inc\xmc_ccu8.h **** 	                                                                                                  
 752:C:/Users/±è°æ¹Î/Desktop/IFX_S2GL-HW-SW_V1.1.3/Firmware_Software/DAVE project/S2GL_Doppler/Libraries/XMCLib/inc\xmc_ccu8.h ****   XMC_CCU8_SLICE_AUTOMAIC_SHADOW_TRANSFER_WRITE_INTO_PASSIVE_LEVEL = CCU8_CC8_STC_ASLC_Msk,        
 753:C:/Users/±è°æ¹Î/Desktop/IFX_S2GL-HW-SW_V1.1.3/Firmware_Software/DAVE project/S2GL_Doppler/Libraries/XMCLib/inc\xmc_ccu8.h **** 	                                                                                                  
 754:C:/Users/±è°æ¹Î/Desktop/IFX_S2GL-HW-SW_V1.1.3/Firmware_Software/DAVE project/S2GL_Doppler/Libraries/XMCLib/inc\xmc_ccu8.h ****                                                                                                    
 755:C:/Users/±è°æ¹Î/Desktop/IFX_S2GL-HW-SW_V1.1.3/Firmware_Software/DAVE project/S2GL_Doppler/Libraries/XMCLib/inc\xmc_ccu8.h ****   XMC_CCU8_SLICE_AUTOMAIC_SHADOW_TRANSFER_WRITE_INTO_DITHER_SHADOW = CCU8_CC8_STC_ASDC_Msk,        
 756:C:/Users/±è°æ¹Î/Desktop/IFX_S2GL-HW-SW_V1.1.3/Firmware_Software/DAVE project/S2GL_Doppler/Libraries/XMCLib/inc\xmc_ccu8.h ****                                                                                                    
 757:C:/Users/±è°æ¹Î/Desktop/IFX_S2GL-HW-SW_V1.1.3/Firmware_Software/DAVE project/S2GL_Doppler/Libraries/XMCLib/inc\xmc_ccu8.h ****                                                                                                    
 758:C:/Users/±è°æ¹Î/Desktop/IFX_S2GL-HW-SW_V1.1.3/Firmware_Software/DAVE project/S2GL_Doppler/Libraries/XMCLib/inc\xmc_ccu8.h ****   XMC_CCU8_SLICE_AUTOMAIC_SHADOW_TRANSFER_WRITE_INTO_FLOATING_PRESCALER_SHADOW = CCU8_CC8_STC_ASFC_
 759:C:/Users/±è°æ¹Î/Desktop/IFX_S2GL-HW-SW_V1.1.3/Firmware_Software/DAVE project/S2GL_Doppler/Libraries/XMCLib/inc\xmc_ccu8.h **** 	                                                                                                  
 760:C:/Users/±è°æ¹Î/Desktop/IFX_S2GL-HW-SW_V1.1.3/Firmware_Software/DAVE project/S2GL_Doppler/Libraries/XMCLib/inc\xmc_ccu8.h ****                                                                                                    
 761:C:/Users/±è°æ¹Î/Desktop/IFX_S2GL-HW-SW_V1.1.3/Firmware_Software/DAVE project/S2GL_Doppler/Libraries/XMCLib/inc\xmc_ccu8.h ****                                                                                                    
 762:C:/Users/±è°æ¹Î/Desktop/IFX_S2GL-HW-SW_V1.1.3/Firmware_Software/DAVE project/S2GL_Doppler/Libraries/XMCLib/inc\xmc_ccu8.h **** 
 763:C:/Users/±è°æ¹Î/Desktop/IFX_S2GL-HW-SW_V1.1.3/Firmware_Software/DAVE project/S2GL_Doppler/Libraries/XMCLib/inc\xmc_ccu8.h **** } XMC_CCU8_SLICE_AUTOMAIC_SHADOW_TRANSFER_WRITE_INTO_t;
 764:C:/Users/±è°æ¹Î/Desktop/IFX_S2GL-HW-SW_V1.1.3/Firmware_Software/DAVE project/S2GL_Doppler/Libraries/XMCLib/inc\xmc_ccu8.h **** #endif
 765:C:/Users/±è°æ¹Î/Desktop/IFX_S2GL-HW-SW_V1.1.3/Firmware_Software/DAVE project/S2GL_Doppler/Libraries/XMCLib/inc\xmc_ccu8.h **** /**
 766:C:/Users/±è°æ¹Î/Desktop/IFX_S2GL-HW-SW_V1.1.3/Firmware_Software/DAVE project/S2GL_Doppler/Libraries/XMCLib/inc\xmc_ccu8.h ****  *  CCU8 slice mask which can be used for the APIs as input where multi slice support is available
 767:C:/Users/±è°æ¹Î/Desktop/IFX_S2GL-HW-SW_V1.1.3/Firmware_Software/DAVE project/S2GL_Doppler/Libraries/XMCLib/inc\xmc_ccu8.h ****  */
 768:C:/Users/±è°æ¹Î/Desktop/IFX_S2GL-HW-SW_V1.1.3/Firmware_Software/DAVE project/S2GL_Doppler/Libraries/XMCLib/inc\xmc_ccu8.h **** typedef enum XMC_CCU8_SLICE_MASK
 769:C:/Users/±è°æ¹Î/Desktop/IFX_S2GL-HW-SW_V1.1.3/Firmware_Software/DAVE project/S2GL_Doppler/Libraries/XMCLib/inc\xmc_ccu8.h **** {
 770:C:/Users/±è°æ¹Î/Desktop/IFX_S2GL-HW-SW_V1.1.3/Firmware_Software/DAVE project/S2GL_Doppler/Libraries/XMCLib/inc\xmc_ccu8.h ****   XMC_CCU8_SLICE_MASK_SLICE_0  = 1U , /**< SLICE-0 */
 771:C:/Users/±è°æ¹Î/Desktop/IFX_S2GL-HW-SW_V1.1.3/Firmware_Software/DAVE project/S2GL_Doppler/Libraries/XMCLib/inc\xmc_ccu8.h ****   XMC_CCU8_SLICE_MASK_SLICE_1  = 2U , /**< SLICE-1 */
 772:C:/Users/±è°æ¹Î/Desktop/IFX_S2GL-HW-SW_V1.1.3/Firmware_Software/DAVE project/S2GL_Doppler/Libraries/XMCLib/inc\xmc_ccu8.h ****   XMC_CCU8_SLICE_MASK_SLICE_2  = 4U , /**< SLICE-2 */
 773:C:/Users/±è°æ¹Î/Desktop/IFX_S2GL-HW-SW_V1.1.3/Firmware_Software/DAVE project/S2GL_Doppler/Libraries/XMCLib/inc\xmc_ccu8.h ****   XMC_CCU8_SLICE_MASK_SLICE_3  = 8U   /**< SLICE-3 */
 774:C:/Users/±è°æ¹Î/Desktop/IFX_S2GL-HW-SW_V1.1.3/Firmware_Software/DAVE project/S2GL_Doppler/Libraries/XMCLib/inc\xmc_ccu8.h **** } XMC_CCU8_SLICE_MASK_t;
 775:C:/Users/±è°æ¹Î/Desktop/IFX_S2GL-HW-SW_V1.1.3/Firmware_Software/DAVE project/S2GL_Doppler/Libraries/XMCLib/inc\xmc_ccu8.h **** 
 776:C:/Users/±è°æ¹Î/Desktop/IFX_S2GL-HW-SW_V1.1.3/Firmware_Software/DAVE project/S2GL_Doppler/Libraries/XMCLib/inc\xmc_ccu8.h **** /**************************************************************************************************
 777:C:/Users/±è°æ¹Î/Desktop/IFX_S2GL-HW-SW_V1.1.3/Firmware_Software/DAVE project/S2GL_Doppler/Libraries/XMCLib/inc\xmc_ccu8.h ****  * DATA STRUCTURES
 778:C:/Users/±è°æ¹Î/Desktop/IFX_S2GL-HW-SW_V1.1.3/Firmware_Software/DAVE project/S2GL_Doppler/Libraries/XMCLib/inc\xmc_ccu8.h ****  **************************************************************************************************
 779:C:/Users/±è°æ¹Î/Desktop/IFX_S2GL-HW-SW_V1.1.3/Firmware_Software/DAVE project/S2GL_Doppler/Libraries/XMCLib/inc\xmc_ccu8.h **** 
 780:C:/Users/±è°æ¹Î/Desktop/IFX_S2GL-HW-SW_V1.1.3/Firmware_Software/DAVE project/S2GL_Doppler/Libraries/XMCLib/inc\xmc_ccu8.h **** /**
 781:C:/Users/±è°æ¹Î/Desktop/IFX_S2GL-HW-SW_V1.1.3/Firmware_Software/DAVE project/S2GL_Doppler/Libraries/XMCLib/inc\xmc_ccu8.h ****  *  Configuration data structure of an External Event(Event-0/1/2).
 782:C:/Users/±è°æ¹Î/Desktop/IFX_S2GL-HW-SW_V1.1.3/Firmware_Software/DAVE project/S2GL_Doppler/Libraries/XMCLib/inc\xmc_ccu8.h ****  *  Needed to configure the various aspects of an External Event.
 783:C:/Users/±è°æ¹Î/Desktop/IFX_S2GL-HW-SW_V1.1.3/Firmware_Software/DAVE project/S2GL_Doppler/Libraries/XMCLib/inc\xmc_ccu8.h ****  *  This structure will not connect the external event with an external function.
 784:C:/Users/±è°æ¹Î/Desktop/IFX_S2GL-HW-SW_V1.1.3/Firmware_Software/DAVE project/S2GL_Doppler/Libraries/XMCLib/inc\xmc_ccu8.h ****  */
 785:C:/Users/±è°æ¹Î/Desktop/IFX_S2GL-HW-SW_V1.1.3/Firmware_Software/DAVE project/S2GL_Doppler/Libraries/XMCLib/inc\xmc_ccu8.h **** typedef struct XMC_CCU8_SLICE_EVENT_CONFIG
 786:C:/Users/±è°æ¹Î/Desktop/IFX_S2GL-HW-SW_V1.1.3/Firmware_Software/DAVE project/S2GL_Doppler/Libraries/XMCLib/inc\xmc_ccu8.h **** {
 787:C:/Users/±è°æ¹Î/Desktop/IFX_S2GL-HW-SW_V1.1.3/Firmware_Software/DAVE project/S2GL_Doppler/Libraries/XMCLib/inc\xmc_ccu8.h ****   XMC_CCU8_SLICE_INPUT_t                   mapped_input; /**< Required input signal for the Event. 
 788:C:/Users/±è°æ¹Î/Desktop/IFX_S2GL-HW-SW_V1.1.3/Firmware_Software/DAVE project/S2GL_Doppler/Libraries/XMCLib/inc\xmc_ccu8.h ****   XMC_CCU8_SLICE_EVENT_EDGE_SENSITIVITY_t  edge;         /**< Select the event edge of the input si
 789:C:/Users/±è°æ¹Î/Desktop/IFX_S2GL-HW-SW_V1.1.3/Firmware_Software/DAVE project/S2GL_Doppler/Libraries/XMCLib/inc\xmc_ccu8.h ****                                                               This is needed for an edge sensitive 
 790:C:/Users/±è°æ¹Î/Desktop/IFX_S2GL-HW-SW_V1.1.3/Firmware_Software/DAVE project/S2GL_Doppler/Libraries/XMCLib/inc\xmc_ccu8.h ****   XMC_CCU8_SLICE_EVENT_LEVEL_SENSITIVITY_t level;        /**< Select the event level of the input s
 791:C:/Users/±è°æ¹Î/Desktop/IFX_S2GL-HW-SW_V1.1.3/Firmware_Software/DAVE project/S2GL_Doppler/Libraries/XMCLib/inc\xmc_ccu8.h ****                                                               This is needed for an level sensitive
 792:C:/Users/±è°æ¹Î/Desktop/IFX_S2GL-HW-SW_V1.1.3/Firmware_Software/DAVE project/S2GL_Doppler/Libraries/XMCLib/inc\xmc_ccu8.h ****   XMC_CCU8_SLICE_EVENT_FILTER_t            duration;     /**< Low Pass filter duration in terms of 
 793:C:/Users/±è°æ¹Î/Desktop/IFX_S2GL-HW-SW_V1.1.3/Firmware_Software/DAVE project/S2GL_Doppler/Libraries/XMCLib/inc\xmc_ccu8.h **** } XMC_CCU8_SLICE_EVENT_CONFIG_t;
 794:C:/Users/±è°æ¹Î/Desktop/IFX_S2GL-HW-SW_V1.1.3/Firmware_Software/DAVE project/S2GL_Doppler/Libraries/XMCLib/inc\xmc_ccu8.h **** 
 795:C:/Users/±è°æ¹Î/Desktop/IFX_S2GL-HW-SW_V1.1.3/Firmware_Software/DAVE project/S2GL_Doppler/Libraries/XMCLib/inc\xmc_ccu8.h **** /*Anonymous structure/union guard start*/
 796:C:/Users/±è°æ¹Î/Desktop/IFX_S2GL-HW-SW_V1.1.3/Firmware_Software/DAVE project/S2GL_Doppler/Libraries/XMCLib/inc\xmc_ccu8.h **** #if defined(__CC_ARM)
 797:C:/Users/±è°æ¹Î/Desktop/IFX_S2GL-HW-SW_V1.1.3/Firmware_Software/DAVE project/S2GL_Doppler/Libraries/XMCLib/inc\xmc_ccu8.h ****   #pragma push
 798:C:/Users/±è°æ¹Î/Desktop/IFX_S2GL-HW-SW_V1.1.3/Firmware_Software/DAVE project/S2GL_Doppler/Libraries/XMCLib/inc\xmc_ccu8.h ****   #pragma anon_unions
 799:C:/Users/±è°æ¹Î/Desktop/IFX_S2GL-HW-SW_V1.1.3/Firmware_Software/DAVE project/S2GL_Doppler/Libraries/XMCLib/inc\xmc_ccu8.h **** #elif defined(__TASKING__)
 800:C:/Users/±è°æ¹Î/Desktop/IFX_S2GL-HW-SW_V1.1.3/Firmware_Software/DAVE project/S2GL_Doppler/Libraries/XMCLib/inc\xmc_ccu8.h ****   #pragma warning 586
 801:C:/Users/±è°æ¹Î/Desktop/IFX_S2GL-HW-SW_V1.1.3/Firmware_Software/DAVE project/S2GL_Doppler/Libraries/XMCLib/inc\xmc_ccu8.h **** #endif
 802:C:/Users/±è°æ¹Î/Desktop/IFX_S2GL-HW-SW_V1.1.3/Firmware_Software/DAVE project/S2GL_Doppler/Libraries/XMCLib/inc\xmc_ccu8.h **** 
 803:C:/Users/±è°æ¹Î/Desktop/IFX_S2GL-HW-SW_V1.1.3/Firmware_Software/DAVE project/S2GL_Doppler/Libraries/XMCLib/inc\xmc_ccu8.h **** /**
 804:C:/Users/±è°æ¹Î/Desktop/IFX_S2GL-HW-SW_V1.1.3/Firmware_Software/DAVE project/S2GL_Doppler/Libraries/XMCLib/inc\xmc_ccu8.h ****  * Dead Time configuration
 805:C:/Users/±è°æ¹Î/Desktop/IFX_S2GL-HW-SW_V1.1.3/Firmware_Software/DAVE project/S2GL_Doppler/Libraries/XMCLib/inc\xmc_ccu8.h ****  */
 806:C:/Users/±è°æ¹Î/Desktop/IFX_S2GL-HW-SW_V1.1.3/Firmware_Software/DAVE project/S2GL_Doppler/Libraries/XMCLib/inc\xmc_ccu8.h **** typedef struct XMC_CCU8_SLICE_DEAD_TIME_CONFIG
 807:C:/Users/±è°æ¹Î/Desktop/IFX_S2GL-HW-SW_V1.1.3/Firmware_Software/DAVE project/S2GL_Doppler/Libraries/XMCLib/inc\xmc_ccu8.h **** {
 808:C:/Users/±è°æ¹Î/Desktop/IFX_S2GL-HW-SW_V1.1.3/Firmware_Software/DAVE project/S2GL_Doppler/Libraries/XMCLib/inc\xmc_ccu8.h ****   union
 809:C:/Users/±è°æ¹Î/Desktop/IFX_S2GL-HW-SW_V1.1.3/Firmware_Software/DAVE project/S2GL_Doppler/Libraries/XMCLib/inc\xmc_ccu8.h ****   {
 810:C:/Users/±è°æ¹Î/Desktop/IFX_S2GL-HW-SW_V1.1.3/Firmware_Software/DAVE project/S2GL_Doppler/Libraries/XMCLib/inc\xmc_ccu8.h ****     struct
 811:C:/Users/±è°æ¹Î/Desktop/IFX_S2GL-HW-SW_V1.1.3/Firmware_Software/DAVE project/S2GL_Doppler/Libraries/XMCLib/inc\xmc_ccu8.h ****     {
 812:C:/Users/±è°æ¹Î/Desktop/IFX_S2GL-HW-SW_V1.1.3/Firmware_Software/DAVE project/S2GL_Doppler/Libraries/XMCLib/inc\xmc_ccu8.h ****       uint32_t enable_dead_time_channel1 : 1; /**< Enable dead time for Compare Channel-1 */
 813:C:/Users/±è°æ¹Î/Desktop/IFX_S2GL-HW-SW_V1.1.3/Firmware_Software/DAVE project/S2GL_Doppler/Libraries/XMCLib/inc\xmc_ccu8.h ****       uint32_t enable_dead_time_channel2 : 1; /**< Enable dead time for Compare Channel-2 */
 814:C:/Users/±è°æ¹Î/Desktop/IFX_S2GL-HW-SW_V1.1.3/Firmware_Software/DAVE project/S2GL_Doppler/Libraries/XMCLib/inc\xmc_ccu8.h ****       uint32_t channel1_st_path : 1;          /**< Should dead time be applied to ST output of Comp
 815:C:/Users/±è°æ¹Î/Desktop/IFX_S2GL-HW-SW_V1.1.3/Firmware_Software/DAVE project/S2GL_Doppler/Libraries/XMCLib/inc\xmc_ccu8.h ****       uint32_t channel1_inv_st_path : 1;      /**< Should dead time be applied to inverse ST output
 816:C:/Users/±è°æ¹Î/Desktop/IFX_S2GL-HW-SW_V1.1.3/Firmware_Software/DAVE project/S2GL_Doppler/Libraries/XMCLib/inc\xmc_ccu8.h ****                                                    Compare Channel-1? */
 817:C:/Users/±è°æ¹Î/Desktop/IFX_S2GL-HW-SW_V1.1.3/Firmware_Software/DAVE project/S2GL_Doppler/Libraries/XMCLib/inc\xmc_ccu8.h ****       uint32_t channel2_st_path : 1;          /**< Should dead time be applied to ST output of Comp
 818:C:/Users/±è°æ¹Î/Desktop/IFX_S2GL-HW-SW_V1.1.3/Firmware_Software/DAVE project/S2GL_Doppler/Libraries/XMCLib/inc\xmc_ccu8.h ****       uint32_t channel2_inv_st_path : 1;      /**< Should dead time be applied to inverse ST output
 819:C:/Users/±è°æ¹Î/Desktop/IFX_S2GL-HW-SW_V1.1.3/Firmware_Software/DAVE project/S2GL_Doppler/Libraries/XMCLib/inc\xmc_ccu8.h ****                                                    Compare Channel-2? */
 820:C:/Users/±è°æ¹Î/Desktop/IFX_S2GL-HW-SW_V1.1.3/Firmware_Software/DAVE project/S2GL_Doppler/Libraries/XMCLib/inc\xmc_ccu8.h ****       uint32_t div : 2;                       /**< Dead time prescaler divider value.
 821:C:/Users/±è°æ¹Î/Desktop/IFX_S2GL-HW-SW_V1.1.3/Firmware_Software/DAVE project/S2GL_Doppler/Libraries/XMCLib/inc\xmc_ccu8.h ****                                                    Accepts enum ::XMC_CCU8_SLICE_DTC_DIV_t*/
 822:C:/Users/±è°æ¹Î/Desktop/IFX_S2GL-HW-SW_V1.1.3/Firmware_Software/DAVE project/S2GL_Doppler/Libraries/XMCLib/inc\xmc_ccu8.h ****       uint32_t : 24;
 823:C:/Users/±è°æ¹Î/Desktop/IFX_S2GL-HW-SW_V1.1.3/Firmware_Software/DAVE project/S2GL_Doppler/Libraries/XMCLib/inc\xmc_ccu8.h ****     };
 824:C:/Users/±è°æ¹Î/Desktop/IFX_S2GL-HW-SW_V1.1.3/Firmware_Software/DAVE project/S2GL_Doppler/Libraries/XMCLib/inc\xmc_ccu8.h ****     uint32_t dtc;
 825:C:/Users/±è°æ¹Î/Desktop/IFX_S2GL-HW-SW_V1.1.3/Firmware_Software/DAVE project/S2GL_Doppler/Libraries/XMCLib/inc\xmc_ccu8.h ****   };
 826:C:/Users/±è°æ¹Î/Desktop/IFX_S2GL-HW-SW_V1.1.3/Firmware_Software/DAVE project/S2GL_Doppler/Libraries/XMCLib/inc\xmc_ccu8.h ****   union
 827:C:/Users/±è°æ¹Î/Desktop/IFX_S2GL-HW-SW_V1.1.3/Firmware_Software/DAVE project/S2GL_Doppler/Libraries/XMCLib/inc\xmc_ccu8.h ****   {
 828:C:/Users/±è°æ¹Î/Desktop/IFX_S2GL-HW-SW_V1.1.3/Firmware_Software/DAVE project/S2GL_Doppler/Libraries/XMCLib/inc\xmc_ccu8.h ****     struct
 829:C:/Users/±è°æ¹Î/Desktop/IFX_S2GL-HW-SW_V1.1.3/Firmware_Software/DAVE project/S2GL_Doppler/Libraries/XMCLib/inc\xmc_ccu8.h ****     {
 830:C:/Users/±è°æ¹Î/Desktop/IFX_S2GL-HW-SW_V1.1.3/Firmware_Software/DAVE project/S2GL_Doppler/Libraries/XMCLib/inc\xmc_ccu8.h ****       uint32_t channel1_st_rising_edge_counter : 8; /**< Contains the delay value that is applied t
 831:C:/Users/±è°æ¹Î/Desktop/IFX_S2GL-HW-SW_V1.1.3/Firmware_Software/DAVE project/S2GL_Doppler/Libraries/XMCLib/inc\xmc_ccu8.h **** 	                                                       for compare channel-1. Range: [0x0 to 0xFF]
 832:C:/Users/±è°æ¹Î/Desktop/IFX_S2GL-HW-SW_V1.1.3/Firmware_Software/DAVE project/S2GL_Doppler/Libraries/XMCLib/inc\xmc_ccu8.h ****       uint32_t channel1_st_falling_edge_counter : 8; /**< Contains the delay value that is applied 
 833:C:/Users/±è°æ¹Î/Desktop/IFX_S2GL-HW-SW_V1.1.3/Firmware_Software/DAVE project/S2GL_Doppler/Libraries/XMCLib/inc\xmc_ccu8.h **** 	                                                        for compare channel-1. Range: [0x0 to 0xFF
 834:C:/Users/±è°æ¹Î/Desktop/IFX_S2GL-HW-SW_V1.1.3/Firmware_Software/DAVE project/S2GL_Doppler/Libraries/XMCLib/inc\xmc_ccu8.h ****       uint32_t : 16;
 835:C:/Users/±è°æ¹Î/Desktop/IFX_S2GL-HW-SW_V1.1.3/Firmware_Software/DAVE project/S2GL_Doppler/Libraries/XMCLib/inc\xmc_ccu8.h ****     };
 836:C:/Users/±è°æ¹Î/Desktop/IFX_S2GL-HW-SW_V1.1.3/Firmware_Software/DAVE project/S2GL_Doppler/Libraries/XMCLib/inc\xmc_ccu8.h ****     uint32_t dc1r;
 837:C:/Users/±è°æ¹Î/Desktop/IFX_S2GL-HW-SW_V1.1.3/Firmware_Software/DAVE project/S2GL_Doppler/Libraries/XMCLib/inc\xmc_ccu8.h ****   };
 838:C:/Users/±è°æ¹Î/Desktop/IFX_S2GL-HW-SW_V1.1.3/Firmware_Software/DAVE project/S2GL_Doppler/Libraries/XMCLib/inc\xmc_ccu8.h ****   union
 839:C:/Users/±è°æ¹Î/Desktop/IFX_S2GL-HW-SW_V1.1.3/Firmware_Software/DAVE project/S2GL_Doppler/Libraries/XMCLib/inc\xmc_ccu8.h ****   {
 840:C:/Users/±è°æ¹Î/Desktop/IFX_S2GL-HW-SW_V1.1.3/Firmware_Software/DAVE project/S2GL_Doppler/Libraries/XMCLib/inc\xmc_ccu8.h ****     struct
 841:C:/Users/±è°æ¹Î/Desktop/IFX_S2GL-HW-SW_V1.1.3/Firmware_Software/DAVE project/S2GL_Doppler/Libraries/XMCLib/inc\xmc_ccu8.h ****     {
 842:C:/Users/±è°æ¹Î/Desktop/IFX_S2GL-HW-SW_V1.1.3/Firmware_Software/DAVE project/S2GL_Doppler/Libraries/XMCLib/inc\xmc_ccu8.h ****       uint32_t channel2_st_rising_edge_counter : 8; /**< Contains the delay value that is applied t
 843:C:/Users/±è°æ¹Î/Desktop/IFX_S2GL-HW-SW_V1.1.3/Firmware_Software/DAVE project/S2GL_Doppler/Libraries/XMCLib/inc\xmc_ccu8.h **** 	                                                     for compare channel-2. Range: [0x0 to 0xFF]*/
 844:C:/Users/±è°æ¹Î/Desktop/IFX_S2GL-HW-SW_V1.1.3/Firmware_Software/DAVE project/S2GL_Doppler/Libraries/XMCLib/inc\xmc_ccu8.h ****       uint32_t channel2_st_falling_edge_counter : 8; /**< Contains the delay value that is applied 
 845:C:/Users/±è°æ¹Î/Desktop/IFX_S2GL-HW-SW_V1.1.3/Firmware_Software/DAVE project/S2GL_Doppler/Libraries/XMCLib/inc\xmc_ccu8.h **** 	                                                     for compare channel-2. Range: [0x0 to 0xFF]*/
 846:C:/Users/±è°æ¹Î/Desktop/IFX_S2GL-HW-SW_V1.1.3/Firmware_Software/DAVE project/S2GL_Doppler/Libraries/XMCLib/inc\xmc_ccu8.h ****       uint32_t : 16;
 847:C:/Users/±è°æ¹Î/Desktop/IFX_S2GL-HW-SW_V1.1.3/Firmware_Software/DAVE project/S2GL_Doppler/Libraries/XMCLib/inc\xmc_ccu8.h ****     };
 848:C:/Users/±è°æ¹Î/Desktop/IFX_S2GL-HW-SW_V1.1.3/Firmware_Software/DAVE project/S2GL_Doppler/Libraries/XMCLib/inc\xmc_ccu8.h ****     uint32_t dc2r;
 849:C:/Users/±è°æ¹Î/Desktop/IFX_S2GL-HW-SW_V1.1.3/Firmware_Software/DAVE project/S2GL_Doppler/Libraries/XMCLib/inc\xmc_ccu8.h ****   };
 850:C:/Users/±è°æ¹Î/Desktop/IFX_S2GL-HW-SW_V1.1.3/Firmware_Software/DAVE project/S2GL_Doppler/Libraries/XMCLib/inc\xmc_ccu8.h **** } XMC_CCU8_SLICE_DEAD_TIME_CONFIG_t;
 851:C:/Users/±è°æ¹Î/Desktop/IFX_S2GL-HW-SW_V1.1.3/Firmware_Software/DAVE project/S2GL_Doppler/Libraries/XMCLib/inc\xmc_ccu8.h **** 
 852:C:/Users/±è°æ¹Î/Desktop/IFX_S2GL-HW-SW_V1.1.3/Firmware_Software/DAVE project/S2GL_Doppler/Libraries/XMCLib/inc\xmc_ccu8.h **** /**
 853:C:/Users/±è°æ¹Î/Desktop/IFX_S2GL-HW-SW_V1.1.3/Firmware_Software/DAVE project/S2GL_Doppler/Libraries/XMCLib/inc\xmc_ccu8.h ****  *  Configuration data structure for CCU8 slice. Specifically configures the CCU8 slice to compare 
 854:C:/Users/±è°æ¹Î/Desktop/IFX_S2GL-HW-SW_V1.1.3/Firmware_Software/DAVE project/S2GL_Doppler/Libraries/XMCLib/inc\xmc_ccu8.h ****  *  This excludes event and function configuration.
 855:C:/Users/±è°æ¹Î/Desktop/IFX_S2GL-HW-SW_V1.1.3/Firmware_Software/DAVE project/S2GL_Doppler/Libraries/XMCLib/inc\xmc_ccu8.h ****  */
 856:C:/Users/±è°æ¹Î/Desktop/IFX_S2GL-HW-SW_V1.1.3/Firmware_Software/DAVE project/S2GL_Doppler/Libraries/XMCLib/inc\xmc_ccu8.h **** typedef struct XMC_CCU8_SLICE_COMPARE_CONFIG
 857:C:/Users/±è°æ¹Î/Desktop/IFX_S2GL-HW-SW_V1.1.3/Firmware_Software/DAVE project/S2GL_Doppler/Libraries/XMCLib/inc\xmc_ccu8.h **** {
 858:C:/Users/±è°æ¹Î/Desktop/IFX_S2GL-HW-SW_V1.1.3/Firmware_Software/DAVE project/S2GL_Doppler/Libraries/XMCLib/inc\xmc_ccu8.h ****   union
 859:C:/Users/±è°æ¹Î/Desktop/IFX_S2GL-HW-SW_V1.1.3/Firmware_Software/DAVE project/S2GL_Doppler/Libraries/XMCLib/inc\xmc_ccu8.h ****   {
 860:C:/Users/±è°æ¹Î/Desktop/IFX_S2GL-HW-SW_V1.1.3/Firmware_Software/DAVE project/S2GL_Doppler/Libraries/XMCLib/inc\xmc_ccu8.h ****     struct
 861:C:/Users/±è°æ¹Î/Desktop/IFX_S2GL-HW-SW_V1.1.3/Firmware_Software/DAVE project/S2GL_Doppler/Libraries/XMCLib/inc\xmc_ccu8.h ****     {
 862:C:/Users/±è°æ¹Î/Desktop/IFX_S2GL-HW-SW_V1.1.3/Firmware_Software/DAVE project/S2GL_Doppler/Libraries/XMCLib/inc\xmc_ccu8.h ****       uint32_t timer_mode : 1;         /**< Edge aligned or Centre Aligned.
 863:C:/Users/±è°æ¹Î/Desktop/IFX_S2GL-HW-SW_V1.1.3/Firmware_Software/DAVE project/S2GL_Doppler/Libraries/XMCLib/inc\xmc_ccu8.h ****                                             Accepts enum :: XMC_CCU8_SLICE_TIMER_COUNT_MODE_t */
 864:C:/Users/±è°æ¹Î/Desktop/IFX_S2GL-HW-SW_V1.1.3/Firmware_Software/DAVE project/S2GL_Doppler/Libraries/XMCLib/inc\xmc_ccu8.h ****       uint32_t monoshot : 1;           /**< Single shot or Continuous mode .
 865:C:/Users/±è°æ¹Î/Desktop/IFX_S2GL-HW-SW_V1.1.3/Firmware_Software/DAVE project/S2GL_Doppler/Libraries/XMCLib/inc\xmc_ccu8.h ****                                             Accepts enum :: XMC_CCU8_SLICE_TIMER_REPEAT_MODE_t */
 866:C:/Users/±è°æ¹Î/Desktop/IFX_S2GL-HW-SW_V1.1.3/Firmware_Software/DAVE project/S2GL_Doppler/Libraries/XMCLib/inc\xmc_ccu8.h ****       uint32_t shadow_xfer_clear : 1; /**< Should PR and CR shadow xfer happen when timer is cleare
 867:C:/Users/±è°æ¹Î/Desktop/IFX_S2GL-HW-SW_V1.1.3/Firmware_Software/DAVE project/S2GL_Doppler/Libraries/XMCLib/inc\xmc_ccu8.h ****       uint32_t : 10;
 868:C:/Users/±è°æ¹Î/Desktop/IFX_S2GL-HW-SW_V1.1.3/Firmware_Software/DAVE project/S2GL_Doppler/Libraries/XMCLib/inc\xmc_ccu8.h ****       uint32_t dither_timer_period: 1; /**< Can the period of the timer dither? */
 869:C:/Users/±è°æ¹Î/Desktop/IFX_S2GL-HW-SW_V1.1.3/Firmware_Software/DAVE project/S2GL_Doppler/Libraries/XMCLib/inc\xmc_ccu8.h ****       uint32_t dither_duty_cycle : 1;  /**< Can the compare match of the timer dither? */
 870:C:/Users/±è°æ¹Î/Desktop/IFX_S2GL-HW-SW_V1.1.3/Firmware_Software/DAVE project/S2GL_Doppler/Libraries/XMCLib/inc\xmc_ccu8.h ****       uint32_t : 1;
 871:C:/Users/±è°æ¹Î/Desktop/IFX_S2GL-HW-SW_V1.1.3/Firmware_Software/DAVE project/S2GL_Doppler/Libraries/XMCLib/inc\xmc_ccu8.h ****       uint32_t prescaler_mode: 1;      /**< Normal or floating prescaler mode.
 872:C:/Users/±è°æ¹Î/Desktop/IFX_S2GL-HW-SW_V1.1.3/Firmware_Software/DAVE project/S2GL_Doppler/Libraries/XMCLib/inc\xmc_ccu8.h ****                                             Accepts enum :: XMC_CCU8_SLICE_PRESCALER_MODE_t */
 873:C:/Users/±è°æ¹Î/Desktop/IFX_S2GL-HW-SW_V1.1.3/Firmware_Software/DAVE project/S2GL_Doppler/Libraries/XMCLib/inc\xmc_ccu8.h ****       uint32_t : 8;
 874:C:/Users/±è°æ¹Î/Desktop/IFX_S2GL-HW-SW_V1.1.3/Firmware_Software/DAVE project/S2GL_Doppler/Libraries/XMCLib/inc\xmc_ccu8.h ****       uint32_t mcm_ch1_enable : 1;     /**< Multi-Channel mode for compare channel 1 enable? */
 875:C:/Users/±è°æ¹Î/Desktop/IFX_S2GL-HW-SW_V1.1.3/Firmware_Software/DAVE project/S2GL_Doppler/Libraries/XMCLib/inc\xmc_ccu8.h ****       uint32_t mcm_ch2_enable : 1;     /**< Multi-Channel mode for compare channel 2 enable? */
 876:C:/Users/±è°æ¹Î/Desktop/IFX_S2GL-HW-SW_V1.1.3/Firmware_Software/DAVE project/S2GL_Doppler/Libraries/XMCLib/inc\xmc_ccu8.h ****       uint32_t : 2;
 877:C:/Users/±è°æ¹Î/Desktop/IFX_S2GL-HW-SW_V1.1.3/Firmware_Software/DAVE project/S2GL_Doppler/Libraries/XMCLib/inc\xmc_ccu8.h ****       uint32_t slice_status : 2;       /**< Which of the two channels drives the slice status outpu
 878:C:/Users/±è°æ¹Î/Desktop/IFX_S2GL-HW-SW_V1.1.3/Firmware_Software/DAVE project/S2GL_Doppler/Libraries/XMCLib/inc\xmc_ccu8.h **** 	                                          Accepts enum :: XMC_CCU8_SLICE_STATUS_t*/
 879:C:/Users/±è°æ¹Î/Desktop/IFX_S2GL-HW-SW_V1.1.3/Firmware_Software/DAVE project/S2GL_Doppler/Libraries/XMCLib/inc\xmc_ccu8.h ****       uint32_t : 1;
 880:C:/Users/±è°æ¹Î/Desktop/IFX_S2GL-HW-SW_V1.1.3/Firmware_Software/DAVE project/S2GL_Doppler/Libraries/XMCLib/inc\xmc_ccu8.h ****     };
 881:C:/Users/±è°æ¹Î/Desktop/IFX_S2GL-HW-SW_V1.1.3/Firmware_Software/DAVE project/S2GL_Doppler/Libraries/XMCLib/inc\xmc_ccu8.h ****     uint32_t tc;
 882:C:/Users/±è°æ¹Î/Desktop/IFX_S2GL-HW-SW_V1.1.3/Firmware_Software/DAVE project/S2GL_Doppler/Libraries/XMCLib/inc\xmc_ccu8.h ****   };
 883:C:/Users/±è°æ¹Î/Desktop/IFX_S2GL-HW-SW_V1.1.3/Firmware_Software/DAVE project/S2GL_Doppler/Libraries/XMCLib/inc\xmc_ccu8.h ****   union
 884:C:/Users/±è°æ¹Î/Desktop/IFX_S2GL-HW-SW_V1.1.3/Firmware_Software/DAVE project/S2GL_Doppler/Libraries/XMCLib/inc\xmc_ccu8.h ****   {
 885:C:/Users/±è°æ¹Î/Desktop/IFX_S2GL-HW-SW_V1.1.3/Firmware_Software/DAVE project/S2GL_Doppler/Libraries/XMCLib/inc\xmc_ccu8.h ****     struct
 886:C:/Users/±è°æ¹Î/Desktop/IFX_S2GL-HW-SW_V1.1.3/Firmware_Software/DAVE project/S2GL_Doppler/Libraries/XMCLib/inc\xmc_ccu8.h ****     {
 887:C:/Users/±è°æ¹Î/Desktop/IFX_S2GL-HW-SW_V1.1.3/Firmware_Software/DAVE project/S2GL_Doppler/Libraries/XMCLib/inc\xmc_ccu8.h ****       uint32_t passive_level_out0 : 1; /**< ST and OUT passive levels Configuration for OUT0. 
 888:C:/Users/±è°æ¹Î/Desktop/IFX_S2GL-HW-SW_V1.1.3/Firmware_Software/DAVE project/S2GL_Doppler/Libraries/XMCLib/inc\xmc_ccu8.h **** 	                                          Accepts enum :: XMC_CCU8_SLICE_OUTPUT_PASSIVE_LEVEL_t */
 889:C:/Users/±è°æ¹Î/Desktop/IFX_S2GL-HW-SW_V1.1.3/Firmware_Software/DAVE project/S2GL_Doppler/Libraries/XMCLib/inc\xmc_ccu8.h ****       uint32_t passive_level_out1 : 1; /**< ST and OUT passive levels Configuration for OUT1. 
 890:C:/Users/±è°æ¹Î/Desktop/IFX_S2GL-HW-SW_V1.1.3/Firmware_Software/DAVE project/S2GL_Doppler/Libraries/XMCLib/inc\xmc_ccu8.h **** 	                                          Accepts enum :: XMC_CCU8_SLICE_OUTPUT_PASSIVE_LEVEL_t */
 891:C:/Users/±è°æ¹Î/Desktop/IFX_S2GL-HW-SW_V1.1.3/Firmware_Software/DAVE project/S2GL_Doppler/Libraries/XMCLib/inc\xmc_ccu8.h ****       uint32_t passive_level_out2 : 1; /**< ST and OUT passive levels Configuration for OUT2. 
 892:C:/Users/±è°æ¹Î/Desktop/IFX_S2GL-HW-SW_V1.1.3/Firmware_Software/DAVE project/S2GL_Doppler/Libraries/XMCLib/inc\xmc_ccu8.h **** 	                                          Accepts enum :: XMC_CCU8_SLICE_OUTPUT_PASSIVE_LEVEL_t */
 893:C:/Users/±è°æ¹Î/Desktop/IFX_S2GL-HW-SW_V1.1.3/Firmware_Software/DAVE project/S2GL_Doppler/Libraries/XMCLib/inc\xmc_ccu8.h ****       uint32_t passive_level_out3 : 1; /**< ST and OUT passive levels Configuration for OUT3. 
 894:C:/Users/±è°æ¹Î/Desktop/IFX_S2GL-HW-SW_V1.1.3/Firmware_Software/DAVE project/S2GL_Doppler/Libraries/XMCLib/inc\xmc_ccu8.h **** 	                                          Accepts enum :: XMC_CCU8_SLICE_OUTPUT_PASSIVE_LEVEL_t */
 895:C:/Users/±è°æ¹Î/Desktop/IFX_S2GL-HW-SW_V1.1.3/Firmware_Software/DAVE project/S2GL_Doppler/Libraries/XMCLib/inc\xmc_ccu8.h ****       uint32_t : 28;
 896:C:/Users/±è°æ¹Î/Desktop/IFX_S2GL-HW-SW_V1.1.3/Firmware_Software/DAVE project/S2GL_Doppler/Libraries/XMCLib/inc\xmc_ccu8.h ****     };
 897:C:/Users/±è°æ¹Î/Desktop/IFX_S2GL-HW-SW_V1.1.3/Firmware_Software/DAVE project/S2GL_Doppler/Libraries/XMCLib/inc\xmc_ccu8.h ****     uint32_t psl;
 898:C:/Users/±è°æ¹Î/Desktop/IFX_S2GL-HW-SW_V1.1.3/Firmware_Software/DAVE project/S2GL_Doppler/Libraries/XMCLib/inc\xmc_ccu8.h ****   };
 899:C:/Users/±è°æ¹Î/Desktop/IFX_S2GL-HW-SW_V1.1.3/Firmware_Software/DAVE project/S2GL_Doppler/Libraries/XMCLib/inc\xmc_ccu8.h ****   union
 900:C:/Users/±è°æ¹Î/Desktop/IFX_S2GL-HW-SW_V1.1.3/Firmware_Software/DAVE project/S2GL_Doppler/Libraries/XMCLib/inc\xmc_ccu8.h ****   {
 901:C:/Users/±è°æ¹Î/Desktop/IFX_S2GL-HW-SW_V1.1.3/Firmware_Software/DAVE project/S2GL_Doppler/Libraries/XMCLib/inc\xmc_ccu8.h ****     struct
 902:C:/Users/±è°æ¹Î/Desktop/IFX_S2GL-HW-SW_V1.1.3/Firmware_Software/DAVE project/S2GL_Doppler/Libraries/XMCLib/inc\xmc_ccu8.h ****     {
 903:C:/Users/±è°æ¹Î/Desktop/IFX_S2GL-HW-SW_V1.1.3/Firmware_Software/DAVE project/S2GL_Doppler/Libraries/XMCLib/inc\xmc_ccu8.h ****       uint32_t asymmetric_pwm : 1;     /**< Should the PWM be a function of the 2 compare channels
 904:C:/Users/±è°æ¹Î/Desktop/IFX_S2GL-HW-SW_V1.1.3/Firmware_Software/DAVE project/S2GL_Doppler/Libraries/XMCLib/inc\xmc_ccu8.h ****                                             rather than period value? */
 905:C:/Users/±è°æ¹Î/Desktop/IFX_S2GL-HW-SW_V1.1.3/Firmware_Software/DAVE project/S2GL_Doppler/Libraries/XMCLib/inc\xmc_ccu8.h ****   #if !defined(CCU8V3)    /* Defined for all devices except XMC1400 */                             
 906:C:/Users/±è°æ¹Î/Desktop/IFX_S2GL-HW-SW_V1.1.3/Firmware_Software/DAVE project/S2GL_Doppler/Libraries/XMCLib/inc\xmc_ccu8.h ****       uint32_t invert_out0 : 1;        /**< Should inverted ST of Channel-1 be connected to OUT0? *
 907:C:/Users/±è°æ¹Î/Desktop/IFX_S2GL-HW-SW_V1.1.3/Firmware_Software/DAVE project/S2GL_Doppler/Libraries/XMCLib/inc\xmc_ccu8.h ****       uint32_t invert_out1 : 1;        /**< Should inverted ST of Channel-1 be connected to OUT1? *
 908:C:/Users/±è°æ¹Î/Desktop/IFX_S2GL-HW-SW_V1.1.3/Firmware_Software/DAVE project/S2GL_Doppler/Libraries/XMCLib/inc\xmc_ccu8.h ****       uint32_t invert_out2 : 1;        /**< Should inverted ST of Channel-2 be connected to OUT2? *
 909:C:/Users/±è°æ¹Î/Desktop/IFX_S2GL-HW-SW_V1.1.3/Firmware_Software/DAVE project/S2GL_Doppler/Libraries/XMCLib/inc\xmc_ccu8.h ****       uint32_t invert_out3 : 1;        /**< Should inverted ST of Channel-2 be connected to OUT3? *
 910:C:/Users/±è°æ¹Î/Desktop/IFX_S2GL-HW-SW_V1.1.3/Firmware_Software/DAVE project/S2GL_Doppler/Libraries/XMCLib/inc\xmc_ccu8.h ****       uint32_t : 27;
 911:C:/Users/±è°æ¹Î/Desktop/IFX_S2GL-HW-SW_V1.1.3/Firmware_Software/DAVE project/S2GL_Doppler/Libraries/XMCLib/inc\xmc_ccu8.h ****   #else
 912:C:/Users/±è°æ¹Î/Desktop/IFX_S2GL-HW-SW_V1.1.3/Firmware_Software/DAVE project/S2GL_Doppler/Libraries/XMCLib/inc\xmc_ccu8.h ****       uint32_t : 3;
 913:C:/Users/±è°æ¹Î/Desktop/IFX_S2GL-HW-SW_V1.1.3/Firmware_Software/DAVE project/S2GL_Doppler/Libraries/XMCLib/inc\xmc_ccu8.h ****       uint32_t selector_out0 : 2;      /**< Connect ST or inverted ST of Channel-1 or Channel-2 be 
 914:C:/Users/±è°æ¹Î/Desktop/IFX_S2GL-HW-SW_V1.1.3/Firmware_Software/DAVE project/S2GL_Doppler/Libraries/XMCLib/inc\xmc_ccu8.h ****                                             Accepts enum :: XMC_CCU8_SOURCE_OUT0_t 
 915:C:/Users/±è°æ¹Î/Desktop/IFX_S2GL-HW-SW_V1.1.3/Firmware_Software/DAVE project/S2GL_Doppler/Libraries/XMCLib/inc\xmc_ccu8.h ****                                             refer OCS1 bit-field of CHC register. 
 916:C:/Users/±è°æ¹Î/Desktop/IFX_S2GL-HW-SW_V1.1.3/Firmware_Software/DAVE project/S2GL_Doppler/Libraries/XMCLib/inc\xmc_ccu8.h **** 											@note Only available for XMC1400 series */
 917:C:/Users/±è°æ¹Î/Desktop/IFX_S2GL-HW-SW_V1.1.3/Firmware_Software/DAVE project/S2GL_Doppler/Libraries/XMCLib/inc\xmc_ccu8.h ****       uint32_t : 2;
 918:C:/Users/±è°æ¹Î/Desktop/IFX_S2GL-HW-SW_V1.1.3/Firmware_Software/DAVE project/S2GL_Doppler/Libraries/XMCLib/inc\xmc_ccu8.h ****       uint32_t selector_out1 : 2;      /**< Connect ST or inverted ST of Channel-1 or Channel-2 be 
 919:C:/Users/±è°æ¹Î/Desktop/IFX_S2GL-HW-SW_V1.1.3/Firmware_Software/DAVE project/S2GL_Doppler/Libraries/XMCLib/inc\xmc_ccu8.h ****                                             Accepts enum :: XMC_CCU8_SOURCE_OUT1_t 
 920:C:/Users/±è°æ¹Î/Desktop/IFX_S2GL-HW-SW_V1.1.3/Firmware_Software/DAVE project/S2GL_Doppler/Libraries/XMCLib/inc\xmc_ccu8.h ****                                             refer OCS2 bit-field of CHC register. 
 921:C:/Users/±è°æ¹Î/Desktop/IFX_S2GL-HW-SW_V1.1.3/Firmware_Software/DAVE project/S2GL_Doppler/Libraries/XMCLib/inc\xmc_ccu8.h **** 											@note Only available for XMC1400 series */
 922:C:/Users/±è°æ¹Î/Desktop/IFX_S2GL-HW-SW_V1.1.3/Firmware_Software/DAVE project/S2GL_Doppler/Libraries/XMCLib/inc\xmc_ccu8.h ****       uint32_t : 2;
 923:C:/Users/±è°æ¹Î/Desktop/IFX_S2GL-HW-SW_V1.1.3/Firmware_Software/DAVE project/S2GL_Doppler/Libraries/XMCLib/inc\xmc_ccu8.h ****       uint32_t selector_out2 : 2;      /**< Connect ST or inverted ST of Channel-1 or Channel-2 be 
 924:C:/Users/±è°æ¹Î/Desktop/IFX_S2GL-HW-SW_V1.1.3/Firmware_Software/DAVE project/S2GL_Doppler/Libraries/XMCLib/inc\xmc_ccu8.h ****                                             Accepts enum :: XMC_CCU8_SOURCE_OUT2_t 
 925:C:/Users/±è°æ¹Î/Desktop/IFX_S2GL-HW-SW_V1.1.3/Firmware_Software/DAVE project/S2GL_Doppler/Libraries/XMCLib/inc\xmc_ccu8.h ****                                             refer OCS3 bit-field of CHC register.
 926:C:/Users/±è°æ¹Î/Desktop/IFX_S2GL-HW-SW_V1.1.3/Firmware_Software/DAVE project/S2GL_Doppler/Libraries/XMCLib/inc\xmc_ccu8.h **** 											@note Only available for XMC1400 series */
 927:C:/Users/±è°æ¹Î/Desktop/IFX_S2GL-HW-SW_V1.1.3/Firmware_Software/DAVE project/S2GL_Doppler/Libraries/XMCLib/inc\xmc_ccu8.h ****       uint32_t : 2;
 928:C:/Users/±è°æ¹Î/Desktop/IFX_S2GL-HW-SW_V1.1.3/Firmware_Software/DAVE project/S2GL_Doppler/Libraries/XMCLib/inc\xmc_ccu8.h ****       uint32_t selector_out3 : 2;      /**< Connect ST or inverted ST of Channel-1 or Channel-2 be 
 929:C:/Users/±è°æ¹Î/Desktop/IFX_S2GL-HW-SW_V1.1.3/Firmware_Software/DAVE project/S2GL_Doppler/Libraries/XMCLib/inc\xmc_ccu8.h ****                                             Accepts enum :: XMC_CCU8_SOURCE_OUT3_t 
 930:C:/Users/±è°æ¹Î/Desktop/IFX_S2GL-HW-SW_V1.1.3/Firmware_Software/DAVE project/S2GL_Doppler/Libraries/XMCLib/inc\xmc_ccu8.h ****                                             refer OCS4 bit-field of CHC register.
 931:C:/Users/±è°æ¹Î/Desktop/IFX_S2GL-HW-SW_V1.1.3/Firmware_Software/DAVE project/S2GL_Doppler/Libraries/XMCLib/inc\xmc_ccu8.h **** 											@note Only available for XMC1400 series */
 932:C:/Users/±è°æ¹Î/Desktop/IFX_S2GL-HW-SW_V1.1.3/Firmware_Software/DAVE project/S2GL_Doppler/Libraries/XMCLib/inc\xmc_ccu8.h ****       uint32_t : 14;
 933:C:/Users/±è°æ¹Î/Desktop/IFX_S2GL-HW-SW_V1.1.3/Firmware_Software/DAVE project/S2GL_Doppler/Libraries/XMCLib/inc\xmc_ccu8.h ****   #endif
 934:C:/Users/±è°æ¹Î/Desktop/IFX_S2GL-HW-SW_V1.1.3/Firmware_Software/DAVE project/S2GL_Doppler/Libraries/XMCLib/inc\xmc_ccu8.h ****     };
 935:C:/Users/±è°æ¹Î/Desktop/IFX_S2GL-HW-SW_V1.1.3/Firmware_Software/DAVE project/S2GL_Doppler/Libraries/XMCLib/inc\xmc_ccu8.h ****     uint32_t chc;
 936:C:/Users/±è°æ¹Î/Desktop/IFX_S2GL-HW-SW_V1.1.3/Firmware_Software/DAVE project/S2GL_Doppler/Libraries/XMCLib/inc\xmc_ccu8.h ****   };
 937:C:/Users/±è°æ¹Î/Desktop/IFX_S2GL-HW-SW_V1.1.3/Firmware_Software/DAVE project/S2GL_Doppler/Libraries/XMCLib/inc\xmc_ccu8.h ****   uint32_t prescaler_initval : 4;      /**< Initial prescaler divider value 
 938:C:/Users/±è°æ¹Î/Desktop/IFX_S2GL-HW-SW_V1.1.3/Firmware_Software/DAVE project/S2GL_Doppler/Libraries/XMCLib/inc\xmc_ccu8.h ****                                             Accepts enum :: XMC_CCU8_SLICE_PRESCALER_t */
 939:C:/Users/±è°æ¹Î/Desktop/IFX_S2GL-HW-SW_V1.1.3/Firmware_Software/DAVE project/S2GL_Doppler/Libraries/XMCLib/inc\xmc_ccu8.h ****   uint32_t float_limit : 4;            /**< The max value which the prescaler divider can increment
 940:C:/Users/±è°æ¹Î/Desktop/IFX_S2GL-HW-SW_V1.1.3/Firmware_Software/DAVE project/S2GL_Doppler/Libraries/XMCLib/inc\xmc_ccu8.h ****                                             Range : [0 to 15] */
 941:C:/Users/±è°æ¹Î/Desktop/IFX_S2GL-HW-SW_V1.1.3/Firmware_Software/DAVE project/S2GL_Doppler/Libraries/XMCLib/inc\xmc_ccu8.h ****   uint32_t dither_limit : 4;           /**< The value that determines the spreading of dithering 
 942:C:/Users/±è°æ¹Î/Desktop/IFX_S2GL-HW-SW_V1.1.3/Firmware_Software/DAVE project/S2GL_Doppler/Libraries/XMCLib/inc\xmc_ccu8.h ****                                             Range : [0 to 15] */
 943:C:/Users/±è°æ¹Î/Desktop/IFX_S2GL-HW-SW_V1.1.3/Firmware_Software/DAVE project/S2GL_Doppler/Libraries/XMCLib/inc\xmc_ccu8.h ****   uint32_t timer_concatenation : 1;    /**< Enables the concatenation of the timer if true*/
 944:C:/Users/±è°æ¹Î/Desktop/IFX_S2GL-HW-SW_V1.1.3/Firmware_Software/DAVE project/S2GL_Doppler/Libraries/XMCLib/inc\xmc_ccu8.h **** } XMC_CCU8_SLICE_COMPARE_CONFIG_t;
 945:C:/Users/±è°æ¹Î/Desktop/IFX_S2GL-HW-SW_V1.1.3/Firmware_Software/DAVE project/S2GL_Doppler/Libraries/XMCLib/inc\xmc_ccu8.h **** 
 946:C:/Users/±è°æ¹Î/Desktop/IFX_S2GL-HW-SW_V1.1.3/Firmware_Software/DAVE project/S2GL_Doppler/Libraries/XMCLib/inc\xmc_ccu8.h **** /**
 947:C:/Users/±è°æ¹Î/Desktop/IFX_S2GL-HW-SW_V1.1.3/Firmware_Software/DAVE project/S2GL_Doppler/Libraries/XMCLib/inc\xmc_ccu8.h ****  *  Configuration data structure for CCU8 slice. Specifically configures the CCU8 slice to capture 
 948:C:/Users/±è°æ¹Î/Desktop/IFX_S2GL-HW-SW_V1.1.3/Firmware_Software/DAVE project/S2GL_Doppler/Libraries/XMCLib/inc\xmc_ccu8.h ****  *  This excludes event and function configuration.
 949:C:/Users/±è°æ¹Î/Desktop/IFX_S2GL-HW-SW_V1.1.3/Firmware_Software/DAVE project/S2GL_Doppler/Libraries/XMCLib/inc\xmc_ccu8.h ****  */
 950:C:/Users/±è°æ¹Î/Desktop/IFX_S2GL-HW-SW_V1.1.3/Firmware_Software/DAVE project/S2GL_Doppler/Libraries/XMCLib/inc\xmc_ccu8.h **** typedef struct XMC_CCU8_SLICE_CAPTURE_CONFIG
 951:C:/Users/±è°æ¹Î/Desktop/IFX_S2GL-HW-SW_V1.1.3/Firmware_Software/DAVE project/S2GL_Doppler/Libraries/XMCLib/inc\xmc_ccu8.h **** {
 952:C:/Users/±è°æ¹Î/Desktop/IFX_S2GL-HW-SW_V1.1.3/Firmware_Software/DAVE project/S2GL_Doppler/Libraries/XMCLib/inc\xmc_ccu8.h ****   union
 953:C:/Users/±è°æ¹Î/Desktop/IFX_S2GL-HW-SW_V1.1.3/Firmware_Software/DAVE project/S2GL_Doppler/Libraries/XMCLib/inc\xmc_ccu8.h ****   {
 954:C:/Users/±è°æ¹Î/Desktop/IFX_S2GL-HW-SW_V1.1.3/Firmware_Software/DAVE project/S2GL_Doppler/Libraries/XMCLib/inc\xmc_ccu8.h ****     struct
 955:C:/Users/±è°æ¹Î/Desktop/IFX_S2GL-HW-SW_V1.1.3/Firmware_Software/DAVE project/S2GL_Doppler/Libraries/XMCLib/inc\xmc_ccu8.h ****     {
 956:C:/Users/±è°æ¹Î/Desktop/IFX_S2GL-HW-SW_V1.1.3/Firmware_Software/DAVE project/S2GL_Doppler/Libraries/XMCLib/inc\xmc_ccu8.h ****       uint32_t : 4;
 957:C:/Users/±è°æ¹Î/Desktop/IFX_S2GL-HW-SW_V1.1.3/Firmware_Software/DAVE project/S2GL_Doppler/Libraries/XMCLib/inc\xmc_ccu8.h ****       uint32_t fifo_enable : 1;      /**< Should the capture registers be setup as a FIFO?(Extended
 958:C:/Users/±è°æ¹Î/Desktop/IFX_S2GL-HW-SW_V1.1.3/Firmware_Software/DAVE project/S2GL_Doppler/Libraries/XMCLib/inc\xmc_ccu8.h ****       uint32_t timer_clear_mode : 2; /**< How should the timer register be cleared upon detection o
 959:C:/Users/±è°æ¹Î/Desktop/IFX_S2GL-HW-SW_V1.1.3/Firmware_Software/DAVE project/S2GL_Doppler/Libraries/XMCLib/inc\xmc_ccu8.h ****                                           Accepts enum ::XMC_CCU8_SLICE_TIMER_CLEAR_MODE_t */
 960:C:/Users/±è°æ¹Î/Desktop/IFX_S2GL-HW-SW_V1.1.3/Firmware_Software/DAVE project/S2GL_Doppler/Libraries/XMCLib/inc\xmc_ccu8.h ****       uint32_t : 4;
 961:C:/Users/±è°æ¹Î/Desktop/IFX_S2GL-HW-SW_V1.1.3/Firmware_Software/DAVE project/S2GL_Doppler/Libraries/XMCLib/inc\xmc_ccu8.h ****       uint32_t same_event : 1;       /**< Should the capture event for C1V/C0V and C3V/C2V be same 
 962:C:/Users/±è°æ¹Î/Desktop/IFX_S2GL-HW-SW_V1.1.3/Firmware_Software/DAVE project/S2GL_Doppler/Libraries/XMCLib/inc\xmc_ccu8.h ****       uint32_t ignore_full_flag : 1; /**< Should updates to capture registers follow full flag rule
 963:C:/Users/±è°æ¹Î/Desktop/IFX_S2GL-HW-SW_V1.1.3/Firmware_Software/DAVE project/S2GL_Doppler/Libraries/XMCLib/inc\xmc_ccu8.h ****       uint32_t : 3;
 964:C:/Users/±è°æ¹Î/Desktop/IFX_S2GL-HW-SW_V1.1.3/Firmware_Software/DAVE project/S2GL_Doppler/Libraries/XMCLib/inc\xmc_ccu8.h ****       uint32_t prescaler_mode: 1;    /**< Normal or floating prescaler Accepts enum :: XMC_CCU8_SLI
 965:C:/Users/±è°æ¹Î/Desktop/IFX_S2GL-HW-SW_V1.1.3/Firmware_Software/DAVE project/S2GL_Doppler/Libraries/XMCLib/inc\xmc_ccu8.h ****       uint32_t : 15;
 966:C:/Users/±è°æ¹Î/Desktop/IFX_S2GL-HW-SW_V1.1.3/Firmware_Software/DAVE project/S2GL_Doppler/Libraries/XMCLib/inc\xmc_ccu8.h ****     };
 967:C:/Users/±è°æ¹Î/Desktop/IFX_S2GL-HW-SW_V1.1.3/Firmware_Software/DAVE project/S2GL_Doppler/Libraries/XMCLib/inc\xmc_ccu8.h ****     uint32_t tc;
 968:C:/Users/±è°æ¹Î/Desktop/IFX_S2GL-HW-SW_V1.1.3/Firmware_Software/DAVE project/S2GL_Doppler/Libraries/XMCLib/inc\xmc_ccu8.h ****   };
 969:C:/Users/±è°æ¹Î/Desktop/IFX_S2GL-HW-SW_V1.1.3/Firmware_Software/DAVE project/S2GL_Doppler/Libraries/XMCLib/inc\xmc_ccu8.h ****   uint32_t prescaler_initval : 4;    /**< Prescaler divider value */
 970:C:/Users/±è°æ¹Î/Desktop/IFX_S2GL-HW-SW_V1.1.3/Firmware_Software/DAVE project/S2GL_Doppler/Libraries/XMCLib/inc\xmc_ccu8.h ****   uint32_t float_limit : 4;          /**< The max value which the prescaler divider can increment t
 971:C:/Users/±è°æ¹Î/Desktop/IFX_S2GL-HW-SW_V1.1.3/Firmware_Software/DAVE project/S2GL_Doppler/Libraries/XMCLib/inc\xmc_ccu8.h ****   uint32_t timer_concatenation : 1;    /**< Enables the concatenation of the timer */
 972:C:/Users/±è°æ¹Î/Desktop/IFX_S2GL-HW-SW_V1.1.3/Firmware_Software/DAVE project/S2GL_Doppler/Libraries/XMCLib/inc\xmc_ccu8.h **** } XMC_CCU8_SLICE_CAPTURE_CONFIG_t;
 973:C:/Users/±è°æ¹Î/Desktop/IFX_S2GL-HW-SW_V1.1.3/Firmware_Software/DAVE project/S2GL_Doppler/Libraries/XMCLib/inc\xmc_ccu8.h **** /*Anonymous structure/union guard end*/
 974:C:/Users/±è°æ¹Î/Desktop/IFX_S2GL-HW-SW_V1.1.3/Firmware_Software/DAVE project/S2GL_Doppler/Libraries/XMCLib/inc\xmc_ccu8.h **** #if defined(__CC_ARM)
 975:C:/Users/±è°æ¹Î/Desktop/IFX_S2GL-HW-SW_V1.1.3/Firmware_Software/DAVE project/S2GL_Doppler/Libraries/XMCLib/inc\xmc_ccu8.h ****   #pragma pop
 976:C:/Users/±è°æ¹Î/Desktop/IFX_S2GL-HW-SW_V1.1.3/Firmware_Software/DAVE project/S2GL_Doppler/Libraries/XMCLib/inc\xmc_ccu8.h **** #elif defined(__TASKING__)
 977:C:/Users/±è°æ¹Î/Desktop/IFX_S2GL-HW-SW_V1.1.3/Firmware_Software/DAVE project/S2GL_Doppler/Libraries/XMCLib/inc\xmc_ccu8.h ****   #pragma warning restore
 978:C:/Users/±è°æ¹Î/Desktop/IFX_S2GL-HW-SW_V1.1.3/Firmware_Software/DAVE project/S2GL_Doppler/Libraries/XMCLib/inc\xmc_ccu8.h **** #endif
 979:C:/Users/±è°æ¹Î/Desktop/IFX_S2GL-HW-SW_V1.1.3/Firmware_Software/DAVE project/S2GL_Doppler/Libraries/XMCLib/inc\xmc_ccu8.h **** /**************************************************************************************************
 980:C:/Users/±è°æ¹Î/Desktop/IFX_S2GL-HW-SW_V1.1.3/Firmware_Software/DAVE project/S2GL_Doppler/Libraries/XMCLib/inc\xmc_ccu8.h ****  * API Prototypes
 981:C:/Users/±è°æ¹Î/Desktop/IFX_S2GL-HW-SW_V1.1.3/Firmware_Software/DAVE project/S2GL_Doppler/Libraries/XMCLib/inc\xmc_ccu8.h ****  **************************************************************************************************
 982:C:/Users/±è°æ¹Î/Desktop/IFX_S2GL-HW-SW_V1.1.3/Firmware_Software/DAVE project/S2GL_Doppler/Libraries/XMCLib/inc\xmc_ccu8.h **** #ifdef __cplusplus
 983:C:/Users/±è°æ¹Î/Desktop/IFX_S2GL-HW-SW_V1.1.3/Firmware_Software/DAVE project/S2GL_Doppler/Libraries/XMCLib/inc\xmc_ccu8.h **** extern "C" {
 984:C:/Users/±è°æ¹Î/Desktop/IFX_S2GL-HW-SW_V1.1.3/Firmware_Software/DAVE project/S2GL_Doppler/Libraries/XMCLib/inc\xmc_ccu8.h **** #endif
 985:C:/Users/±è°æ¹Î/Desktop/IFX_S2GL-HW-SW_V1.1.3/Firmware_Software/DAVE project/S2GL_Doppler/Libraries/XMCLib/inc\xmc_ccu8.h **** 
 986:C:/Users/±è°æ¹Î/Desktop/IFX_S2GL-HW-SW_V1.1.3/Firmware_Software/DAVE project/S2GL_Doppler/Libraries/XMCLib/inc\xmc_ccu8.h **** __STATIC_INLINE bool XMC_CCU8_IsValidModule(const XMC_CCU8_MODULE_t *const module)
 987:C:/Users/±è°æ¹Î/Desktop/IFX_S2GL-HW-SW_V1.1.3/Firmware_Software/DAVE project/S2GL_Doppler/Libraries/XMCLib/inc\xmc_ccu8.h **** {
 988:C:/Users/±è°æ¹Î/Desktop/IFX_S2GL-HW-SW_V1.1.3/Firmware_Software/DAVE project/S2GL_Doppler/Libraries/XMCLib/inc\xmc_ccu8.h ****   bool tmp = false;
 989:C:/Users/±è°æ¹Î/Desktop/IFX_S2GL-HW-SW_V1.1.3/Firmware_Software/DAVE project/S2GL_Doppler/Libraries/XMCLib/inc\xmc_ccu8.h ****   
 990:C:/Users/±è°æ¹Î/Desktop/IFX_S2GL-HW-SW_V1.1.3/Firmware_Software/DAVE project/S2GL_Doppler/Libraries/XMCLib/inc\xmc_ccu8.h ****   tmp = (module == CCU80);
 991:C:/Users/±è°æ¹Î/Desktop/IFX_S2GL-HW-SW_V1.1.3/Firmware_Software/DAVE project/S2GL_Doppler/Libraries/XMCLib/inc\xmc_ccu8.h ****   
 992:C:/Users/±è°æ¹Î/Desktop/IFX_S2GL-HW-SW_V1.1.3/Firmware_Software/DAVE project/S2GL_Doppler/Libraries/XMCLib/inc\xmc_ccu8.h **** #if defined(CCU81)
 993:C:/Users/±è°æ¹Î/Desktop/IFX_S2GL-HW-SW_V1.1.3/Firmware_Software/DAVE project/S2GL_Doppler/Libraries/XMCLib/inc\xmc_ccu8.h ****   tmp = tmp || (module == CCU81);
 994:C:/Users/±è°æ¹Î/Desktop/IFX_S2GL-HW-SW_V1.1.3/Firmware_Software/DAVE project/S2GL_Doppler/Libraries/XMCLib/inc\xmc_ccu8.h **** #endif
 995:C:/Users/±è°æ¹Î/Desktop/IFX_S2GL-HW-SW_V1.1.3/Firmware_Software/DAVE project/S2GL_Doppler/Libraries/XMCLib/inc\xmc_ccu8.h ****   
 996:C:/Users/±è°æ¹Î/Desktop/IFX_S2GL-HW-SW_V1.1.3/Firmware_Software/DAVE project/S2GL_Doppler/Libraries/XMCLib/inc\xmc_ccu8.h ****   return tmp;  
 997:C:/Users/±è°æ¹Î/Desktop/IFX_S2GL-HW-SW_V1.1.3/Firmware_Software/DAVE project/S2GL_Doppler/Libraries/XMCLib/inc\xmc_ccu8.h **** } 
 998:C:/Users/±è°æ¹Î/Desktop/IFX_S2GL-HW-SW_V1.1.3/Firmware_Software/DAVE project/S2GL_Doppler/Libraries/XMCLib/inc\xmc_ccu8.h **** 
 999:C:/Users/±è°æ¹Î/Desktop/IFX_S2GL-HW-SW_V1.1.3/Firmware_Software/DAVE project/S2GL_Doppler/Libraries/XMCLib/inc\xmc_ccu8.h **** __STATIC_INLINE bool XMC_CCU8_IsValidSlice(const XMC_CCU8_SLICE_t *const slice)
1000:C:/Users/±è°æ¹Î/Desktop/IFX_S2GL-HW-SW_V1.1.3/Firmware_Software/DAVE project/S2GL_Doppler/Libraries/XMCLib/inc\xmc_ccu8.h **** {
1001:C:/Users/±è°æ¹Î/Desktop/IFX_S2GL-HW-SW_V1.1.3/Firmware_Software/DAVE project/S2GL_Doppler/Libraries/XMCLib/inc\xmc_ccu8.h ****   bool tmp = false;
1002:C:/Users/±è°æ¹Î/Desktop/IFX_S2GL-HW-SW_V1.1.3/Firmware_Software/DAVE project/S2GL_Doppler/Libraries/XMCLib/inc\xmc_ccu8.h ****   
1003:C:/Users/±è°æ¹Î/Desktop/IFX_S2GL-HW-SW_V1.1.3/Firmware_Software/DAVE project/S2GL_Doppler/Libraries/XMCLib/inc\xmc_ccu8.h ****   tmp = (slice == CCU80_CC80);
1004:C:/Users/±è°æ¹Î/Desktop/IFX_S2GL-HW-SW_V1.1.3/Firmware_Software/DAVE project/S2GL_Doppler/Libraries/XMCLib/inc\xmc_ccu8.h **** #if defined(CCU80_CC81)  
1005:C:/Users/±è°æ¹Î/Desktop/IFX_S2GL-HW-SW_V1.1.3/Firmware_Software/DAVE project/S2GL_Doppler/Libraries/XMCLib/inc\xmc_ccu8.h ****   tmp = tmp || (slice == CCU80_CC81);
1006:C:/Users/±è°æ¹Î/Desktop/IFX_S2GL-HW-SW_V1.1.3/Firmware_Software/DAVE project/S2GL_Doppler/Libraries/XMCLib/inc\xmc_ccu8.h **** #endif
1007:C:/Users/±è°æ¹Î/Desktop/IFX_S2GL-HW-SW_V1.1.3/Firmware_Software/DAVE project/S2GL_Doppler/Libraries/XMCLib/inc\xmc_ccu8.h **** #if defined(CCU80_CC82)  
1008:C:/Users/±è°æ¹Î/Desktop/IFX_S2GL-HW-SW_V1.1.3/Firmware_Software/DAVE project/S2GL_Doppler/Libraries/XMCLib/inc\xmc_ccu8.h ****   tmp = tmp || (slice == CCU80_CC82);
1009:C:/Users/±è°æ¹Î/Desktop/IFX_S2GL-HW-SW_V1.1.3/Firmware_Software/DAVE project/S2GL_Doppler/Libraries/XMCLib/inc\xmc_ccu8.h **** #endif
1010:C:/Users/±è°æ¹Î/Desktop/IFX_S2GL-HW-SW_V1.1.3/Firmware_Software/DAVE project/S2GL_Doppler/Libraries/XMCLib/inc\xmc_ccu8.h **** #if defined(CCU80_CC83)  
1011:C:/Users/±è°æ¹Î/Desktop/IFX_S2GL-HW-SW_V1.1.3/Firmware_Software/DAVE project/S2GL_Doppler/Libraries/XMCLib/inc\xmc_ccu8.h ****   tmp = tmp || (slice == CCU80_CC83);
1012:C:/Users/±è°æ¹Î/Desktop/IFX_S2GL-HW-SW_V1.1.3/Firmware_Software/DAVE project/S2GL_Doppler/Libraries/XMCLib/inc\xmc_ccu8.h **** #endif
1013:C:/Users/±è°æ¹Î/Desktop/IFX_S2GL-HW-SW_V1.1.3/Firmware_Software/DAVE project/S2GL_Doppler/Libraries/XMCLib/inc\xmc_ccu8.h **** #if defined(CCU81)  
1014:C:/Users/±è°æ¹Î/Desktop/IFX_S2GL-HW-SW_V1.1.3/Firmware_Software/DAVE project/S2GL_Doppler/Libraries/XMCLib/inc\xmc_ccu8.h ****   tmp = tmp || (slice == CCU81_CC80);
1015:C:/Users/±è°æ¹Î/Desktop/IFX_S2GL-HW-SW_V1.1.3/Firmware_Software/DAVE project/S2GL_Doppler/Libraries/XMCLib/inc\xmc_ccu8.h **** #if defined(CCU81_CC81)  
1016:C:/Users/±è°æ¹Î/Desktop/IFX_S2GL-HW-SW_V1.1.3/Firmware_Software/DAVE project/S2GL_Doppler/Libraries/XMCLib/inc\xmc_ccu8.h ****   tmp = tmp || (slice == CCU81_CC81);
1017:C:/Users/±è°æ¹Î/Desktop/IFX_S2GL-HW-SW_V1.1.3/Firmware_Software/DAVE project/S2GL_Doppler/Libraries/XMCLib/inc\xmc_ccu8.h **** #endif
1018:C:/Users/±è°æ¹Î/Desktop/IFX_S2GL-HW-SW_V1.1.3/Firmware_Software/DAVE project/S2GL_Doppler/Libraries/XMCLib/inc\xmc_ccu8.h **** #if defined(CCU81_CC82)  
1019:C:/Users/±è°æ¹Î/Desktop/IFX_S2GL-HW-SW_V1.1.3/Firmware_Software/DAVE project/S2GL_Doppler/Libraries/XMCLib/inc\xmc_ccu8.h ****   tmp = tmp || (slice == CCU81_CC82);
1020:C:/Users/±è°æ¹Î/Desktop/IFX_S2GL-HW-SW_V1.1.3/Firmware_Software/DAVE project/S2GL_Doppler/Libraries/XMCLib/inc\xmc_ccu8.h **** #endif
1021:C:/Users/±è°æ¹Î/Desktop/IFX_S2GL-HW-SW_V1.1.3/Firmware_Software/DAVE project/S2GL_Doppler/Libraries/XMCLib/inc\xmc_ccu8.h **** #if defined(CCU81_CC83)  
1022:C:/Users/±è°æ¹Î/Desktop/IFX_S2GL-HW-SW_V1.1.3/Firmware_Software/DAVE project/S2GL_Doppler/Libraries/XMCLib/inc\xmc_ccu8.h ****   tmp = tmp || (slice == CCU81_CC83);
1023:C:/Users/±è°æ¹Î/Desktop/IFX_S2GL-HW-SW_V1.1.3/Firmware_Software/DAVE project/S2GL_Doppler/Libraries/XMCLib/inc\xmc_ccu8.h **** #endif
1024:C:/Users/±è°æ¹Î/Desktop/IFX_S2GL-HW-SW_V1.1.3/Firmware_Software/DAVE project/S2GL_Doppler/Libraries/XMCLib/inc\xmc_ccu8.h **** #endif 
1025:C:/Users/±è°æ¹Î/Desktop/IFX_S2GL-HW-SW_V1.1.3/Firmware_Software/DAVE project/S2GL_Doppler/Libraries/XMCLib/inc\xmc_ccu8.h ****  
1026:C:/Users/±è°æ¹Î/Desktop/IFX_S2GL-HW-SW_V1.1.3/Firmware_Software/DAVE project/S2GL_Doppler/Libraries/XMCLib/inc\xmc_ccu8.h ****   return tmp;  
1027:C:/Users/±è°æ¹Î/Desktop/IFX_S2GL-HW-SW_V1.1.3/Firmware_Software/DAVE project/S2GL_Doppler/Libraries/XMCLib/inc\xmc_ccu8.h **** } 
1028:C:/Users/±è°æ¹Î/Desktop/IFX_S2GL-HW-SW_V1.1.3/Firmware_Software/DAVE project/S2GL_Doppler/Libraries/XMCLib/inc\xmc_ccu8.h **** 
1029:C:/Users/±è°æ¹Î/Desktop/IFX_S2GL-HW-SW_V1.1.3/Firmware_Software/DAVE project/S2GL_Doppler/Libraries/XMCLib/inc\xmc_ccu8.h **** /**
1030:C:/Users/±è°æ¹Î/Desktop/IFX_S2GL-HW-SW_V1.1.3/Firmware_Software/DAVE project/S2GL_Doppler/Libraries/XMCLib/inc\xmc_ccu8.h ****  * @param module Constant pointer to CCU8 module
1031:C:/Users/±è°æ¹Î/Desktop/IFX_S2GL-HW-SW_V1.1.3/Firmware_Software/DAVE project/S2GL_Doppler/Libraries/XMCLib/inc\xmc_ccu8.h ****  * @param mcs_action multi-channel shadow transfer request configuration
1032:C:/Users/±è°æ¹Î/Desktop/IFX_S2GL-HW-SW_V1.1.3/Firmware_Software/DAVE project/S2GL_Doppler/Libraries/XMCLib/inc\xmc_ccu8.h ****  * @return <BR>
1033:C:/Users/±è°æ¹Î/Desktop/IFX_S2GL-HW-SW_V1.1.3/Firmware_Software/DAVE project/S2GL_Doppler/Libraries/XMCLib/inc\xmc_ccu8.h ****  *    None<BR>
1034:C:/Users/±è°æ¹Î/Desktop/IFX_S2GL-HW-SW_V1.1.3/Firmware_Software/DAVE project/S2GL_Doppler/Libraries/XMCLib/inc\xmc_ccu8.h ****  *
1035:C:/Users/±è°æ¹Î/Desktop/IFX_S2GL-HW-SW_V1.1.3/Firmware_Software/DAVE project/S2GL_Doppler/Libraries/XMCLib/inc\xmc_ccu8.h ****  * \par<b>Description:</b><br>
1036:C:/Users/±è°æ¹Î/Desktop/IFX_S2GL-HW-SW_V1.1.3/Firmware_Software/DAVE project/S2GL_Doppler/Libraries/XMCLib/inc\xmc_ccu8.h ****  *  Initialization of global register GCTRL.\n\n
1037:C:/Users/±è°æ¹Î/Desktop/IFX_S2GL-HW-SW_V1.1.3/Firmware_Software/DAVE project/S2GL_Doppler/Libraries/XMCLib/inc\xmc_ccu8.h ****  *  As part of module initialization, behaviour of the module upon detection
1038:C:/Users/±è°æ¹Î/Desktop/IFX_S2GL-HW-SW_V1.1.3/Firmware_Software/DAVE project/S2GL_Doppler/Libraries/XMCLib/inc\xmc_ccu8.h ****  *  Multi-Channel Mode trigger is configured. Will also invoke the XMC_CCU8_EnableModule().
1039:C:/Users/±è°æ¹Î/Desktop/IFX_S2GL-HW-SW_V1.1.3/Firmware_Software/DAVE project/S2GL_Doppler/Libraries/XMCLib/inc\xmc_ccu8.h ****  *  The API call would bring up the required CCU8 module and also initialize the module for
1040:C:/Users/±è°æ¹Î/Desktop/IFX_S2GL-HW-SW_V1.1.3/Firmware_Software/DAVE project/S2GL_Doppler/Libraries/XMCLib/inc\xmc_ccu8.h ****  *  the required multi-channel shadow transfer.
1041:C:/Users/±è°æ¹Î/Desktop/IFX_S2GL-HW-SW_V1.1.3/Firmware_Software/DAVE project/S2GL_Doppler/Libraries/XMCLib/inc\xmc_ccu8.h ****  *
1042:C:/Users/±è°æ¹Î/Desktop/IFX_S2GL-HW-SW_V1.1.3/Firmware_Software/DAVE project/S2GL_Doppler/Libraries/XMCLib/inc\xmc_ccu8.h ****  * \par<b>Related APIs:</b><br>
1043:C:/Users/±è°æ¹Î/Desktop/IFX_S2GL-HW-SW_V1.1.3/Firmware_Software/DAVE project/S2GL_Doppler/Libraries/XMCLib/inc\xmc_ccu8.h ****  * XMC_CCU8_SLICE_CompareInit()<BR> XMC_CCU8_SLICE_CaptureInit().
1044:C:/Users/±è°æ¹Î/Desktop/IFX_S2GL-HW-SW_V1.1.3/Firmware_Software/DAVE project/S2GL_Doppler/Libraries/XMCLib/inc\xmc_ccu8.h ****  */
1045:C:/Users/±è°æ¹Î/Desktop/IFX_S2GL-HW-SW_V1.1.3/Firmware_Software/DAVE project/S2GL_Doppler/Libraries/XMCLib/inc\xmc_ccu8.h **** void XMC_CCU8_Init(XMC_CCU8_MODULE_t *const module, const XMC_CCU8_SLICE_MCMS_ACTION_t mcs_action);
1046:C:/Users/±è°æ¹Î/Desktop/IFX_S2GL-HW-SW_V1.1.3/Firmware_Software/DAVE project/S2GL_Doppler/Libraries/XMCLib/inc\xmc_ccu8.h **** 
1047:C:/Users/±è°æ¹Î/Desktop/IFX_S2GL-HW-SW_V1.1.3/Firmware_Software/DAVE project/S2GL_Doppler/Libraries/XMCLib/inc\xmc_ccu8.h **** /**
1048:C:/Users/±è°æ¹Î/Desktop/IFX_S2GL-HW-SW_V1.1.3/Firmware_Software/DAVE project/S2GL_Doppler/Libraries/XMCLib/inc\xmc_ccu8.h ****  * @param module Constant pointer to CCU8 module
1049:C:/Users/±è°æ¹Î/Desktop/IFX_S2GL-HW-SW_V1.1.3/Firmware_Software/DAVE project/S2GL_Doppler/Libraries/XMCLib/inc\xmc_ccu8.h ****  * @return <BR>
1050:C:/Users/±è°æ¹Î/Desktop/IFX_S2GL-HW-SW_V1.1.3/Firmware_Software/DAVE project/S2GL_Doppler/Libraries/XMCLib/inc\xmc_ccu8.h ****  *    None<BR>
1051:C:/Users/±è°æ¹Î/Desktop/IFX_S2GL-HW-SW_V1.1.3/Firmware_Software/DAVE project/S2GL_Doppler/Libraries/XMCLib/inc\xmc_ccu8.h ****  *
1052:C:/Users/±è°æ¹Î/Desktop/IFX_S2GL-HW-SW_V1.1.3/Firmware_Software/DAVE project/S2GL_Doppler/Libraries/XMCLib/inc\xmc_ccu8.h ****  * \par<b>Description:</b><br>
1053:C:/Users/±è°æ¹Î/Desktop/IFX_S2GL-HW-SW_V1.1.3/Firmware_Software/DAVE project/S2GL_Doppler/Libraries/XMCLib/inc\xmc_ccu8.h ****  * Enables the CCU8 module and brings it to active state.\n\n
1054:C:/Users/±è°æ¹Î/Desktop/IFX_S2GL-HW-SW_V1.1.3/Firmware_Software/DAVE project/S2GL_Doppler/Libraries/XMCLib/inc\xmc_ccu8.h ****  * Also disables the gating of the clock signal (if applicable depending on the device being select
1055:C:/Users/±è°æ¹Î/Desktop/IFX_S2GL-HW-SW_V1.1.3/Firmware_Software/DAVE project/S2GL_Doppler/Libraries/XMCLib/inc\xmc_ccu8.h ****  * Invoke this API before any operations are done on the CCU8 module. Invoked from  XMC_CCU8_Init()
1056:C:/Users/±è°æ¹Î/Desktop/IFX_S2GL-HW-SW_V1.1.3/Firmware_Software/DAVE project/S2GL_Doppler/Libraries/XMCLib/inc\xmc_ccu8.h ****  *
1057:C:/Users/±è°æ¹Î/Desktop/IFX_S2GL-HW-SW_V1.1.3/Firmware_Software/DAVE project/S2GL_Doppler/Libraries/XMCLib/inc\xmc_ccu8.h ****  * \par<b>Related APIs:</b><br>
1058:C:/Users/±è°æ¹Î/Desktop/IFX_S2GL-HW-SW_V1.1.3/Firmware_Software/DAVE project/S2GL_Doppler/Libraries/XMCLib/inc\xmc_ccu8.h ****  * XMC_CCU8_SetModuleClock()<BR>  XMC_CCU8_DisableModule()<BR>  XMC_CCU8_StartPrescaler().
1059:C:/Users/±è°æ¹Î/Desktop/IFX_S2GL-HW-SW_V1.1.3/Firmware_Software/DAVE project/S2GL_Doppler/Libraries/XMCLib/inc\xmc_ccu8.h ****  */
1060:C:/Users/±è°æ¹Î/Desktop/IFX_S2GL-HW-SW_V1.1.3/Firmware_Software/DAVE project/S2GL_Doppler/Libraries/XMCLib/inc\xmc_ccu8.h **** void XMC_CCU8_EnableModule(XMC_CCU8_MODULE_t *const module);
1061:C:/Users/±è°æ¹Î/Desktop/IFX_S2GL-HW-SW_V1.1.3/Firmware_Software/DAVE project/S2GL_Doppler/Libraries/XMCLib/inc\xmc_ccu8.h **** 
1062:C:/Users/±è°æ¹Î/Desktop/IFX_S2GL-HW-SW_V1.1.3/Firmware_Software/DAVE project/S2GL_Doppler/Libraries/XMCLib/inc\xmc_ccu8.h **** /**
1063:C:/Users/±è°æ¹Î/Desktop/IFX_S2GL-HW-SW_V1.1.3/Firmware_Software/DAVE project/S2GL_Doppler/Libraries/XMCLib/inc\xmc_ccu8.h ****  * @param module Constant pointer to CCU8 module
1064:C:/Users/±è°æ¹Î/Desktop/IFX_S2GL-HW-SW_V1.1.3/Firmware_Software/DAVE project/S2GL_Doppler/Libraries/XMCLib/inc\xmc_ccu8.h ****  * @return <BR>
1065:C:/Users/±è°æ¹Î/Desktop/IFX_S2GL-HW-SW_V1.1.3/Firmware_Software/DAVE project/S2GL_Doppler/Libraries/XMCLib/inc\xmc_ccu8.h ****  *    None<BR>
1066:C:/Users/±è°æ¹Î/Desktop/IFX_S2GL-HW-SW_V1.1.3/Firmware_Software/DAVE project/S2GL_Doppler/Libraries/XMCLib/inc\xmc_ccu8.h ****  *
1067:C:/Users/±è°æ¹Î/Desktop/IFX_S2GL-HW-SW_V1.1.3/Firmware_Software/DAVE project/S2GL_Doppler/Libraries/XMCLib/inc\xmc_ccu8.h ****  * \par<b>Description:</b><br>
1068:C:/Users/±è°æ¹Î/Desktop/IFX_S2GL-HW-SW_V1.1.3/Firmware_Software/DAVE project/S2GL_Doppler/Libraries/XMCLib/inc\xmc_ccu8.h ****  * Brings the CCU8 module to reset state and enables gating of the clock signal(if applicable depen
1069:C:/Users/±è°æ¹Î/Desktop/IFX_S2GL-HW-SW_V1.1.3/Firmware_Software/DAVE project/S2GL_Doppler/Libraries/XMCLib/inc\xmc_ccu8.h ****  * on the device being selected).\n\n
1070:C:/Users/±è°æ¹Î/Desktop/IFX_S2GL-HW-SW_V1.1.3/Firmware_Software/DAVE project/S2GL_Doppler/Libraries/XMCLib/inc\xmc_ccu8.h ****  * Invoke this API when a CCU8 module needs to be disabled completely.
1071:C:/Users/±è°æ¹Î/Desktop/IFX_S2GL-HW-SW_V1.1.3/Firmware_Software/DAVE project/S2GL_Doppler/Libraries/XMCLib/inc\xmc_ccu8.h ****  * Any operation on the CCU8 module will have no effect after this API is called.
1072:C:/Users/±è°æ¹Î/Desktop/IFX_S2GL-HW-SW_V1.1.3/Firmware_Software/DAVE project/S2GL_Doppler/Libraries/XMCLib/inc\xmc_ccu8.h ****  *
1073:C:/Users/±è°æ¹Î/Desktop/IFX_S2GL-HW-SW_V1.1.3/Firmware_Software/DAVE project/S2GL_Doppler/Libraries/XMCLib/inc\xmc_ccu8.h ****  * \par<b>Related APIs:</b><br>
1074:C:/Users/±è°æ¹Î/Desktop/IFX_S2GL-HW-SW_V1.1.3/Firmware_Software/DAVE project/S2GL_Doppler/Libraries/XMCLib/inc\xmc_ccu8.h ****  * XMC_CCU8_EnableModule()<BR> XMC_CCU8_DisableModule().
1075:C:/Users/±è°æ¹Î/Desktop/IFX_S2GL-HW-SW_V1.1.3/Firmware_Software/DAVE project/S2GL_Doppler/Libraries/XMCLib/inc\xmc_ccu8.h ****  */
1076:C:/Users/±è°æ¹Î/Desktop/IFX_S2GL-HW-SW_V1.1.3/Firmware_Software/DAVE project/S2GL_Doppler/Libraries/XMCLib/inc\xmc_ccu8.h **** void XMC_CCU8_DisableModule(XMC_CCU8_MODULE_t *const module);
1077:C:/Users/±è°æ¹Î/Desktop/IFX_S2GL-HW-SW_V1.1.3/Firmware_Software/DAVE project/S2GL_Doppler/Libraries/XMCLib/inc\xmc_ccu8.h **** 
1078:C:/Users/±è°æ¹Î/Desktop/IFX_S2GL-HW-SW_V1.1.3/Firmware_Software/DAVE project/S2GL_Doppler/Libraries/XMCLib/inc\xmc_ccu8.h **** /**
1079:C:/Users/±è°æ¹Î/Desktop/IFX_S2GL-HW-SW_V1.1.3/Firmware_Software/DAVE project/S2GL_Doppler/Libraries/XMCLib/inc\xmc_ccu8.h ****  * @param module Constant pointer to CCU8 module
1080:C:/Users/±è°æ¹Î/Desktop/IFX_S2GL-HW-SW_V1.1.3/Firmware_Software/DAVE project/S2GL_Doppler/Libraries/XMCLib/inc\xmc_ccu8.h ****  * @param clock Choice of input clock to the module
1081:C:/Users/±è°æ¹Î/Desktop/IFX_S2GL-HW-SW_V1.1.3/Firmware_Software/DAVE project/S2GL_Doppler/Libraries/XMCLib/inc\xmc_ccu8.h ****  * @return <BR>
1082:C:/Users/±è°æ¹Î/Desktop/IFX_S2GL-HW-SW_V1.1.3/Firmware_Software/DAVE project/S2GL_Doppler/Libraries/XMCLib/inc\xmc_ccu8.h ****  *    None<BR>
1083:C:/Users/±è°æ¹Î/Desktop/IFX_S2GL-HW-SW_V1.1.3/Firmware_Software/DAVE project/S2GL_Doppler/Libraries/XMCLib/inc\xmc_ccu8.h ****  *
1084:C:/Users/±è°æ¹Î/Desktop/IFX_S2GL-HW-SW_V1.1.3/Firmware_Software/DAVE project/S2GL_Doppler/Libraries/XMCLib/inc\xmc_ccu8.h ****  * \par<b>Description:</b><br>
1085:C:/Users/±è°æ¹Î/Desktop/IFX_S2GL-HW-SW_V1.1.3/Firmware_Software/DAVE project/S2GL_Doppler/Libraries/XMCLib/inc\xmc_ccu8.h ****  *  Selects the Module Clock by configuring GCTRL.PCIS bits.\n\n
1086:C:/Users/±è°æ¹Î/Desktop/IFX_S2GL-HW-SW_V1.1.3/Firmware_Software/DAVE project/S2GL_Doppler/Libraries/XMCLib/inc\xmc_ccu8.h ****  *  There are 3 potential clock sources. This API helps to select the required clock source.
1087:C:/Users/±è°æ¹Î/Desktop/IFX_S2GL-HW-SW_V1.1.3/Firmware_Software/DAVE project/S2GL_Doppler/Libraries/XMCLib/inc\xmc_ccu8.h ****  *  Call to this API is valid after the XMC_CCU8_Init().
1088:C:/Users/±è°æ¹Î/Desktop/IFX_S2GL-HW-SW_V1.1.3/Firmware_Software/DAVE project/S2GL_Doppler/Libraries/XMCLib/inc\xmc_ccu8.h ****  *
1089:C:/Users/±è°æ¹Î/Desktop/IFX_S2GL-HW-SW_V1.1.3/Firmware_Software/DAVE project/S2GL_Doppler/Libraries/XMCLib/inc\xmc_ccu8.h ****  * \par<b>Related APIs:</b><br>
1090:C:/Users/±è°æ¹Î/Desktop/IFX_S2GL-HW-SW_V1.1.3/Firmware_Software/DAVE project/S2GL_Doppler/Libraries/XMCLib/inc\xmc_ccu8.h ****  * None.<BR>
1091:C:/Users/±è°æ¹Î/Desktop/IFX_S2GL-HW-SW_V1.1.3/Firmware_Software/DAVE project/S2GL_Doppler/Libraries/XMCLib/inc\xmc_ccu8.h ****  */
1092:C:/Users/±è°æ¹Î/Desktop/IFX_S2GL-HW-SW_V1.1.3/Firmware_Software/DAVE project/S2GL_Doppler/Libraries/XMCLib/inc\xmc_ccu8.h **** void XMC_CCU8_SetModuleClock(XMC_CCU8_MODULE_t *const module, const XMC_CCU8_CLOCK_t clock);
1093:C:/Users/±è°æ¹Î/Desktop/IFX_S2GL-HW-SW_V1.1.3/Firmware_Software/DAVE project/S2GL_Doppler/Libraries/XMCLib/inc\xmc_ccu8.h **** 
1094:C:/Users/±è°æ¹Î/Desktop/IFX_S2GL-HW-SW_V1.1.3/Firmware_Software/DAVE project/S2GL_Doppler/Libraries/XMCLib/inc\xmc_ccu8.h **** 
1095:C:/Users/±è°æ¹Î/Desktop/IFX_S2GL-HW-SW_V1.1.3/Firmware_Software/DAVE project/S2GL_Doppler/Libraries/XMCLib/inc\xmc_ccu8.h **** /**
1096:C:/Users/±è°æ¹Î/Desktop/IFX_S2GL-HW-SW_V1.1.3/Firmware_Software/DAVE project/S2GL_Doppler/Libraries/XMCLib/inc\xmc_ccu8.h ****  * @param module Constant pointer to CCU8 module
1097:C:/Users/±è°æ¹Î/Desktop/IFX_S2GL-HW-SW_V1.1.3/Firmware_Software/DAVE project/S2GL_Doppler/Libraries/XMCLib/inc\xmc_ccu8.h ****  * @return <BR>
1098:C:/Users/±è°æ¹Î/Desktop/IFX_S2GL-HW-SW_V1.1.3/Firmware_Software/DAVE project/S2GL_Doppler/Libraries/XMCLib/inc\xmc_ccu8.h ****  *    None<BR>
1099:C:/Users/±è°æ¹Î/Desktop/IFX_S2GL-HW-SW_V1.1.3/Firmware_Software/DAVE project/S2GL_Doppler/Libraries/XMCLib/inc\xmc_ccu8.h ****  *
1100:C:/Users/±è°æ¹Î/Desktop/IFX_S2GL-HW-SW_V1.1.3/Firmware_Software/DAVE project/S2GL_Doppler/Libraries/XMCLib/inc\xmc_ccu8.h ****  * \par<b>Description:</b><br>
1101:C:/Users/±è°æ¹Î/Desktop/IFX_S2GL-HW-SW_V1.1.3/Firmware_Software/DAVE project/S2GL_Doppler/Libraries/XMCLib/inc\xmc_ccu8.h ****  *  Starts the prescaler and restores clocks to the timer slices, by setting GIDLC.SPRB bit.<br>\n
1102:C:/Users/±è°æ¹Î/Desktop/IFX_S2GL-HW-SW_V1.1.3/Firmware_Software/DAVE project/S2GL_Doppler/Libraries/XMCLib/inc\xmc_ccu8.h ****  *  Once the input to the prescaler has been chosen and the prescaler divider of all slices program
1103:C:/Users/±è°æ¹Î/Desktop/IFX_S2GL-HW-SW_V1.1.3/Firmware_Software/DAVE project/S2GL_Doppler/Libraries/XMCLib/inc\xmc_ccu8.h ****  *  the prescaler itself may be started. Invoke this  API after XMC_CCU8_Init()
1104:C:/Users/±è°æ¹Î/Desktop/IFX_S2GL-HW-SW_V1.1.3/Firmware_Software/DAVE project/S2GL_Doppler/Libraries/XMCLib/inc\xmc_ccu8.h ****  *  (Mandatory to fully initialize the module).
1105:C:/Users/±è°æ¹Î/Desktop/IFX_S2GL-HW-SW_V1.1.3/Firmware_Software/DAVE project/S2GL_Doppler/Libraries/XMCLib/inc\xmc_ccu8.h ****  *
1106:C:/Users/±è°æ¹Î/Desktop/IFX_S2GL-HW-SW_V1.1.3/Firmware_Software/DAVE project/S2GL_Doppler/Libraries/XMCLib/inc\xmc_ccu8.h ****  * \par<b>Related APIs:</b><br>
1107:C:/Users/±è°æ¹Î/Desktop/IFX_S2GL-HW-SW_V1.1.3/Firmware_Software/DAVE project/S2GL_Doppler/Libraries/XMCLib/inc\xmc_ccu8.h ****  * XMC_CCU8_Init()<BR>  XMC_CCU8_EnableClock()<BR>  XMC_CCU8_DisableClock()<BR>  XMC_CCU8_StartPres
1108:C:/Users/±è°æ¹Î/Desktop/IFX_S2GL-HW-SW_V1.1.3/Firmware_Software/DAVE project/S2GL_Doppler/Libraries/XMCLib/inc\xmc_ccu8.h ****  *  XMC_CCU8_StopPrescaler().
1109:C:/Users/±è°æ¹Î/Desktop/IFX_S2GL-HW-SW_V1.1.3/Firmware_Software/DAVE project/S2GL_Doppler/Libraries/XMCLib/inc\xmc_ccu8.h ****  */
1110:C:/Users/±è°æ¹Î/Desktop/IFX_S2GL-HW-SW_V1.1.3/Firmware_Software/DAVE project/S2GL_Doppler/Libraries/XMCLib/inc\xmc_ccu8.h **** __STATIC_INLINE void XMC_CCU8_StartPrescaler(XMC_CCU8_MODULE_t *const module)
1111:C:/Users/±è°æ¹Î/Desktop/IFX_S2GL-HW-SW_V1.1.3/Firmware_Software/DAVE project/S2GL_Doppler/Libraries/XMCLib/inc\xmc_ccu8.h **** {
1112:C:/Users/±è°æ¹Î/Desktop/IFX_S2GL-HW-SW_V1.1.3/Firmware_Software/DAVE project/S2GL_Doppler/Libraries/XMCLib/inc\xmc_ccu8.h ****   XMC_ASSERT("XMC_CCU8_StartPrescaler:Invalid Module Pointer", XMC_CCU8_IsValidModule(module));
1113:C:/Users/±è°æ¹Î/Desktop/IFX_S2GL-HW-SW_V1.1.3/Firmware_Software/DAVE project/S2GL_Doppler/Libraries/XMCLib/inc\xmc_ccu8.h ****   module->GIDLC |= (uint32_t) CCU8_GIDLC_SPRB_Msk;
 140              	 .loc 2 1113 0
 141 0014 8022     	 mov r2,#128
 142 0016 E368     	 ldr r3,[r4,#12]
 143 0018 5200     	 lsl r2,r2,#1
 144 001a 1343     	 orr r3,r2
 145 001c E360     	 str r3,[r4,#12]
 146              	.LBE29:
 147              	.LBE28:
 309:../Libraries/XMCLib/src/xmc_ccu8.c ****   uint32_t gctrl;
 310:../Libraries/XMCLib/src/xmc_ccu8.c **** 
 311:../Libraries/XMCLib/src/xmc_ccu8.c ****   XMC_ASSERT("XMC_CCU8_Init:Invalid Module Pointer", XMC_CCU8_IsValidModule(module));
 312:../Libraries/XMCLib/src/xmc_ccu8.c ****   XMC_ASSERT("XMC_CCU8_Init:Invalid mcs action", XMC_CCU8_SLICE_CHECK_MCS_ACTION(mcs_action));
 313:../Libraries/XMCLib/src/xmc_ccu8.c **** 
 314:../Libraries/XMCLib/src/xmc_ccu8.c ****   /* Enable CCU8 module */
 315:../Libraries/XMCLib/src/xmc_ccu8.c ****   XMC_CCU8_EnableModule(module);
 316:../Libraries/XMCLib/src/xmc_ccu8.c ****   /* Start the prescaler */
 317:../Libraries/XMCLib/src/xmc_ccu8.c ****   XMC_CCU8_StartPrescaler(module);
 318:../Libraries/XMCLib/src/xmc_ccu8.c ****   
 319:../Libraries/XMCLib/src/xmc_ccu8.c ****   gctrl = module->GCTRL;
 148              	 .loc 1 319 0
 149 001e 2168     	 ldr r1,[r4]
 150              	.LVL9:
 320:../Libraries/XMCLib/src/xmc_ccu8.c ****   gctrl &= ~((uint32_t) CCU8_GCTRL_MSDE_Msk);
 151              	 .loc 1 320 0
 152 0020 024B     	 ldr r3,.L11
 321:../Libraries/XMCLib/src/xmc_ccu8.c ****   gctrl |= (uint32_t)mcs_action << CCU8_GCTRL_MSDE_Pos;
 322:../Libraries/XMCLib/src/xmc_ccu8.c ****   
 323:../Libraries/XMCLib/src/xmc_ccu8.c ****   module->GCTRL = gctrl;
 324:../Libraries/XMCLib/src/xmc_ccu8.c **** }
 153              	 .loc 1 324 0
 154              	 
 320:../Libraries/XMCLib/src/xmc_ccu8.c ****   gctrl &= ~((uint32_t) CCU8_GCTRL_MSDE_Msk);
 155              	 .loc 1 320 0
 156 0022 0B40     	 and r3,r1
 157              	.LVL10:
 321:../Libraries/XMCLib/src/xmc_ccu8.c ****   gctrl |= (uint32_t)mcs_action << CCU8_GCTRL_MSDE_Pos;
 158              	 .loc 1 321 0
 159 0024 A903     	 lsl r1,r5,#14
 160 0026 1943     	 orr r1,r3
 161              	.LVL11:
 323:../Libraries/XMCLib/src/xmc_ccu8.c **** }
 162              	 .loc 1 323 0
 163 0028 2160     	 str r1,[r4]
 164              	.LVL12:
 165              	 .loc 1 324 0
 166 002a 38BD     	 pop {r3,r4,r5,pc}
 167              	.L12:
 168              	 .align 2
 169              	.L11:
 170 002c FF3FFFFF 	 .word -49153
 171              	 .cfi_endproc
 172              	.LFE100:
 174              	 .section .text.XMC_CCU8_SetModuleClock,"ax",%progbits
 175              	 .align 2
 176              	 .global XMC_CCU8_SetModuleClock
 177              	 .code 16
 178              	 .thumb_func
 180              	XMC_CCU8_SetModuleClock:
 181              	.LFB101:
 325:../Libraries/XMCLib/src/xmc_ccu8.c **** 
 326:../Libraries/XMCLib/src/xmc_ccu8.c **** /* API to select CCU8 module clock */
 327:../Libraries/XMCLib/src/xmc_ccu8.c **** void XMC_CCU8_SetModuleClock(XMC_CCU8_MODULE_t *const module, const XMC_CCU8_CLOCK_t clock)
 328:../Libraries/XMCLib/src/xmc_ccu8.c **** {
 182              	 .loc 1 328 0
 183              	 .cfi_startproc
 184              	.LVL13:
 329:../Libraries/XMCLib/src/xmc_ccu8.c ****   uint32_t gctrl;
 330:../Libraries/XMCLib/src/xmc_ccu8.c **** 
 331:../Libraries/XMCLib/src/xmc_ccu8.c ****   XMC_ASSERT("XMC_CCU8_SetModuleClock:Invalid Module Pointer", XMC_CCU8_IsValidModule(module));
 332:../Libraries/XMCLib/src/xmc_ccu8.c ****   XMC_ASSERT("XMC_CCU8_SetModuleClock:Invalid Module Clock", XMC_CCU8_SLICE_CHECK_CLOCK(clock));
 333:../Libraries/XMCLib/src/xmc_ccu8.c **** 
 334:../Libraries/XMCLib/src/xmc_ccu8.c ****   gctrl = module->GCTRL;
 335:../Libraries/XMCLib/src/xmc_ccu8.c ****   gctrl &= ~((uint32_t) CCU8_GCTRL_PCIS_Msk);
 185              	 .loc 1 335 0
 186 0000 3022     	 mov r2,#48
 334:../Libraries/XMCLib/src/xmc_ccu8.c ****   gctrl &= ~((uint32_t) CCU8_GCTRL_PCIS_Msk);
 187              	 .loc 1 334 0
 188 0002 0368     	 ldr r3,[r0]
 189              	.LVL14:
 336:../Libraries/XMCLib/src/xmc_ccu8.c ****   gctrl |= ((uint32_t) clock) << CCU8_GCTRL_PCIS_Pos;
 190              	 .loc 1 336 0
 191 0004 0901     	 lsl r1,r1,#4
 192              	.LVL15:
 335:../Libraries/XMCLib/src/xmc_ccu8.c ****   gctrl |= ((uint32_t) clock) << CCU8_GCTRL_PCIS_Pos;
 193              	 .loc 1 335 0
 194 0006 9343     	 bic r3,r2
 195              	.LVL16:
 196              	 .loc 1 336 0
 197 0008 1943     	 orr r1,r3
 198              	.LVL17:
 337:../Libraries/XMCLib/src/xmc_ccu8.c **** 
 338:../Libraries/XMCLib/src/xmc_ccu8.c ****   module->GCTRL = gctrl;
 199              	 .loc 1 338 0
 200 000a 0160     	 str r1,[r0]
 339:../Libraries/XMCLib/src/xmc_ccu8.c **** }
 201              	 .loc 1 339 0
 202              	 
 203 000c 7047     	 bx lr
 204              	 .cfi_endproc
 205              	.LFE101:
 207 000e C046     	 .section .text.XMC_CCU8_SLICE_CompareInit,"ax",%progbits
 208              	 .align 2
 209              	 .global XMC_CCU8_SLICE_CompareInit
 210              	 .code 16
 211              	 .thumb_func
 213              	XMC_CCU8_SLICE_CompareInit:
 214              	.LFB102:
 340:../Libraries/XMCLib/src/xmc_ccu8.c **** 
 341:../Libraries/XMCLib/src/xmc_ccu8.c **** /* API to configure CC8 Slice in Compare mode */
 342:../Libraries/XMCLib/src/xmc_ccu8.c **** void XMC_CCU8_SLICE_CompareInit(XMC_CCU8_SLICE_t *const slice,
 343:../Libraries/XMCLib/src/xmc_ccu8.c ****                                 const XMC_CCU8_SLICE_COMPARE_CONFIG_t *const compare_init)
 344:../Libraries/XMCLib/src/xmc_ccu8.c **** {
 215              	 .loc 1 344 0
 216              	 .cfi_startproc
 217              	.LVL18:
 218              	.LBB30:
 219              	.LBB31:
1114:C:/Users/±è°æ¹Î/Desktop/IFX_S2GL-HW-SW_V1.1.3/Firmware_Software/DAVE project/S2GL_Doppler/Libraries/XMCLib/inc\xmc_ccu8.h **** }
1115:C:/Users/±è°æ¹Î/Desktop/IFX_S2GL-HW-SW_V1.1.3/Firmware_Software/DAVE project/S2GL_Doppler/Libraries/XMCLib/inc\xmc_ccu8.h **** 
1116:C:/Users/±è°æ¹Î/Desktop/IFX_S2GL-HW-SW_V1.1.3/Firmware_Software/DAVE project/S2GL_Doppler/Libraries/XMCLib/inc\xmc_ccu8.h **** /**
1117:C:/Users/±è°æ¹Î/Desktop/IFX_S2GL-HW-SW_V1.1.3/Firmware_Software/DAVE project/S2GL_Doppler/Libraries/XMCLib/inc\xmc_ccu8.h ****  * @param module Constant pointer to CCU8 module
1118:C:/Users/±è°æ¹Î/Desktop/IFX_S2GL-HW-SW_V1.1.3/Firmware_Software/DAVE project/S2GL_Doppler/Libraries/XMCLib/inc\xmc_ccu8.h ****  * @return <BR>
1119:C:/Users/±è°æ¹Î/Desktop/IFX_S2GL-HW-SW_V1.1.3/Firmware_Software/DAVE project/S2GL_Doppler/Libraries/XMCLib/inc\xmc_ccu8.h ****  *    None<BR>
1120:C:/Users/±è°æ¹Î/Desktop/IFX_S2GL-HW-SW_V1.1.3/Firmware_Software/DAVE project/S2GL_Doppler/Libraries/XMCLib/inc\xmc_ccu8.h ****  *
1121:C:/Users/±è°æ¹Î/Desktop/IFX_S2GL-HW-SW_V1.1.3/Firmware_Software/DAVE project/S2GL_Doppler/Libraries/XMCLib/inc\xmc_ccu8.h ****  * \par<b>Description:</b><br>
1122:C:/Users/±è°æ¹Î/Desktop/IFX_S2GL-HW-SW_V1.1.3/Firmware_Software/DAVE project/S2GL_Doppler/Libraries/XMCLib/inc\xmc_ccu8.h ****  * Stops the prescaler and blocks clocks to the timer slices, by setting GIDLS.CPRB bit.\n\n
1123:C:/Users/±è°æ¹Î/Desktop/IFX_S2GL-HW-SW_V1.1.3/Firmware_Software/DAVE project/S2GL_Doppler/Libraries/XMCLib/inc\xmc_ccu8.h ****  * Clears the run bit of the prescaler. Ensures that the module clock is not supplied to
1124:C:/Users/±è°æ¹Î/Desktop/IFX_S2GL-HW-SW_V1.1.3/Firmware_Software/DAVE project/S2GL_Doppler/Libraries/XMCLib/inc\xmc_ccu8.h ****  * the slices of the module.
1125:C:/Users/±è°æ¹Î/Desktop/IFX_S2GL-HW-SW_V1.1.3/Firmware_Software/DAVE project/S2GL_Doppler/Libraries/XMCLib/inc\xmc_ccu8.h ****  *
1126:C:/Users/±è°æ¹Î/Desktop/IFX_S2GL-HW-SW_V1.1.3/Firmware_Software/DAVE project/S2GL_Doppler/Libraries/XMCLib/inc\xmc_ccu8.h ****  * \par<b>Related APIs:</b><br>
1127:C:/Users/±è°æ¹Î/Desktop/IFX_S2GL-HW-SW_V1.1.3/Firmware_Software/DAVE project/S2GL_Doppler/Libraries/XMCLib/inc\xmc_ccu8.h ****  * XMC_CCU8_EnableClock()<BR>  XMC_CCU8_DisableClock()<BR>  XMC_CCU8_StartPrescaler()<BR>  XMC_CCU8
1128:C:/Users/±è°æ¹Î/Desktop/IFX_S2GL-HW-SW_V1.1.3/Firmware_Software/DAVE project/S2GL_Doppler/Libraries/XMCLib/inc\xmc_ccu8.h ****  */
1129:C:/Users/±è°æ¹Î/Desktop/IFX_S2GL-HW-SW_V1.1.3/Firmware_Software/DAVE project/S2GL_Doppler/Libraries/XMCLib/inc\xmc_ccu8.h **** __STATIC_INLINE void XMC_CCU8_StopPrescaler(XMC_CCU8_MODULE_t *const module)
1130:C:/Users/±è°æ¹Î/Desktop/IFX_S2GL-HW-SW_V1.1.3/Firmware_Software/DAVE project/S2GL_Doppler/Libraries/XMCLib/inc\xmc_ccu8.h **** {
1131:C:/Users/±è°æ¹Î/Desktop/IFX_S2GL-HW-SW_V1.1.3/Firmware_Software/DAVE project/S2GL_Doppler/Libraries/XMCLib/inc\xmc_ccu8.h ****   XMC_ASSERT("XMC_CCU8_StopPrescaler:Invalid Module Pointer", XMC_CCU8_IsValidModule(module));
1132:C:/Users/±è°æ¹Î/Desktop/IFX_S2GL-HW-SW_V1.1.3/Firmware_Software/DAVE project/S2GL_Doppler/Libraries/XMCLib/inc\xmc_ccu8.h ****   module->GIDLS |= (uint32_t) CCU8_GIDLS_CPRB_Msk;
1133:C:/Users/±è°æ¹Î/Desktop/IFX_S2GL-HW-SW_V1.1.3/Firmware_Software/DAVE project/S2GL_Doppler/Libraries/XMCLib/inc\xmc_ccu8.h **** }
1134:C:/Users/±è°æ¹Î/Desktop/IFX_S2GL-HW-SW_V1.1.3/Firmware_Software/DAVE project/S2GL_Doppler/Libraries/XMCLib/inc\xmc_ccu8.h **** 
1135:C:/Users/±è°æ¹Î/Desktop/IFX_S2GL-HW-SW_V1.1.3/Firmware_Software/DAVE project/S2GL_Doppler/Libraries/XMCLib/inc\xmc_ccu8.h **** /**
1136:C:/Users/±è°æ¹Î/Desktop/IFX_S2GL-HW-SW_V1.1.3/Firmware_Software/DAVE project/S2GL_Doppler/Libraries/XMCLib/inc\xmc_ccu8.h ****  * @param module Constant pointer to CCU8 module
1137:C:/Users/±è°æ¹Î/Desktop/IFX_S2GL-HW-SW_V1.1.3/Firmware_Software/DAVE project/S2GL_Doppler/Libraries/XMCLib/inc\xmc_ccu8.h ****  * @return <BR>
1138:C:/Users/±è°æ¹Î/Desktop/IFX_S2GL-HW-SW_V1.1.3/Firmware_Software/DAVE project/S2GL_Doppler/Libraries/XMCLib/inc\xmc_ccu8.h ****  *    None<BR>
1139:C:/Users/±è°æ¹Î/Desktop/IFX_S2GL-HW-SW_V1.1.3/Firmware_Software/DAVE project/S2GL_Doppler/Libraries/XMCLib/inc\xmc_ccu8.h ****  *
1140:C:/Users/±è°æ¹Î/Desktop/IFX_S2GL-HW-SW_V1.1.3/Firmware_Software/DAVE project/S2GL_Doppler/Libraries/XMCLib/inc\xmc_ccu8.h ****  * \par<b>Description:</b><br>
1141:C:/Users/±è°æ¹Î/Desktop/IFX_S2GL-HW-SW_V1.1.3/Firmware_Software/DAVE project/S2GL_Doppler/Libraries/XMCLib/inc\xmc_ccu8.h ****  * Returns the state of the prescaler, by reading GSTAT.PRB bit.\n\n
1142:C:/Users/±è°æ¹Î/Desktop/IFX_S2GL-HW-SW_V1.1.3/Firmware_Software/DAVE project/S2GL_Doppler/Libraries/XMCLib/inc\xmc_ccu8.h ****  * If clock is being supplied to the slices of the  module then returns as true. 
1143:C:/Users/±è°æ¹Î/Desktop/IFX_S2GL-HW-SW_V1.1.3/Firmware_Software/DAVE project/S2GL_Doppler/Libraries/XMCLib/inc\xmc_ccu8.h ****  *
1144:C:/Users/±è°æ¹Î/Desktop/IFX_S2GL-HW-SW_V1.1.3/Firmware_Software/DAVE project/S2GL_Doppler/Libraries/XMCLib/inc\xmc_ccu8.h ****  * \par<b>Related APIs:</b><br>
1145:C:/Users/±è°æ¹Î/Desktop/IFX_S2GL-HW-SW_V1.1.3/Firmware_Software/DAVE project/S2GL_Doppler/Libraries/XMCLib/inc\xmc_ccu8.h ****  * XMC_CCU8_StartPrescaler()<BR>  XMC_CCU8_StopPrescaler()<BR> XMC_CCU8_EnableClock()<BR>  XMC_CCU8
1146:C:/Users/±è°æ¹Î/Desktop/IFX_S2GL-HW-SW_V1.1.3/Firmware_Software/DAVE project/S2GL_Doppler/Libraries/XMCLib/inc\xmc_ccu8.h ****  */
1147:C:/Users/±è°æ¹Î/Desktop/IFX_S2GL-HW-SW_V1.1.3/Firmware_Software/DAVE project/S2GL_Doppler/Libraries/XMCLib/inc\xmc_ccu8.h **** __STATIC_INLINE bool XMC_CCU8_IsPrescalerRunning(XMC_CCU8_MODULE_t *const module)
1148:C:/Users/±è°æ¹Î/Desktop/IFX_S2GL-HW-SW_V1.1.3/Firmware_Software/DAVE project/S2GL_Doppler/Libraries/XMCLib/inc\xmc_ccu8.h **** {
1149:C:/Users/±è°æ¹Î/Desktop/IFX_S2GL-HW-SW_V1.1.3/Firmware_Software/DAVE project/S2GL_Doppler/Libraries/XMCLib/inc\xmc_ccu8.h ****   XMC_ASSERT("XMC_CCU8_IsPrescalerRunning:Invalid Module Pointer", XMC_CCU8_IsValidModule(module));
1150:C:/Users/±è°æ¹Î/Desktop/IFX_S2GL-HW-SW_V1.1.3/Firmware_Software/DAVE project/S2GL_Doppler/Libraries/XMCLib/inc\xmc_ccu8.h ****   return((bool)((module->GSTAT & (uint32_t) CCU8_GSTAT_PRB_Msk) == CCU8_GSTAT_PRB_Msk));
1151:C:/Users/±è°æ¹Î/Desktop/IFX_S2GL-HW-SW_V1.1.3/Firmware_Software/DAVE project/S2GL_Doppler/Libraries/XMCLib/inc\xmc_ccu8.h **** }
1152:C:/Users/±è°æ¹Î/Desktop/IFX_S2GL-HW-SW_V1.1.3/Firmware_Software/DAVE project/S2GL_Doppler/Libraries/XMCLib/inc\xmc_ccu8.h **** 
1153:C:/Users/±è°æ¹Î/Desktop/IFX_S2GL-HW-SW_V1.1.3/Firmware_Software/DAVE project/S2GL_Doppler/Libraries/XMCLib/inc\xmc_ccu8.h **** /**
1154:C:/Users/±è°æ¹Î/Desktop/IFX_S2GL-HW-SW_V1.1.3/Firmware_Software/DAVE project/S2GL_Doppler/Libraries/XMCLib/inc\xmc_ccu8.h ****  * @param module Constant pointer to CCU8 module
1155:C:/Users/±è°æ¹Î/Desktop/IFX_S2GL-HW-SW_V1.1.3/Firmware_Software/DAVE project/S2GL_Doppler/Libraries/XMCLib/inc\xmc_ccu8.h ****  * @param clock_mask Slices whose clocks are to be enabled simultaneously.
1156:C:/Users/±è°æ¹Î/Desktop/IFX_S2GL-HW-SW_V1.1.3/Firmware_Software/DAVE project/S2GL_Doppler/Libraries/XMCLib/inc\xmc_ccu8.h ****  *                   Bit location 0/1/2/3 represents slice-0/1/2/3 respectively. 
1157:C:/Users/±è°æ¹Î/Desktop/IFX_S2GL-HW-SW_V1.1.3/Firmware_Software/DAVE project/S2GL_Doppler/Libraries/XMCLib/inc\xmc_ccu8.h ****  *                   Range: [0x1 to 0xF]
1158:C:/Users/±è°æ¹Î/Desktop/IFX_S2GL-HW-SW_V1.1.3/Firmware_Software/DAVE project/S2GL_Doppler/Libraries/XMCLib/inc\xmc_ccu8.h ****  * @return <BR>
1159:C:/Users/±è°æ¹Î/Desktop/IFX_S2GL-HW-SW_V1.1.3/Firmware_Software/DAVE project/S2GL_Doppler/Libraries/XMCLib/inc\xmc_ccu8.h ****  *    None<BR>
1160:C:/Users/±è°æ¹Î/Desktop/IFX_S2GL-HW-SW_V1.1.3/Firmware_Software/DAVE project/S2GL_Doppler/Libraries/XMCLib/inc\xmc_ccu8.h ****  *
1161:C:/Users/±è°æ¹Î/Desktop/IFX_S2GL-HW-SW_V1.1.3/Firmware_Software/DAVE project/S2GL_Doppler/Libraries/XMCLib/inc\xmc_ccu8.h ****  * \par<b>Description:</b><br>
1162:C:/Users/±è°æ¹Î/Desktop/IFX_S2GL-HW-SW_V1.1.3/Firmware_Software/DAVE project/S2GL_Doppler/Libraries/XMCLib/inc\xmc_ccu8.h ****  * Enables clocks of multiple slices at a time, by configuring GIDLC.CS0I, GIDLC.CS1I, GIDLC.CS2I, 
1163:C:/Users/±è°æ¹Î/Desktop/IFX_S2GL-HW-SW_V1.1.3/Firmware_Software/DAVE project/S2GL_Doppler/Libraries/XMCLib/inc\xmc_ccu8.h ****  * GIDLC.CS3I bits.\n\n
1164:C:/Users/±è°æ¹Î/Desktop/IFX_S2GL-HW-SW_V1.1.3/Firmware_Software/DAVE project/S2GL_Doppler/Libraries/XMCLib/inc\xmc_ccu8.h ****  * Takes an input clock_mask, which determines the slices that would receive the clock. Bring them 
1165:C:/Users/±è°æ¹Î/Desktop/IFX_S2GL-HW-SW_V1.1.3/Firmware_Software/DAVE project/S2GL_Doppler/Libraries/XMCLib/inc\xmc_ccu8.h ****  * of the idle state simultaneously.
1166:C:/Users/±è°æ¹Î/Desktop/IFX_S2GL-HW-SW_V1.1.3/Firmware_Software/DAVE project/S2GL_Doppler/Libraries/XMCLib/inc\xmc_ccu8.h ****  *
1167:C:/Users/±è°æ¹Î/Desktop/IFX_S2GL-HW-SW_V1.1.3/Firmware_Software/DAVE project/S2GL_Doppler/Libraries/XMCLib/inc\xmc_ccu8.h ****  * \par<b>Related APIs:</b><br>
1168:C:/Users/±è°æ¹Î/Desktop/IFX_S2GL-HW-SW_V1.1.3/Firmware_Software/DAVE project/S2GL_Doppler/Libraries/XMCLib/inc\xmc_ccu8.h ****  * XMC_CCU8_EnableClock()<BR>  XMC_CCU8_DisableClock().
1169:C:/Users/±è°æ¹Î/Desktop/IFX_S2GL-HW-SW_V1.1.3/Firmware_Software/DAVE project/S2GL_Doppler/Libraries/XMCLib/inc\xmc_ccu8.h ****  */
1170:C:/Users/±è°æ¹Î/Desktop/IFX_S2GL-HW-SW_V1.1.3/Firmware_Software/DAVE project/S2GL_Doppler/Libraries/XMCLib/inc\xmc_ccu8.h **** __STATIC_INLINE void XMC_CCU8_EnableMultipleClocks(XMC_CCU8_MODULE_t *const module, const uint8_t c
1171:C:/Users/±è°æ¹Î/Desktop/IFX_S2GL-HW-SW_V1.1.3/Firmware_Software/DAVE project/S2GL_Doppler/Libraries/XMCLib/inc\xmc_ccu8.h **** {
1172:C:/Users/±è°æ¹Î/Desktop/IFX_S2GL-HW-SW_V1.1.3/Firmware_Software/DAVE project/S2GL_Doppler/Libraries/XMCLib/inc\xmc_ccu8.h ****   XMC_ASSERT("XMC_CCU8_EnableMultipleClocks:Invalid Module Pointer", XMC_CCU8_IsValidModule(module)
1173:C:/Users/±è°æ¹Î/Desktop/IFX_S2GL-HW-SW_V1.1.3/Firmware_Software/DAVE project/S2GL_Doppler/Libraries/XMCLib/inc\xmc_ccu8.h ****   XMC_ASSERT("XMC_CCU8_EnableMultipleClocks:Invalid clock mask", (clock_mask < 16U));
1174:C:/Users/±è°æ¹Î/Desktop/IFX_S2GL-HW-SW_V1.1.3/Firmware_Software/DAVE project/S2GL_Doppler/Libraries/XMCLib/inc\xmc_ccu8.h **** 
1175:C:/Users/±è°æ¹Î/Desktop/IFX_S2GL-HW-SW_V1.1.3/Firmware_Software/DAVE project/S2GL_Doppler/Libraries/XMCLib/inc\xmc_ccu8.h ****   module->GIDLC |= (uint32_t) clock_mask;
1176:C:/Users/±è°æ¹Î/Desktop/IFX_S2GL-HW-SW_V1.1.3/Firmware_Software/DAVE project/S2GL_Doppler/Libraries/XMCLib/inc\xmc_ccu8.h **** }
1177:C:/Users/±è°æ¹Î/Desktop/IFX_S2GL-HW-SW_V1.1.3/Firmware_Software/DAVE project/S2GL_Doppler/Libraries/XMCLib/inc\xmc_ccu8.h **** 
1178:C:/Users/±è°æ¹Î/Desktop/IFX_S2GL-HW-SW_V1.1.3/Firmware_Software/DAVE project/S2GL_Doppler/Libraries/XMCLib/inc\xmc_ccu8.h **** /**
1179:C:/Users/±è°æ¹Î/Desktop/IFX_S2GL-HW-SW_V1.1.3/Firmware_Software/DAVE project/S2GL_Doppler/Libraries/XMCLib/inc\xmc_ccu8.h ****  * @param slice Constant pointer to CC8 Slice
1180:C:/Users/±è°æ¹Î/Desktop/IFX_S2GL-HW-SW_V1.1.3/Firmware_Software/DAVE project/S2GL_Doppler/Libraries/XMCLib/inc\xmc_ccu8.h ****  * @param compare_init Pointer to slice configuration structure
1181:C:/Users/±è°æ¹Î/Desktop/IFX_S2GL-HW-SW_V1.1.3/Firmware_Software/DAVE project/S2GL_Doppler/Libraries/XMCLib/inc\xmc_ccu8.h ****  * @return <BR>
1182:C:/Users/±è°æ¹Î/Desktop/IFX_S2GL-HW-SW_V1.1.3/Firmware_Software/DAVE project/S2GL_Doppler/Libraries/XMCLib/inc\xmc_ccu8.h ****  *    None<BR>
1183:C:/Users/±è°æ¹Î/Desktop/IFX_S2GL-HW-SW_V1.1.3/Firmware_Software/DAVE project/S2GL_Doppler/Libraries/XMCLib/inc\xmc_ccu8.h ****  *
1184:C:/Users/±è°æ¹Î/Desktop/IFX_S2GL-HW-SW_V1.1.3/Firmware_Software/DAVE project/S2GL_Doppler/Libraries/XMCLib/inc\xmc_ccu8.h ****  * \par<b>Description:</b><br>
1185:C:/Users/±è°æ¹Î/Desktop/IFX_S2GL-HW-SW_V1.1.3/Firmware_Software/DAVE project/S2GL_Doppler/Libraries/XMCLib/inc\xmc_ccu8.h ****  * Initialization of a CC8 slice to compare mode, by configuring CC8yTC, CC8yCMC, CC8yPSC, CC8yDITH
1186:C:/Users/±è°æ¹Î/Desktop/IFX_S2GL-HW-SW_V1.1.3/Firmware_Software/DAVE project/S2GL_Doppler/Libraries/XMCLib/inc\xmc_ccu8.h ****  * CC8yFPCS, CC8yCHC registers.\n\n
1187:C:/Users/±è°æ¹Î/Desktop/IFX_S2GL-HW-SW_V1.1.3/Firmware_Software/DAVE project/S2GL_Doppler/Libraries/XMCLib/inc\xmc_ccu8.h ****  * CC8 slice is configured with Timer configurations in this routine. Timer is stopped before initi
