   1              	 .cpu cortex-m0
   2              	 .fpu softvfp
   3              	 .eabi_attribute 20,1
   4              	 .eabi_attribute 21,1
   5              	 .eabi_attribute 23,3
   6              	 .eabi_attribute 24,1
   7              	 .eabi_attribute 25,1
   8              	 .eabi_attribute 26,1
   9              	 .eabi_attribute 30,2
  10              	 .eabi_attribute 34,0
  11              	 .eabi_attribute 18,4
  12              	 .code 16
  13              	 .file "xmc_usic.c"
  14              	 .text
  15              	.Ltext0:
  16              	 .cfi_sections .debug_frame
  17              	 .section .text.XMC_USIC_CH_Enable,"ax",%progbits
  18              	 .align 2
  19              	 .global XMC_USIC_CH_Enable
  20              	 .code 16
  21              	 .thumb_func
  23              	XMC_USIC_CH_Enable:
  24              	.LFB108:
  25              	 .file 1 "../Libraries/XMCLib/src/xmc_usic.c"
   1:../Libraries/XMCLib/src/xmc_usic.c **** /**
   2:../Libraries/XMCLib/src/xmc_usic.c ****  * @file xmc_usic.c
   3:../Libraries/XMCLib/src/xmc_usic.c ****  * @date 2015-09-01
   4:../Libraries/XMCLib/src/xmc_usic.c ****  *
   5:../Libraries/XMCLib/src/xmc_usic.c ****  * @cond
   6:../Libraries/XMCLib/src/xmc_usic.c ****   *************************************************************************************************
   7:../Libraries/XMCLib/src/xmc_usic.c ****  * XMClib v2.1.6 - XMC Peripheral Driver Library 
   8:../Libraries/XMCLib/src/xmc_usic.c ****  *
   9:../Libraries/XMCLib/src/xmc_usic.c ****  * Copyright (C) 2015-2019 Infineon Technologies AG
  10:../Libraries/XMCLib/src/xmc_usic.c ****  * All rights reserved.                        
  11:../Libraries/XMCLib/src/xmc_usic.c ****  *                                             
  12:../Libraries/XMCLib/src/xmc_usic.c ****  * Redistribution and use in source and binary forms, with or without modification,are permitted pr
  13:../Libraries/XMCLib/src/xmc_usic.c ****  * following conditions are met:   
  14:../Libraries/XMCLib/src/xmc_usic.c ****  *                                                                              
  15:../Libraries/XMCLib/src/xmc_usic.c ****  * Redistributions of source code must retain the above copyright notice, this list of conditions a
  16:../Libraries/XMCLib/src/xmc_usic.c ****  * disclaimer.                        
  17:../Libraries/XMCLib/src/xmc_usic.c ****  * 
  18:../Libraries/XMCLib/src/xmc_usic.c ****  * Redistributions in binary form must reproduce the above copyright notice, this list of condition
  19:../Libraries/XMCLib/src/xmc_usic.c ****  * disclaimer in the documentation and/or other materials provided with the distribution.          
  20:../Libraries/XMCLib/src/xmc_usic.c ****  * 
  21:../Libraries/XMCLib/src/xmc_usic.c ****  * Neither the name of the copyright holders nor the names of its contributors may be used to endor
  22:../Libraries/XMCLib/src/xmc_usic.c ****  * products derived from this software without specific prior written permission.                  
  23:../Libraries/XMCLib/src/xmc_usic.c ****  *                                                                              
  24:../Libraries/XMCLib/src/xmc_usic.c ****  * THIS SOFTWARE IS PROVIDED BY THE COPYRIGHT HOLDERS AND CONTRIBUTORS "AS IS" AND ANY EXPRESS OR I
  25:../Libraries/XMCLib/src/xmc_usic.c ****  * INCLUDING, BUT NOT LIMITED TO, THE IMPLIED WARRANTIES OF MERCHANTABILITY AND FITNESS FOR A PARTI
  26:../Libraries/XMCLib/src/xmc_usic.c ****  * DISCLAIMED. IN NO EVENT SHALL THE COPYRIGHT HOLDER OR CONTRIBUTORS BE LIABLE  FOR ANY DIRECT, IN
  27:../Libraries/XMCLib/src/xmc_usic.c ****  * SPECIAL, EXEMPLARY, OR CONSEQUENTIAL DAMAGES (INCLUDING, BUT NOT LIMITED TO, PROCUREMENT OF SUBS
  28:../Libraries/XMCLib/src/xmc_usic.c ****  * SERVICES; LOSS OF USE, DATA, OR PROFITS; OR BUSINESS INTERRUPTION) HOWEVER CAUSED AND ON ANY THE
  29:../Libraries/XMCLib/src/xmc_usic.c ****  * WHETHER IN CONTRACT, STRICT LIABILITY,OR TORT (INCLUDING NEGLIGENCE OR OTHERWISE) ARISING IN ANY
  30:../Libraries/XMCLib/src/xmc_usic.c ****  * OF THIS SOFTWARE, EVEN IF ADVISED OF THE POSSIBILITY OF SUCH DAMAGE.                            
  31:../Libraries/XMCLib/src/xmc_usic.c ****  *                                                                              
  32:../Libraries/XMCLib/src/xmc_usic.c ****  * To improve the quality of the software, users are encouraged to share modifications, enhancement
  33:../Libraries/XMCLib/src/xmc_usic.c ****  * Infineon Technologies AG dave@infineon.com).                                                    
  34:../Libraries/XMCLib/src/xmc_usic.c ****  **************************************************************************************************
  35:../Libraries/XMCLib/src/xmc_usic.c ****  *
  36:../Libraries/XMCLib/src/xmc_usic.c ****  * Change History
  37:../Libraries/XMCLib/src/xmc_usic.c ****  * --------------
  38:../Libraries/XMCLib/src/xmc_usic.c ****  *
  39:../Libraries/XMCLib/src/xmc_usic.c ****  * 2015-02-20:
  40:../Libraries/XMCLib/src/xmc_usic.c ****  *     - Initial draft <br>
  41:../Libraries/XMCLib/src/xmc_usic.c ****  *     - Documentation improved <br>
  42:../Libraries/XMCLib/src/xmc_usic.c ****  *
  43:../Libraries/XMCLib/src/xmc_usic.c ****  * 2015-05-08:
  44:../Libraries/XMCLib/src/xmc_usic.c ****  *     - Clearing bit fields PDIV, PCTQ, PPPEN in XMC_USIC_CH_SetBaudrate() API <br>
  45:../Libraries/XMCLib/src/xmc_usic.c ****  *      
  46:../Libraries/XMCLib/src/xmc_usic.c ****  * 2015-06-20:
  47:../Libraries/XMCLib/src/xmc_usic.c ****  *     - Removed version macros and declaration of GetDriverVersion API <br>
  48:../Libraries/XMCLib/src/xmc_usic.c ****  *
  49:../Libraries/XMCLib/src/xmc_usic.c ****  * 2015-08-27:
  50:../Libraries/XMCLib/src/xmc_usic.c ****  *     - Added APIs for external input for BRG configuration:XMC_USIC_CH_ConfigExternalInputSignalT
  51:../Libraries/XMCLib/src/xmc_usic.c ****  *
  52:../Libraries/XMCLib/src/xmc_usic.c ****  * 2015-08-28:
  53:../Libraries/XMCLib/src/xmc_usic.c ****  *     - Added asserts to XMC_USIC_CH_ConfigExternalInputSignalToBRG() <br>
  54:../Libraries/XMCLib/src/xmc_usic.c ****  *
  55:../Libraries/XMCLib/src/xmc_usic.c ****  * 2015-09-01:
  56:../Libraries/XMCLib/src/xmc_usic.c ****  *     - Fixed warning in the asserts <br>
  57:../Libraries/XMCLib/src/xmc_usic.c ****  *
  58:../Libraries/XMCLib/src/xmc_usic.c ****  * @endcond
  59:../Libraries/XMCLib/src/xmc_usic.c ****  *
  60:../Libraries/XMCLib/src/xmc_usic.c ****  */
  61:../Libraries/XMCLib/src/xmc_usic.c **** 
  62:../Libraries/XMCLib/src/xmc_usic.c **** /*******************************************************************************
  63:../Libraries/XMCLib/src/xmc_usic.c ****  * HEADER FILES
  64:../Libraries/XMCLib/src/xmc_usic.c ****  *******************************************************************************/
  65:../Libraries/XMCLib/src/xmc_usic.c **** 
  66:../Libraries/XMCLib/src/xmc_usic.c **** #include "xmc_usic.h"
  67:../Libraries/XMCLib/src/xmc_usic.c **** #include "xmc_scu.h"
  68:../Libraries/XMCLib/src/xmc_usic.c **** 
  69:../Libraries/XMCLib/src/xmc_usic.c **** /*******************************************************************************
  70:../Libraries/XMCLib/src/xmc_usic.c ****  * MACROS
  71:../Libraries/XMCLib/src/xmc_usic.c ****  *******************************************************************************/
  72:../Libraries/XMCLib/src/xmc_usic.c **** 
  73:../Libraries/XMCLib/src/xmc_usic.c **** #define USIC_CH_INPR_Msk       (0x7UL)
  74:../Libraries/XMCLib/src/xmc_usic.c **** 
  75:../Libraries/XMCLib/src/xmc_usic.c **** /*******************************************************************************
  76:../Libraries/XMCLib/src/xmc_usic.c ****  * API IMPLEMENTATION
  77:../Libraries/XMCLib/src/xmc_usic.c ****  *******************************************************************************/
  78:../Libraries/XMCLib/src/xmc_usic.c **** 
  79:../Libraries/XMCLib/src/xmc_usic.c **** void XMC_USIC_CH_Enable(XMC_USIC_CH_t *const channel)
  80:../Libraries/XMCLib/src/xmc_usic.c **** {
  26              	 .loc 1 80 0
  27              	 .cfi_startproc
  28              	.LVL0:
  81:../Libraries/XMCLib/src/xmc_usic.c ****   XMC_ASSERT("XMC_USIC_CH_Enable: channel not valid", XMC_USIC_IsChannelValid(channel));
  82:../Libraries/XMCLib/src/xmc_usic.c **** 
  83:../Libraries/XMCLib/src/xmc_usic.c ****   if ((channel == XMC_USIC0_CH0) || (channel == XMC_USIC0_CH1))
  29              	 .loc 1 83 0
  30 0000 9023     	 mov r3,#144
  80:../Libraries/XMCLib/src/xmc_usic.c ****   XMC_ASSERT("XMC_USIC_CH_Enable: channel not valid", XMC_USIC_IsChannelValid(channel));
  31              	 .loc 1 80 0
  32 0002 10B5     	 push {r4,lr}
  33              	.LCFI0:
  34              	 .cfi_def_cfa_offset 8
  35              	 .cfi_offset 4,-8
  36              	 .cfi_offset 14,-4
  37              	 .loc 1 83 0
  38 0004 DB05     	 lsl r3,r3,#23
  80:../Libraries/XMCLib/src/xmc_usic.c ****   XMC_ASSERT("XMC_USIC_CH_Enable: channel not valid", XMC_USIC_IsChannelValid(channel));
  39              	 .loc 1 80 0
  40 0006 041E     	 sub r4,r0,#0
  41              	 .loc 1 83 0
  42 0008 9C42     	 cmp r4,r3
  43 000a 0DD0     	 beq .L2
  44              	 .loc 1 83 0 is_stmt 0 discriminator 1
  45 000c 084B     	 ldr r3,.L8
  46 000e 9842     	 cmp r0,r3
  47 0010 0AD0     	 beq .L2
  48              	.LVL1:
  49              	.L3:
  84:../Libraries/XMCLib/src/xmc_usic.c ****   {
  85:../Libraries/XMCLib/src/xmc_usic.c ****     XMC_USIC_Enable(XMC_USIC0);
  86:../Libraries/XMCLib/src/xmc_usic.c ****   }
  87:../Libraries/XMCLib/src/xmc_usic.c **** #if defined(USIC1)
  88:../Libraries/XMCLib/src/xmc_usic.c ****   else if((channel == XMC_USIC1_CH0) || (channel == XMC_USIC1_CH1))
  89:../Libraries/XMCLib/src/xmc_usic.c ****   {
  90:../Libraries/XMCLib/src/xmc_usic.c ****     XMC_USIC_Enable(XMC_USIC1);
  91:../Libraries/XMCLib/src/xmc_usic.c ****   }
  92:../Libraries/XMCLib/src/xmc_usic.c **** #endif
  93:../Libraries/XMCLib/src/xmc_usic.c **** #if defined(USIC2)
  94:../Libraries/XMCLib/src/xmc_usic.c ****   else if((channel == XMC_USIC2_CH0) || (channel == XMC_USIC2_CH1))
  95:../Libraries/XMCLib/src/xmc_usic.c ****   {
  96:../Libraries/XMCLib/src/xmc_usic.c ****     XMC_USIC_Enable(XMC_USIC2);
  97:../Libraries/XMCLib/src/xmc_usic.c ****   }
  98:../Libraries/XMCLib/src/xmc_usic.c **** #endif
  99:../Libraries/XMCLib/src/xmc_usic.c ****   else
 100:../Libraries/XMCLib/src/xmc_usic.c ****   {
 101:../Libraries/XMCLib/src/xmc_usic.c ****     XMC_ASSERT("USIC module not available", 0U/*Always*/);
 102:../Libraries/XMCLib/src/xmc_usic.c ****   }
 103:../Libraries/XMCLib/src/xmc_usic.c **** 
 104:../Libraries/XMCLib/src/xmc_usic.c ****   /* USIC channel switched on*/
 105:../Libraries/XMCLib/src/xmc_usic.c ****   channel->KSCFG = (USIC_CH_KSCFG_MODEN_Msk | USIC_CH_KSCFG_BPMODEN_Msk);
  50              	 .loc 1 105 0 is_stmt 1
  51 0012 0323     	 mov r3,#3
 106:../Libraries/XMCLib/src/xmc_usic.c ****   while ((channel->KSCFG & USIC_CH_KSCFG_MODEN_Msk) == 0U)
  52              	 .loc 1 106 0
  53 0014 0122     	 mov r2,#1
 105:../Libraries/XMCLib/src/xmc_usic.c ****   while ((channel->KSCFG & USIC_CH_KSCFG_MODEN_Msk) == 0U)
  54              	 .loc 1 105 0
  55 0016 E360     	 str r3,[r4,#12]
  56              	.L4:
  57              	 .loc 1 106 0 discriminator 1
  58 0018 E368     	 ldr r3,[r4,#12]
  59 001a 1A42     	 tst r2,r3
  60 001c FCD0     	 beq .L4
 107:../Libraries/XMCLib/src/xmc_usic.c ****   {
 108:../Libraries/XMCLib/src/xmc_usic.c ****     /* Wait till the channel is enabled */
 109:../Libraries/XMCLib/src/xmc_usic.c ****   }
 110:../Libraries/XMCLib/src/xmc_usic.c **** 
 111:../Libraries/XMCLib/src/xmc_usic.c ****   /* Set USIC channel in IDLE mode */
 112:../Libraries/XMCLib/src/xmc_usic.c ****   channel->CCR &= (uint32_t)~USIC_CH_CCR_MODE_Msk;
  61              	 .loc 1 112 0
  62 001e 0F22     	 mov r2,#15
  63 0020 236C     	 ldr r3,[r4,#64]
 113:../Libraries/XMCLib/src/xmc_usic.c **** }
  64              	 .loc 1 113 0
  65              	 
 112:../Libraries/XMCLib/src/xmc_usic.c **** }
  66              	 .loc 1 112 0
  67 0022 9343     	 bic r3,r2
  68 0024 2364     	 str r3,[r4,#64]
  69              	.LVL2:
  70              	 .loc 1 113 0
  71 0026 10BD     	 pop {r4,pc}
  72              	.LVL3:
  73              	.L2:
  74              	.LBB8:
  75              	.LBB9:
 114:../Libraries/XMCLib/src/xmc_usic.c **** 
 115:../Libraries/XMCLib/src/xmc_usic.c **** void XMC_USIC_CH_Disable(XMC_USIC_CH_t *const channel)
 116:../Libraries/XMCLib/src/xmc_usic.c **** {
 117:../Libraries/XMCLib/src/xmc_usic.c ****   channel->KSCFG = (uint32_t)((channel->KSCFG & (~USIC_CH_KSCFG_MODEN_Msk)) | USIC_CH_KSCFG_BPMODEN
 118:../Libraries/XMCLib/src/xmc_usic.c **** }
 119:../Libraries/XMCLib/src/xmc_usic.c **** 
 120:../Libraries/XMCLib/src/xmc_usic.c **** XMC_USIC_CH_STATUS_t XMC_USIC_CH_SetBaudrate(XMC_USIC_CH_t *const channel, uint32_t rate, uint32_t 
 121:../Libraries/XMCLib/src/xmc_usic.c **** {
 122:../Libraries/XMCLib/src/xmc_usic.c ****   XMC_USIC_CH_STATUS_t status;
 123:../Libraries/XMCLib/src/xmc_usic.c ****   
 124:../Libraries/XMCLib/src/xmc_usic.c ****   uint32_t peripheral_clock;
 125:../Libraries/XMCLib/src/xmc_usic.c ****   
 126:../Libraries/XMCLib/src/xmc_usic.c ****   uint32_t clock_divider;
 127:../Libraries/XMCLib/src/xmc_usic.c ****   uint32_t clock_divider_min;
 128:../Libraries/XMCLib/src/xmc_usic.c **** 
 129:../Libraries/XMCLib/src/xmc_usic.c ****   uint32_t pdiv;
 130:../Libraries/XMCLib/src/xmc_usic.c ****   uint32_t pdiv_int;
 131:../Libraries/XMCLib/src/xmc_usic.c ****   uint32_t pdiv_int_min;
 132:../Libraries/XMCLib/src/xmc_usic.c ****   
 133:../Libraries/XMCLib/src/xmc_usic.c ****   uint32_t pdiv_frac;
 134:../Libraries/XMCLib/src/xmc_usic.c ****   uint32_t pdiv_frac_min;
 135:../Libraries/XMCLib/src/xmc_usic.c **** 
 136:../Libraries/XMCLib/src/xmc_usic.c ****   /* The rate and peripheral clock are divided by 100 to be able to use only 32bit arithmetic */
 137:../Libraries/XMCLib/src/xmc_usic.c ****   if ((rate >= 100U) && (oversampling != 0U))
 138:../Libraries/XMCLib/src/xmc_usic.c ****   {
 139:../Libraries/XMCLib/src/xmc_usic.c ****     peripheral_clock = XMC_SCU_CLOCK_GetPeripheralClockFrequency() / 100U;
 140:../Libraries/XMCLib/src/xmc_usic.c ****     rate = rate / 100U;
 141:../Libraries/XMCLib/src/xmc_usic.c **** 
 142:../Libraries/XMCLib/src/xmc_usic.c ****     clock_divider_min = 1U;
 143:../Libraries/XMCLib/src/xmc_usic.c ****     pdiv_int_min = 1U;
 144:../Libraries/XMCLib/src/xmc_usic.c ****     pdiv_frac_min = 0x3ffU;
 145:../Libraries/XMCLib/src/xmc_usic.c **** 
 146:../Libraries/XMCLib/src/xmc_usic.c ****     for(clock_divider = 1023U; clock_divider > 0U; --clock_divider)
 147:../Libraries/XMCLib/src/xmc_usic.c ****     {
 148:../Libraries/XMCLib/src/xmc_usic.c ****       pdiv = ((peripheral_clock * clock_divider) / (rate * oversampling));
 149:../Libraries/XMCLib/src/xmc_usic.c ****       pdiv_int = pdiv >> 10U;
 150:../Libraries/XMCLib/src/xmc_usic.c ****       pdiv_frac = pdiv & 0x3ffU;
 151:../Libraries/XMCLib/src/xmc_usic.c **** 
 152:../Libraries/XMCLib/src/xmc_usic.c ****       if ((pdiv_int < 1024U) && (pdiv_frac < pdiv_frac_min))
 153:../Libraries/XMCLib/src/xmc_usic.c ****       {
 154:../Libraries/XMCLib/src/xmc_usic.c ****         pdiv_frac_min = pdiv_frac;
 155:../Libraries/XMCLib/src/xmc_usic.c ****         pdiv_int_min = pdiv_int;
 156:../Libraries/XMCLib/src/xmc_usic.c ****         clock_divider_min = clock_divider;
 157:../Libraries/XMCLib/src/xmc_usic.c ****       }
 158:../Libraries/XMCLib/src/xmc_usic.c ****     }
 159:../Libraries/XMCLib/src/xmc_usic.c **** 
 160:../Libraries/XMCLib/src/xmc_usic.c ****     channel->FDR = XMC_USIC_CH_BRG_CLOCK_DIVIDER_MODE_FRACTIONAL |
 161:../Libraries/XMCLib/src/xmc_usic.c ****                    (clock_divider_min << USIC_CH_FDR_STEP_Pos);
 162:../Libraries/XMCLib/src/xmc_usic.c **** 
 163:../Libraries/XMCLib/src/xmc_usic.c ****     channel->BRG = (channel->BRG & ~(USIC_CH_BRG_DCTQ_Msk |
 164:../Libraries/XMCLib/src/xmc_usic.c ****                                      USIC_CH_BRG_PDIV_Msk |
 165:../Libraries/XMCLib/src/xmc_usic.c ****                                      USIC_CH_BRG_PCTQ_Msk |
 166:../Libraries/XMCLib/src/xmc_usic.c ****                                      USIC_CH_BRG_PPPEN_Msk)) |
 167:../Libraries/XMCLib/src/xmc_usic.c ****                    ((oversampling - 1U) << USIC_CH_BRG_DCTQ_Pos) |
 168:../Libraries/XMCLib/src/xmc_usic.c ****                    ((pdiv_int_min - 1U) << USIC_CH_BRG_PDIV_Pos);
 169:../Libraries/XMCLib/src/xmc_usic.c ****                     
 170:../Libraries/XMCLib/src/xmc_usic.c ****     status = XMC_USIC_CH_STATUS_OK;
 171:../Libraries/XMCLib/src/xmc_usic.c ****   }
 172:../Libraries/XMCLib/src/xmc_usic.c ****   else 
 173:../Libraries/XMCLib/src/xmc_usic.c ****   {
 174:../Libraries/XMCLib/src/xmc_usic.c ****     status = XMC_USIC_CH_STATUS_ERROR;
 175:../Libraries/XMCLib/src/xmc_usic.c ****   }
 176:../Libraries/XMCLib/src/xmc_usic.c ****   
 177:../Libraries/XMCLib/src/xmc_usic.c ****   return status;
 178:../Libraries/XMCLib/src/xmc_usic.c **** }
 179:../Libraries/XMCLib/src/xmc_usic.c **** 
 180:../Libraries/XMCLib/src/xmc_usic.c **** void XMC_USIC_CH_ConfigExternalInputSignalToBRG(XMC_USIC_CH_t *const channel,
 181:../Libraries/XMCLib/src/xmc_usic.c **** 		                                        const uint16_t pdiv,
 182:../Libraries/XMCLib/src/xmc_usic.c **** 												const uint32_t oversampling,
 183:../Libraries/XMCLib/src/xmc_usic.c **** 												const XMC_USIC_CH_INPUT_COMBINATION_MODE_t combination_mode)
 184:../Libraries/XMCLib/src/xmc_usic.c **** {
 185:../Libraries/XMCLib/src/xmc_usic.c ****   XMC_ASSERT("XMC_USIC_CH_ConfigExternalInputSignalToBRG: Divider out of range", ((1U < pdiv) || (p
 186:../Libraries/XMCLib/src/xmc_usic.c ****   XMC_ASSERT("XMC_USIC_CH_ConfigExternalInputSignalToBRG: Oversampling out of range", ((1U < oversa
 187:../Libraries/XMCLib/src/xmc_usic.c **** 
 188:../Libraries/XMCLib/src/xmc_usic.c ****   /* Setting the external input frequency source through DX1 */
 189:../Libraries/XMCLib/src/xmc_usic.c ****   XMC_USIC_CH_SetBRGInputClockSource(channel, XMC_USIC_CH_BRG_CLOCK_SOURCE_DX1T);
 190:../Libraries/XMCLib/src/xmc_usic.c **** 
 191:../Libraries/XMCLib/src/xmc_usic.c ****   /* Setting the trigger combination mode */
 192:../Libraries/XMCLib/src/xmc_usic.c ****   XMC_USIC_CH_SetInputTriggerCombinationMode(channel,XMC_USIC_CH_INPUT_DX1,combination_mode);
 193:../Libraries/XMCLib/src/xmc_usic.c **** 
 194:../Libraries/XMCLib/src/xmc_usic.c ****   /* Configuring the dividers and oversampling */
 195:../Libraries/XMCLib/src/xmc_usic.c ****   channel->BRG = (channel->BRG & ~(USIC_CH_BRG_DCTQ_Msk |
 196:../Libraries/XMCLib/src/xmc_usic.c ****                                    USIC_CH_BRG_PDIV_Msk |
 197:../Libraries/XMCLib/src/xmc_usic.c ****                                    USIC_CH_BRG_PCTQ_Msk |
 198:../Libraries/XMCLib/src/xmc_usic.c ****                                    USIC_CH_BRG_PPPEN_Msk)) |
 199:../Libraries/XMCLib/src/xmc_usic.c ****                   (((oversampling) - 1U) << USIC_CH_BRG_DCTQ_Pos) |
 200:../Libraries/XMCLib/src/xmc_usic.c ****                   (((pdiv) - 1U) << USIC_CH_BRG_PDIV_Pos);
 201:../Libraries/XMCLib/src/xmc_usic.c **** }
 202:../Libraries/XMCLib/src/xmc_usic.c **** 
 203:../Libraries/XMCLib/src/xmc_usic.c **** void XMC_USIC_CH_TXFIFO_Configure(XMC_USIC_CH_t *const channel,
 204:../Libraries/XMCLib/src/xmc_usic.c ****                                   const uint32_t data_pointer,
 205:../Libraries/XMCLib/src/xmc_usic.c ****                                   const XMC_USIC_CH_FIFO_SIZE_t size,
 206:../Libraries/XMCLib/src/xmc_usic.c ****                                   const uint32_t limit)
 207:../Libraries/XMCLib/src/xmc_usic.c **** {
 208:../Libraries/XMCLib/src/xmc_usic.c ****   /* Disable FIFO */
 209:../Libraries/XMCLib/src/xmc_usic.c ****   channel->TBCTR &= (uint32_t)~USIC_CH_TBCTR_SIZE_Msk;
 210:../Libraries/XMCLib/src/xmc_usic.c **** 
 211:../Libraries/XMCLib/src/xmc_usic.c ****   /* LOF = 0, A standard transmit buffer event occurs when the filling level equals the limit value
 212:../Libraries/XMCLib/src/xmc_usic.c ****    * lower due to transmission of a data word
 213:../Libraries/XMCLib/src/xmc_usic.c ****    * STBTEN = 0, the trigger of the standard transmit buffer event is based on the transition of th
 214:../Libraries/XMCLib/src/xmc_usic.c ****    *  from equal to below the limit, not the fact being below
 215:../Libraries/XMCLib/src/xmc_usic.c ****    */
 216:../Libraries/XMCLib/src/xmc_usic.c ****   channel->TBCTR = (uint32_t)(channel->TBCTR & (uint32_t)~(USIC_CH_TBCTR_LIMIT_Msk |
 217:../Libraries/XMCLib/src/xmc_usic.c ****                                                            USIC_CH_TBCTR_DPTR_Msk |
 218:../Libraries/XMCLib/src/xmc_usic.c ****                                                            USIC_CH_TBCTR_SIZE_Msk)) |
 219:../Libraries/XMCLib/src/xmc_usic.c ****                    (uint32_t)((limit << USIC_CH_TBCTR_LIMIT_Pos) |
 220:../Libraries/XMCLib/src/xmc_usic.c ****                    (data_pointer << USIC_CH_TBCTR_DPTR_Pos) |
 221:../Libraries/XMCLib/src/xmc_usic.c ****                    ((uint32_t)size << USIC_CH_TBCTR_SIZE_Pos));
 222:../Libraries/XMCLib/src/xmc_usic.c **** }
 223:../Libraries/XMCLib/src/xmc_usic.c **** 
 224:../Libraries/XMCLib/src/xmc_usic.c **** 
 225:../Libraries/XMCLib/src/xmc_usic.c **** void XMC_USIC_CH_RXFIFO_Configure(XMC_USIC_CH_t *const channel,
 226:../Libraries/XMCLib/src/xmc_usic.c ****                                   const uint32_t data_pointer,
 227:../Libraries/XMCLib/src/xmc_usic.c ****                                   const XMC_USIC_CH_FIFO_SIZE_t size,
 228:../Libraries/XMCLib/src/xmc_usic.c ****                                   const uint32_t limit)
 229:../Libraries/XMCLib/src/xmc_usic.c **** {
 230:../Libraries/XMCLib/src/xmc_usic.c ****   /* Disable FIFO */
 231:../Libraries/XMCLib/src/xmc_usic.c ****   channel->RBCTR &= (uint32_t)~USIC_CH_RBCTR_SIZE_Msk;
 232:../Libraries/XMCLib/src/xmc_usic.c **** 
 233:../Libraries/XMCLib/src/xmc_usic.c ****   /* LOF = 1, A standard receive buffer event occurs when the filling level equals the limit value 
 234:../Libraries/XMCLib/src/xmc_usic.c ****    *  due to the reception of a new data word
 235:../Libraries/XMCLib/src/xmc_usic.c ****    */
 236:../Libraries/XMCLib/src/xmc_usic.c ****   channel->RBCTR = (uint32_t)((channel->RBCTR & (uint32_t)~(USIC_CH_RBCTR_LIMIT_Msk |
 237:../Libraries/XMCLib/src/xmc_usic.c ****                                                             USIC_CH_RBCTR_DPTR_Msk |
 238:../Libraries/XMCLib/src/xmc_usic.c ****                                                             USIC_CH_RBCTR_LOF_Msk)) |
 239:../Libraries/XMCLib/src/xmc_usic.c ****                    ((limit << USIC_CH_RBCTR_LIMIT_Pos) |
 240:../Libraries/XMCLib/src/xmc_usic.c ****                    (data_pointer << USIC_CH_RBCTR_DPTR_Pos) |
 241:../Libraries/XMCLib/src/xmc_usic.c ****                    ((uint32_t)size << USIC_CH_RBCTR_SIZE_Pos) |
 242:../Libraries/XMCLib/src/xmc_usic.c ****                    (uint32_t)USIC_CH_RBCTR_LOF_Msk));
 243:../Libraries/XMCLib/src/xmc_usic.c **** }
 244:../Libraries/XMCLib/src/xmc_usic.c **** 
 245:../Libraries/XMCLib/src/xmc_usic.c **** void XMC_USIC_CH_TXFIFO_SetSizeTriggerLimit(XMC_USIC_CH_t *const channel,
 246:../Libraries/XMCLib/src/xmc_usic.c ****                                             const XMC_USIC_CH_FIFO_SIZE_t size,
 247:../Libraries/XMCLib/src/xmc_usic.c ****                                             const uint32_t limit)
 248:../Libraries/XMCLib/src/xmc_usic.c **** {
 249:../Libraries/XMCLib/src/xmc_usic.c ****   /* Disable FIFO */
 250:../Libraries/XMCLib/src/xmc_usic.c ****   channel->TBCTR &= (uint32_t)~USIC_CH_TBCTR_SIZE_Msk;
 251:../Libraries/XMCLib/src/xmc_usic.c **** 
 252:../Libraries/XMCLib/src/xmc_usic.c ****   /* STBTEN = 0, the trigger of the standard transmit buffer event is based on the transition of th
 253:../Libraries/XMCLib/src/xmc_usic.c ****    *  from equal to below the limit, not the fact being below
 254:../Libraries/XMCLib/src/xmc_usic.c ****    */
 255:../Libraries/XMCLib/src/xmc_usic.c ****   channel->TBCTR = (uint32_t)((uint32_t)(channel->TBCTR & (uint32_t)~USIC_CH_TBCTR_LIMIT_Msk) |
 256:../Libraries/XMCLib/src/xmc_usic.c ****                    (limit << USIC_CH_TBCTR_LIMIT_Pos) |
 257:../Libraries/XMCLib/src/xmc_usic.c ****                    ((uint32_t)size << USIC_CH_TBCTR_SIZE_Pos));
 258:../Libraries/XMCLib/src/xmc_usic.c **** }
 259:../Libraries/XMCLib/src/xmc_usic.c **** 
 260:../Libraries/XMCLib/src/xmc_usic.c **** void XMC_USIC_CH_RXFIFO_SetSizeTriggerLimit(XMC_USIC_CH_t *const channel,
 261:../Libraries/XMCLib/src/xmc_usic.c ****                                             const XMC_USIC_CH_FIFO_SIZE_t size,
 262:../Libraries/XMCLib/src/xmc_usic.c ****                                             const uint32_t limit)
 263:../Libraries/XMCLib/src/xmc_usic.c **** {
 264:../Libraries/XMCLib/src/xmc_usic.c ****   /* Disable FIFO */
 265:../Libraries/XMCLib/src/xmc_usic.c ****   channel->RBCTR &= (uint32_t)~USIC_CH_RBCTR_SIZE_Msk;
 266:../Libraries/XMCLib/src/xmc_usic.c **** 
 267:../Libraries/XMCLib/src/xmc_usic.c ****   channel->RBCTR = (uint32_t)((uint32_t)(channel->RBCTR & (uint32_t)~USIC_CH_RBCTR_LIMIT_Msk) |
 268:../Libraries/XMCLib/src/xmc_usic.c ****                    (limit << USIC_CH_RBCTR_LIMIT_Pos) |
 269:../Libraries/XMCLib/src/xmc_usic.c ****                    ((uint32_t)size << USIC_CH_RBCTR_SIZE_Pos));
 270:../Libraries/XMCLib/src/xmc_usic.c **** }
 271:../Libraries/XMCLib/src/xmc_usic.c **** 
 272:../Libraries/XMCLib/src/xmc_usic.c **** void XMC_USIC_CH_SetInterruptNodePointer(XMC_USIC_CH_t *const channel,
 273:../Libraries/XMCLib/src/xmc_usic.c ****                                          const XMC_USIC_CH_INTERRUPT_NODE_POINTER_t interrupt_node,
 274:../Libraries/XMCLib/src/xmc_usic.c ****                                          const uint32_t service_request)
 275:../Libraries/XMCLib/src/xmc_usic.c **** {
 276:../Libraries/XMCLib/src/xmc_usic.c ****   channel->INPR = (uint32_t)((channel->INPR & (~(uint32_t)(USIC_CH_INPR_Msk << (uint32_t)interrupt_
 277:../Libraries/XMCLib/src/xmc_usic.c ****                   (service_request << (uint32_t)interrupt_node));
 278:../Libraries/XMCLib/src/xmc_usic.c **** }
 279:../Libraries/XMCLib/src/xmc_usic.c **** 
 280:../Libraries/XMCLib/src/xmc_usic.c **** void XMC_USIC_CH_TXFIFO_SetInterruptNodePointer(XMC_USIC_CH_t *const channel,
 281:../Libraries/XMCLib/src/xmc_usic.c ****                                                 const XMC_USIC_CH_TXFIFO_INTERRUPT_NODE_POINTER_t i
 282:../Libraries/XMCLib/src/xmc_usic.c ****                                                 const uint32_t service_request)
 283:../Libraries/XMCLib/src/xmc_usic.c **** {
 284:../Libraries/XMCLib/src/xmc_usic.c ****   channel->TBCTR = (uint32_t)((channel->TBCTR & (~(uint32_t)(USIC_CH_INPR_Msk << (uint32_t)interrup
 285:../Libraries/XMCLib/src/xmc_usic.c ****                    (service_request << (uint32_t)interrupt_node));
 286:../Libraries/XMCLib/src/xmc_usic.c **** }
 287:../Libraries/XMCLib/src/xmc_usic.c **** 
 288:../Libraries/XMCLib/src/xmc_usic.c **** void XMC_USIC_CH_RXFIFO_SetInterruptNodePointer(XMC_USIC_CH_t *const channel,
 289:../Libraries/XMCLib/src/xmc_usic.c ****                                                 const XMC_USIC_CH_RXFIFO_INTERRUPT_NODE_POINTER_t i
 290:../Libraries/XMCLib/src/xmc_usic.c ****                                                 const uint32_t service_request)
 291:../Libraries/XMCLib/src/xmc_usic.c **** {
 292:../Libraries/XMCLib/src/xmc_usic.c ****   channel->RBCTR = (uint32_t)((channel->RBCTR & (~(uint32_t)(USIC_CH_INPR_Msk << (uint32_t)interrup
 293:../Libraries/XMCLib/src/xmc_usic.c ****                    (service_request << (uint32_t)interrupt_node));
 294:../Libraries/XMCLib/src/xmc_usic.c **** }
 295:../Libraries/XMCLib/src/xmc_usic.c **** 
 296:../Libraries/XMCLib/src/xmc_usic.c **** void XMC_USIC_Enable(XMC_USIC_t *const usic)
 297:../Libraries/XMCLib/src/xmc_usic.c **** {
 298:../Libraries/XMCLib/src/xmc_usic.c ****   if (usic == USIC0)
 299:../Libraries/XMCLib/src/xmc_usic.c ****   {
 300:../Libraries/XMCLib/src/xmc_usic.c **** #if defined(CLOCK_GATING_SUPPORTED)
 301:../Libraries/XMCLib/src/xmc_usic.c ****     XMC_SCU_CLOCK_UngatePeripheralClock(XMC_SCU_PERIPHERAL_CLOCK_USIC0);
  76              	 .loc 1 301 0
  77 0028 0820     	 mov r0,#8
  78              	.LVL4:
  79 002a FFF7FEFF 	 bl XMC_SCU_CLOCK_UngatePeripheralClock
  80              	.LVL5:
  81 002e F0E7     	 b .L3
  82              	.L9:
  83              	 .align 2
  84              	.L8:
  85 0030 00020048 	 .word 1207960064
  86              	.LBE9:
  87              	.LBE8:
  88              	 .cfi_endproc
  89              	.LFE108:
  91              	 .section .text.XMC_USIC_CH_Disable,"ax",%progbits
  92              	 .align 2
  93              	 .global XMC_USIC_CH_Disable
  94              	 .code 16
  95              	 .thumb_func
  97              	XMC_USIC_CH_Disable:
  98              	.LFB109:
 116:../Libraries/XMCLib/src/xmc_usic.c ****   channel->KSCFG = (uint32_t)((channel->KSCFG & (~USIC_CH_KSCFG_MODEN_Msk)) | USIC_CH_KSCFG_BPMODEN
  99              	 .loc 1 116 0
 100              	 .cfi_startproc
 101              	.LVL6:
 117:../Libraries/XMCLib/src/xmc_usic.c **** }
 102              	 .loc 1 117 0
 103 0000 0322     	 mov r2,#3
 104 0002 C368     	 ldr r3,[r0,#12]
 118:../Libraries/XMCLib/src/xmc_usic.c **** 
 105              	 .loc 1 118 0
 106              	 
 117:../Libraries/XMCLib/src/xmc_usic.c **** }
 107              	 .loc 1 117 0
 108 0004 9343     	 bic r3,r2
 109 0006 013A     	 sub r2,r2,#1
 110 0008 1343     	 orr r3,r2
 111 000a C360     	 str r3,[r0,#12]
 118:../Libraries/XMCLib/src/xmc_usic.c **** 
 112              	 .loc 1 118 0
 113 000c 7047     	 bx lr
 114              	 .cfi_endproc
 115              	.LFE109:
 117              	 .global __aeabi_uidiv
 118 000e C046     	 .section .text.XMC_USIC_CH_SetBaudrate,"ax",%progbits
 119              	 .align 2
 120              	 .global XMC_USIC_CH_SetBaudrate
 121              	 .code 16
 122              	 .thumb_func
 124              	XMC_USIC_CH_SetBaudrate:
 125              	.LFB110:
 121:../Libraries/XMCLib/src/xmc_usic.c ****   XMC_USIC_CH_STATUS_t status;
 126              	 .loc 1 121 0
 127              	 .cfi_startproc
 128              	.LVL7:
 129 0000 F0B5     	 push {r4,r5,r6,r7,lr}
 130              	.LCFI1:
 131              	 .cfi_def_cfa_offset 20
 132              	 .cfi_offset 4,-20
 133              	 .cfi_offset 5,-16
 134              	 .cfi_offset 6,-12
 135              	 .cfi_offset 7,-8
 136              	 .cfi_offset 14,-4
 137 0002 5F46     	 mov r7,fp
 138 0004 5646     	 mov r6,r10
 139 0006 4D46     	 mov r5,r9
 140 0008 4446     	 mov r4,r8
 141 000a F0B4     	 push {r4,r5,r6,r7}
 142              	.LCFI2:
 143              	 .cfi_def_cfa_offset 36
 144              	 .cfi_offset 8,-36
 145              	 .cfi_offset 9,-32
 146              	 .cfi_offset 10,-28
 147              	 .cfi_offset 11,-24
 174:../Libraries/XMCLib/src/xmc_usic.c ****   }
 148              	 .loc 1 174 0
 149 000c 0123     	 mov r3,#1
 121:../Libraries/XMCLib/src/xmc_usic.c ****   XMC_USIC_CH_STATUS_t status;
 150              	 .loc 1 121 0
 151 000e 83B0     	 sub sp,sp,#12
 152              	.LCFI3:
 153              	 .cfi_def_cfa_offset 48
 137:../Libraries/XMCLib/src/xmc_usic.c ****   {
 154              	 .loc 1 137 0
 155 0010 6329     	 cmp r1,#99
 156 0012 01D9     	 bls .L12
 137:../Libraries/XMCLib/src/xmc_usic.c ****   {
 157              	 .loc 1 137 0 is_stmt 0 discriminator 1
 158 0014 002A     	 cmp r2,#0
 159 0016 07D1     	 bne .L19
 160              	.LVL8:
 161              	.L12:
 178:../Libraries/XMCLib/src/xmc_usic.c **** 
 162              	 .loc 1 178 0 is_stmt 1
 163 0018 181C     	 mov r0,r3
 164 001a 03B0     	 add sp,sp,#12
 165              	 
 166 001c 3CBC     	 pop {r2,r3,r4,r5}
 167 001e 9046     	 mov r8,r2
 168 0020 9946     	 mov r9,r3
 169 0022 A246     	 mov r10,r4
 170 0024 AB46     	 mov fp,r5
 171 0026 F0BD     	 pop {r4,r5,r6,r7,pc}
 172              	.LVL9:
 173              	.L19:
 174 0028 171C     	 mov r7,r2
 175 002a 0C1C     	 mov r4,r1
 176 002c 0192     	 str r2,[sp,#4]
 177 002e 0090     	 str r0,[sp]
 139:../Libraries/XMCLib/src/xmc_usic.c ****     rate = rate / 100U;
 178              	 .loc 1 139 0
 179 0030 FFF7FEFF 	 bl XMC_SCU_CLOCK_GetPeripheralClockFrequency
 180              	.LVL10:
 181 0034 6421     	 mov r1,#100
 182 0036 FFF7FEFF 	 bl __aeabi_uidiv
 183              	.LVL11:
 140:../Libraries/XMCLib/src/xmc_usic.c **** 
 184              	 .loc 1 140 0
 185 003a 6421     	 mov r1,#100
 139:../Libraries/XMCLib/src/xmc_usic.c ****     rate = rate / 100U;
 186              	 .loc 1 139 0
 187 003c 061C     	 mov r6,r0
 188              	.LVL12:
 140:../Libraries/XMCLib/src/xmc_usic.c **** 
 189              	 .loc 1 140 0
 190 003e 201C     	 mov r0,r4
 191              	.LVL13:
 192 0040 FFF7FEFF 	 bl __aeabi_uidiv
 193              	.LVL14:
 144:../Libraries/XMCLib/src/xmc_usic.c **** 
 194              	 .loc 1 144 0
 195 0044 174B     	 ldr r3,.L20
 196 0046 4743     	 mul r7,r0
 197              	.LVL15:
 198 0048 9946     	 mov r9,r3
 143:../Libraries/XMCLib/src/xmc_usic.c ****     pdiv_frac_min = 0x3ffU;
 199              	 .loc 1 143 0
 200 004a 0123     	 mov r3,#1
 146:../Libraries/XMCLib/src/xmc_usic.c ****     {
 201              	 .loc 1 146 0
 202 004c 4C46     	 mov r4,r9
 203              	.LVL16:
 143:../Libraries/XMCLib/src/xmc_usic.c ****     pdiv_frac_min = 0x3ffU;
 204              	 .loc 1 143 0
 205 004e 9A46     	 mov r10,r3
 142:../Libraries/XMCLib/src/xmc_usic.c ****     pdiv_int_min = 1U;
 206              	 .loc 1 142 0
 207 0050 9B46     	 mov fp,r3
 152:../Libraries/XMCLib/src/xmc_usic.c ****       {
 208              	 .loc 1 152 0
 209 0052 C846     	 mov r8,r9
 210 0054 B502     	 lsl r5,r6,#10
 211 0056 AD1B     	 sub r5,r5,r6
 212              	.LVL17:
 213              	.L14:
 148:../Libraries/XMCLib/src/xmc_usic.c ****       pdiv_int = pdiv >> 10U;
 214              	 .loc 1 148 0
 215 0058 281C     	 mov r0,r5
 216 005a 391C     	 mov r1,r7
 217 005c FFF7FEFF 	 bl __aeabi_uidiv
 218              	.LVL18:
 149:../Libraries/XMCLib/src/xmc_usic.c ****       pdiv_frac = pdiv & 0x3ffU;
 219              	 .loc 1 149 0
 220 0060 830A     	 lsr r3,r0,#10
 221              	.LVL19:
 152:../Libraries/XMCLib/src/xmc_usic.c ****       {
 222              	 .loc 1 152 0
 223 0062 4345     	 cmp r3,r8
 224 0064 06D8     	 bhi .L13
 150:../Libraries/XMCLib/src/xmc_usic.c **** 
 225              	 .loc 1 150 0 discriminator 1
 226 0066 8005     	 lsl r0,r0,#22
 227              	.LVL20:
 228 0068 800D     	 lsr r0,r0,#22
 152:../Libraries/XMCLib/src/xmc_usic.c ****       {
 229              	 .loc 1 152 0 discriminator 1
 230 006a 4845     	 cmp r0,r9
 231 006c 02D2     	 bcs .L13
 152:../Libraries/XMCLib/src/xmc_usic.c ****       {
 232              	 .loc 1 152 0 is_stmt 0
 233 006e 8146     	 mov r9,r0
 234              	.LVL21:
 235 0070 9A46     	 mov r10,r3
 236              	.LVL22:
 237 0072 A346     	 mov fp,r4
 238              	.LVL23:
 239              	.L13:
 146:../Libraries/XMCLib/src/xmc_usic.c ****     {
 240              	 .loc 1 146 0 is_stmt 1 discriminator 2
 241 0074 013C     	 sub r4,r4,#1
 242              	.LVL24:
 243 0076 AD1B     	 sub r5,r5,r6
 244 0078 002C     	 cmp r4,#0
 245 007a EDD1     	 bne .L14
 160:../Libraries/XMCLib/src/xmc_usic.c ****                    (clock_divider_min << USIC_CH_FDR_STEP_Pos);
 246              	 .loc 1 160 0
 247 007c 8023     	 mov r3,#128
 248              	.LVL25:
 249 007e 5A46     	 mov r2,fp
 250 0080 0098     	 ldr r0,[sp]
 251 0082 1B02     	 lsl r3,r3,#8
 252 0084 1343     	 orr r3,r2
 253 0086 0361     	 str r3,[r0,#16]
 167:../Libraries/XMCLib/src/xmc_usic.c ****                    ((pdiv_int_min - 1U) << USIC_CH_BRG_PDIV_Pos);
 254              	 .loc 1 167 0
 255 0088 019A     	 ldr r2,[sp,#4]
 163:../Libraries/XMCLib/src/xmc_usic.c ****                                      USIC_CH_BRG_PDIV_Msk |
 256              	 .loc 1 163 0
 257 008a 4169     	 ldr r1,[r0,#20]
 258 008c 064B     	 ldr r3,.L20+4
 167:../Libraries/XMCLib/src/xmc_usic.c ****                    ((pdiv_int_min - 1U) << USIC_CH_BRG_PDIV_Pos);
 259              	 .loc 1 167 0
 260 008e 013A     	 sub r2,r2,#1
 261 0090 9202     	 lsl r2,r2,#10
 163:../Libraries/XMCLib/src/xmc_usic.c ****                                      USIC_CH_BRG_PDIV_Msk |
 262              	 .loc 1 163 0
 263 0092 0B40     	 and r3,r1
 166:../Libraries/XMCLib/src/xmc_usic.c ****                    ((oversampling - 1U) << USIC_CH_BRG_DCTQ_Pos) |
 264              	 .loc 1 166 0
 265 0094 1343     	 orr r3,r2
 168:../Libraries/XMCLib/src/xmc_usic.c ****                     
 266              	 .loc 1 168 0
 267 0096 5246     	 mov r2,r10
 268 0098 013A     	 sub r2,r2,#1
 269 009a 1204     	 lsl r2,r2,#16
 167:../Libraries/XMCLib/src/xmc_usic.c ****                    ((pdiv_int_min - 1U) << USIC_CH_BRG_PDIV_Pos);
 270              	 .loc 1 167 0
 271 009c 1343     	 orr r3,r2
 163:../Libraries/XMCLib/src/xmc_usic.c ****                                      USIC_CH_BRG_PDIV_Msk |
 272              	 .loc 1 163 0
 273 009e 4361     	 str r3,[r0,#20]
 274              	.LVL26:
 170:../Libraries/XMCLib/src/xmc_usic.c ****   }
 275              	 .loc 1 170 0
 276 00a0 0023     	 mov r3,#0
 277 00a2 B9E7     	 b .L12
 278              	.L21:
 279              	 .align 2
 280              	.L20:
 281 00a4 FF030000 	 .word 1023
 282 00a8 EF8000FC 	 .word -67075857
 283              	 .cfi_endproc
 284              	.LFE110:
 286              	 .section .text.XMC_USIC_CH_ConfigExternalInputSignalToBRG,"ax",%progbits
 287              	 .align 2
 288              	 .global XMC_USIC_CH_ConfigExternalInputSignalToBRG
 289              	 .code 16
 290              	 .thumb_func
 292              	XMC_USIC_CH_ConfigExternalInputSignalToBRG:
 293              	.LFB111:
 184:../Libraries/XMCLib/src/xmc_usic.c ****   XMC_ASSERT("XMC_USIC_CH_ConfigExternalInputSignalToBRG: Divider out of range", ((1U < pdiv) || (p
 294              	 .loc 1 184 0
 295              	 .cfi_startproc
 296              	.LVL27:
 297 0000 30B5     	 push {r4,r5,lr}
 298              	.LCFI4:
 299              	 .cfi_def_cfa_offset 12
 300              	 .cfi_offset 4,-12
 301              	 .cfi_offset 5,-8
 302              	 .cfi_offset 14,-4
 303              	.LBB10:
 304              	.LBB11:
 305              	 .file 2 "C:/Users/\261\350\260\346\271\316/Desktop/IFX_S2GL-HW-SW_V1.1.3/Firmware_Software/DAVE project/S2GL_Doppler/Libraries/XMCLib/inc/xmc_usic.h"
   1:C:/Users/±è°æ¹Î/Desktop/IFX_S2GL-HW-SW_V1.1.3/Firmware_Software/DAVE project/S2GL_Doppler/Libraries/XMCLib/inc\xmc_usic.h **** /**
   2:C:/Users/±è°æ¹Î/Desktop/IFX_S2GL-HW-SW_V1.1.3/Firmware_Software/DAVE project/S2GL_Doppler/Libraries/XMCLib/inc\xmc_usic.h ****  * @file xmc_usic.h
   3:C:/Users/±è°æ¹Î/Desktop/IFX_S2GL-HW-SW_V1.1.3/Firmware_Software/DAVE project/S2GL_Doppler/Libraries/XMCLib/inc\xmc_usic.h ****  * @date 2016-04-10
   4:C:/Users/±è°æ¹Î/Desktop/IFX_S2GL-HW-SW_V1.1.3/Firmware_Software/DAVE project/S2GL_Doppler/Libraries/XMCLib/inc\xmc_usic.h ****  *
   5:C:/Users/±è°æ¹Î/Desktop/IFX_S2GL-HW-SW_V1.1.3/Firmware_Software/DAVE project/S2GL_Doppler/Libraries/XMCLib/inc\xmc_usic.h ****  * @cond
   6:C:/Users/±è°æ¹Î/Desktop/IFX_S2GL-HW-SW_V1.1.3/Firmware_Software/DAVE project/S2GL_Doppler/Libraries/XMCLib/inc\xmc_usic.h ****   *************************************************************************************************
   7:C:/Users/±è°æ¹Î/Desktop/IFX_S2GL-HW-SW_V1.1.3/Firmware_Software/DAVE project/S2GL_Doppler/Libraries/XMCLib/inc\xmc_usic.h ****  * XMClib v2.1.6 - XMC Peripheral Driver Library 
   8:C:/Users/±è°æ¹Î/Desktop/IFX_S2GL-HW-SW_V1.1.3/Firmware_Software/DAVE project/S2GL_Doppler/Libraries/XMCLib/inc\xmc_usic.h ****  *
   9:C:/Users/±è°æ¹Î/Desktop/IFX_S2GL-HW-SW_V1.1.3/Firmware_Software/DAVE project/S2GL_Doppler/Libraries/XMCLib/inc\xmc_usic.h ****  * Copyright (C) 2015-2019 Infineon Technologies AG
  10:C:/Users/±è°æ¹Î/Desktop/IFX_S2GL-HW-SW_V1.1.3/Firmware_Software/DAVE project/S2GL_Doppler/Libraries/XMCLib/inc\xmc_usic.h ****  * All rights reserved.                        
  11:C:/Users/±è°æ¹Î/Desktop/IFX_S2GL-HW-SW_V1.1.3/Firmware_Software/DAVE project/S2GL_Doppler/Libraries/XMCLib/inc\xmc_usic.h ****  *                                             
  12:C:/Users/±è°æ¹Î/Desktop/IFX_S2GL-HW-SW_V1.1.3/Firmware_Software/DAVE project/S2GL_Doppler/Libraries/XMCLib/inc\xmc_usic.h ****  * Redistribution and use in source and binary forms, with or without modification,are permitted pr
  13:C:/Users/±è°æ¹Î/Desktop/IFX_S2GL-HW-SW_V1.1.3/Firmware_Software/DAVE project/S2GL_Doppler/Libraries/XMCLib/inc\xmc_usic.h ****  * following conditions are met:   
  14:C:/Users/±è°æ¹Î/Desktop/IFX_S2GL-HW-SW_V1.1.3/Firmware_Software/DAVE project/S2GL_Doppler/Libraries/XMCLib/inc\xmc_usic.h ****  *                                                                              
  15:C:/Users/±è°æ¹Î/Desktop/IFX_S2GL-HW-SW_V1.1.3/Firmware_Software/DAVE project/S2GL_Doppler/Libraries/XMCLib/inc\xmc_usic.h ****  * Redistributions of source code must retain the above copyright notice, this list of conditions a
  16:C:/Users/±è°æ¹Î/Desktop/IFX_S2GL-HW-SW_V1.1.3/Firmware_Software/DAVE project/S2GL_Doppler/Libraries/XMCLib/inc\xmc_usic.h ****  * disclaimer.                        
  17:C:/Users/±è°æ¹Î/Desktop/IFX_S2GL-HW-SW_V1.1.3/Firmware_Software/DAVE project/S2GL_Doppler/Libraries/XMCLib/inc\xmc_usic.h ****  * 
  18:C:/Users/±è°æ¹Î/Desktop/IFX_S2GL-HW-SW_V1.1.3/Firmware_Software/DAVE project/S2GL_Doppler/Libraries/XMCLib/inc\xmc_usic.h ****  * Redistributions in binary form must reproduce the above copyright notice, this list of condition
  19:C:/Users/±è°æ¹Î/Desktop/IFX_S2GL-HW-SW_V1.1.3/Firmware_Software/DAVE project/S2GL_Doppler/Libraries/XMCLib/inc\xmc_usic.h ****  * disclaimer in the documentation and/or other materials provided with the distribution.          
  20:C:/Users/±è°æ¹Î/Desktop/IFX_S2GL-HW-SW_V1.1.3/Firmware_Software/DAVE project/S2GL_Doppler/Libraries/XMCLib/inc\xmc_usic.h ****  * 
  21:C:/Users/±è°æ¹Î/Desktop/IFX_S2GL-HW-SW_V1.1.3/Firmware_Software/DAVE project/S2GL_Doppler/Libraries/XMCLib/inc\xmc_usic.h ****  * Neither the name of the copyright holders nor the names of its contributors may be used to endor
  22:C:/Users/±è°æ¹Î/Desktop/IFX_S2GL-HW-SW_V1.1.3/Firmware_Software/DAVE project/S2GL_Doppler/Libraries/XMCLib/inc\xmc_usic.h ****  * products derived from this software without specific prior written permission.                  
  23:C:/Users/±è°æ¹Î/Desktop/IFX_S2GL-HW-SW_V1.1.3/Firmware_Software/DAVE project/S2GL_Doppler/Libraries/XMCLib/inc\xmc_usic.h ****  *                                                                              
  24:C:/Users/±è°æ¹Î/Desktop/IFX_S2GL-HW-SW_V1.1.3/Firmware_Software/DAVE project/S2GL_Doppler/Libraries/XMCLib/inc\xmc_usic.h ****  * THIS SOFTWARE IS PROVIDED BY THE COPYRIGHT HOLDERS AND CONTRIBUTORS "AS IS" AND ANY EXPRESS OR I
  25:C:/Users/±è°æ¹Î/Desktop/IFX_S2GL-HW-SW_V1.1.3/Firmware_Software/DAVE project/S2GL_Doppler/Libraries/XMCLib/inc\xmc_usic.h ****  * INCLUDING, BUT NOT LIMITED TO, THE IMPLIED WARRANTIES OF MERCHANTABILITY AND FITNESS FOR A PARTI
  26:C:/Users/±è°æ¹Î/Desktop/IFX_S2GL-HW-SW_V1.1.3/Firmware_Software/DAVE project/S2GL_Doppler/Libraries/XMCLib/inc\xmc_usic.h ****  * DISCLAIMED. IN NO EVENT SHALL THE COPYRIGHT HOLDER OR CONTRIBUTORS BE LIABLE  FOR ANY DIRECT, IN
  27:C:/Users/±è°æ¹Î/Desktop/IFX_S2GL-HW-SW_V1.1.3/Firmware_Software/DAVE project/S2GL_Doppler/Libraries/XMCLib/inc\xmc_usic.h ****  * SPECIAL, EXEMPLARY, OR CONSEQUENTIAL DAMAGES (INCLUDING, BUT NOT LIMITED TO, PROCUREMENT OF SUBS
  28:C:/Users/±è°æ¹Î/Desktop/IFX_S2GL-HW-SW_V1.1.3/Firmware_Software/DAVE project/S2GL_Doppler/Libraries/XMCLib/inc\xmc_usic.h ****  * SERVICES; LOSS OF USE, DATA, OR PROFITS; OR BUSINESS INTERRUPTION) HOWEVER CAUSED AND ON ANY THE
  29:C:/Users/±è°æ¹Î/Desktop/IFX_S2GL-HW-SW_V1.1.3/Firmware_Software/DAVE project/S2GL_Doppler/Libraries/XMCLib/inc\xmc_usic.h ****  * WHETHER IN CONTRACT, STRICT LIABILITY,OR TORT (INCLUDING NEGLIGENCE OR OTHERWISE) ARISING IN ANY
  30:C:/Users/±è°æ¹Î/Desktop/IFX_S2GL-HW-SW_V1.1.3/Firmware_Software/DAVE project/S2GL_Doppler/Libraries/XMCLib/inc\xmc_usic.h ****  * OF THIS SOFTWARE, EVEN IF ADVISED OF THE POSSIBILITY OF SUCH DAMAGE.                            
  31:C:/Users/±è°æ¹Î/Desktop/IFX_S2GL-HW-SW_V1.1.3/Firmware_Software/DAVE project/S2GL_Doppler/Libraries/XMCLib/inc\xmc_usic.h ****  *                                                                              
  32:C:/Users/±è°æ¹Î/Desktop/IFX_S2GL-HW-SW_V1.1.3/Firmware_Software/DAVE project/S2GL_Doppler/Libraries/XMCLib/inc\xmc_usic.h ****  * To improve the quality of the software, users are encouraged to share modifications, enhancement
  33:C:/Users/±è°æ¹Î/Desktop/IFX_S2GL-HW-SW_V1.1.3/Firmware_Software/DAVE project/S2GL_Doppler/Libraries/XMCLib/inc\xmc_usic.h ****  * Infineon Technologies AG dave@infineon.com).                                                    
  34:C:/Users/±è°æ¹Î/Desktop/IFX_S2GL-HW-SW_V1.1.3/Firmware_Software/DAVE project/S2GL_Doppler/Libraries/XMCLib/inc\xmc_usic.h ****  **************************************************************************************************
  35:C:/Users/±è°æ¹Î/Desktop/IFX_S2GL-HW-SW_V1.1.3/Firmware_Software/DAVE project/S2GL_Doppler/Libraries/XMCLib/inc\xmc_usic.h ****  *
  36:C:/Users/±è°æ¹Î/Desktop/IFX_S2GL-HW-SW_V1.1.3/Firmware_Software/DAVE project/S2GL_Doppler/Libraries/XMCLib/inc\xmc_usic.h ****  * Change History
  37:C:/Users/±è°æ¹Î/Desktop/IFX_S2GL-HW-SW_V1.1.3/Firmware_Software/DAVE project/S2GL_Doppler/Libraries/XMCLib/inc\xmc_usic.h ****  * --------------
  38:C:/Users/±è°æ¹Î/Desktop/IFX_S2GL-HW-SW_V1.1.3/Firmware_Software/DAVE project/S2GL_Doppler/Libraries/XMCLib/inc\xmc_usic.h ****  *
  39:C:/Users/±è°æ¹Î/Desktop/IFX_S2GL-HW-SW_V1.1.3/Firmware_Software/DAVE project/S2GL_Doppler/Libraries/XMCLib/inc\xmc_usic.h ****  * 2015-02-20:
  40:C:/Users/±è°æ¹Î/Desktop/IFX_S2GL-HW-SW_V1.1.3/Firmware_Software/DAVE project/S2GL_Doppler/Libraries/XMCLib/inc\xmc_usic.h ****  *     - Initial draft<br>
  41:C:/Users/±è°æ¹Î/Desktop/IFX_S2GL-HW-SW_V1.1.3/Firmware_Software/DAVE project/S2GL_Doppler/Libraries/XMCLib/inc\xmc_usic.h ****  *     - Documentation improved <br>
  42:C:/Users/±è°æ¹Î/Desktop/IFX_S2GL-HW-SW_V1.1.3/Firmware_Software/DAVE project/S2GL_Doppler/Libraries/XMCLib/inc\xmc_usic.h ****  *
  43:C:/Users/±è°æ¹Î/Desktop/IFX_S2GL-HW-SW_V1.1.3/Firmware_Software/DAVE project/S2GL_Doppler/Libraries/XMCLib/inc\xmc_usic.h ****  * 2015-05-08:
  44:C:/Users/±è°æ¹Î/Desktop/IFX_S2GL-HW-SW_V1.1.3/Firmware_Software/DAVE project/S2GL_Doppler/Libraries/XMCLib/inc\xmc_usic.h ****  *     - Added XMC_USIC_CH_SetInputTriggerCombinationMode() and XMC_USIC_CH_SetTransmitBufferStatus
  45:C:/Users/±è°æ¹Î/Desktop/IFX_S2GL-HW-SW_V1.1.3/Firmware_Software/DAVE project/S2GL_Doppler/Libraries/XMCLib/inc\xmc_usic.h ****  *      
  46:C:/Users/±è°æ¹Î/Desktop/IFX_S2GL-HW-SW_V1.1.3/Firmware_Software/DAVE project/S2GL_Doppler/Libraries/XMCLib/inc\xmc_usic.h ****  * 2015-06-20:
  47:C:/Users/±è°æ¹Î/Desktop/IFX_S2GL-HW-SW_V1.1.3/Firmware_Software/DAVE project/S2GL_Doppler/Libraries/XMCLib/inc\xmc_usic.h ****  *     - Removed version macros and declaration of GetDriverVersion API
  48:C:/Users/±è°æ¹Î/Desktop/IFX_S2GL-HW-SW_V1.1.3/Firmware_Software/DAVE project/S2GL_Doppler/Libraries/XMCLib/inc\xmc_usic.h ****  * 
  49:C:/Users/±è°æ¹Î/Desktop/IFX_S2GL-HW-SW_V1.1.3/Firmware_Software/DAVE project/S2GL_Doppler/Libraries/XMCLib/inc\xmc_usic.h ****  * 2015-08-17:
  50:C:/Users/±è°æ¹Î/Desktop/IFX_S2GL-HW-SW_V1.1.3/Firmware_Software/DAVE project/S2GL_Doppler/Libraries/XMCLib/inc\xmc_usic.h ****  *     - Bug fixed in XMC_USIC_CH_SetTransmitBufferStatus API. OR operator removed.
  51:C:/Users/±è°æ¹Î/Desktop/IFX_S2GL-HW-SW_V1.1.3/Firmware_Software/DAVE project/S2GL_Doppler/Libraries/XMCLib/inc\xmc_usic.h ****  *
  52:C:/Users/±è°æ¹Î/Desktop/IFX_S2GL-HW-SW_V1.1.3/Firmware_Software/DAVE project/S2GL_Doppler/Libraries/XMCLib/inc\xmc_usic.h ****  * 2015-08-24:
  53:C:/Users/±è°æ¹Î/Desktop/IFX_S2GL-HW-SW_V1.1.3/Firmware_Software/DAVE project/S2GL_Doppler/Libraries/XMCLib/inc\xmc_usic.h ****  *     - Added APIs for enabling/disabling delay compensation XMC_USIC_CH_DisableDelayCompensation(
  54:C:/Users/±è°æ¹Î/Desktop/IFX_S2GL-HW-SW_V1.1.3/Firmware_Software/DAVE project/S2GL_Doppler/Libraries/XMCLib/inc\xmc_usic.h ****  *       XMC_USIC_CH_DisableDelayCompensation()
  55:C:/Users/±è°æ¹Î/Desktop/IFX_S2GL-HW-SW_V1.1.3/Firmware_Software/DAVE project/S2GL_Doppler/Libraries/XMCLib/inc\xmc_usic.h ****  *
  56:C:/Users/±è°æ¹Î/Desktop/IFX_S2GL-HW-SW_V1.1.3/Firmware_Software/DAVE project/S2GL_Doppler/Libraries/XMCLib/inc\xmc_usic.h ****  * 2015-08-25:
  57:C:/Users/±è°æ¹Î/Desktop/IFX_S2GL-HW-SW_V1.1.3/Firmware_Software/DAVE project/S2GL_Doppler/Libraries/XMCLib/inc\xmc_usic.h ****  *     - Added APIs for defining if the data shift unit input is derived
  58:C:/Users/±è°æ¹Î/Desktop/IFX_S2GL-HW-SW_V1.1.3/Firmware_Software/DAVE project/S2GL_Doppler/Libraries/XMCLib/inc\xmc_usic.h ****  *       from the input data path DXn or from the selected protocol pre-processors: XMC_USIC_CH_Con
  59:C:/Users/±è°æ¹Î/Desktop/IFX_S2GL-HW-SW_V1.1.3/Firmware_Software/DAVE project/S2GL_Doppler/Libraries/XMCLib/inc\xmc_usic.h ****  *       and XMC_USIC_CH_ConnectInputDataShiftToDataInput()
  60:C:/Users/±è°æ¹Î/Desktop/IFX_S2GL-HW-SW_V1.1.3/Firmware_Software/DAVE project/S2GL_Doppler/Libraries/XMCLib/inc\xmc_usic.h ****  *
  61:C:/Users/±è°æ¹Î/Desktop/IFX_S2GL-HW-SW_V1.1.3/Firmware_Software/DAVE project/S2GL_Doppler/Libraries/XMCLib/inc\xmc_usic.h ****  * 2015-08-27:
  62:C:/Users/±è°æ¹Î/Desktop/IFX_S2GL-HW-SW_V1.1.3/Firmware_Software/DAVE project/S2GL_Doppler/Libraries/XMCLib/inc\xmc_usic.h ****  *     - Fixed bug in XMC_USIC_CH_BRG_CLOCK_SOURCE_DX1T value.
  63:C:/Users/±è°æ¹Î/Desktop/IFX_S2GL-HW-SW_V1.1.3/Firmware_Software/DAVE project/S2GL_Doppler/Libraries/XMCLib/inc\xmc_usic.h ****  *     - Added APIs for direct TBUF access: XMC_USIC_CH_WriteToTBUF() and XMC_USIC_CH_WriteToTBUFTC
  64:C:/Users/±è°æ¹Î/Desktop/IFX_S2GL-HW-SW_V1.1.3/Firmware_Software/DAVE project/S2GL_Doppler/Libraries/XMCLib/inc\xmc_usic.h ****  *     - Added APIs for external input for BRG configuration:XMC_USIC_CH_ConfigExternalInputSignalT
  65:C:/Users/±è°æ¹Î/Desktop/IFX_S2GL-HW-SW_V1.1.3/Firmware_Software/DAVE project/S2GL_Doppler/Libraries/XMCLib/inc\xmc_usic.h ****  *
  66:C:/Users/±è°æ¹Î/Desktop/IFX_S2GL-HW-SW_V1.1.3/Firmware_Software/DAVE project/S2GL_Doppler/Libraries/XMCLib/inc\xmc_usic.h ****  * 2015-08-28:
  67:C:/Users/±è°æ¹Î/Desktop/IFX_S2GL-HW-SW_V1.1.3/Firmware_Software/DAVE project/S2GL_Doppler/Libraries/XMCLib/inc\xmc_usic.h ****  *     - Added API for enabling the transfer trigger unit to set bit TCSR.TE if the trigger signal 
  68:C:/Users/±è°æ¹Î/Desktop/IFX_S2GL-HW-SW_V1.1.3/Firmware_Software/DAVE project/S2GL_Doppler/Libraries/XMCLib/inc\xmc_usic.h ****  *       Clear to Send (CTS) signal: XMC_USIC_CH_EnableTBUFDataValidTrigger() and XMC_USIC_CH_Disab
  69:C:/Users/±è°æ¹Î/Desktop/IFX_S2GL-HW-SW_V1.1.3/Firmware_Software/DAVE project/S2GL_Doppler/Libraries/XMCLib/inc\xmc_usic.h ****  *
  70:C:/Users/±è°æ¹Î/Desktop/IFX_S2GL-HW-SW_V1.1.3/Firmware_Software/DAVE project/S2GL_Doppler/Libraries/XMCLib/inc\xmc_usic.h ****  * 2016-03-09:
  71:C:/Users/±è°æ¹Î/Desktop/IFX_S2GL-HW-SW_V1.1.3/Firmware_Software/DAVE project/S2GL_Doppler/Libraries/XMCLib/inc\xmc_usic.h ****  *     - Optimization of write only registers
  72:C:/Users/±è°æ¹Î/Desktop/IFX_S2GL-HW-SW_V1.1.3/Firmware_Software/DAVE project/S2GL_Doppler/Libraries/XMCLib/inc\xmc_usic.h ****  *
  73:C:/Users/±è°æ¹Î/Desktop/IFX_S2GL-HW-SW_V1.1.3/Firmware_Software/DAVE project/S2GL_Doppler/Libraries/XMCLib/inc\xmc_usic.h ****  * 2016-04-10:
  74:C:/Users/±è°æ¹Î/Desktop/IFX_S2GL-HW-SW_V1.1.3/Firmware_Software/DAVE project/S2GL_Doppler/Libraries/XMCLib/inc\xmc_usic.h ****  *     - Added an API to put the data into FIFO when hardware port control is enabled: XMC_USIC_CH_
  75:C:/Users/±è°æ¹Î/Desktop/IFX_S2GL-HW-SW_V1.1.3/Firmware_Software/DAVE project/S2GL_Doppler/Libraries/XMCLib/inc\xmc_usic.h ****  *
  76:C:/Users/±è°æ¹Î/Desktop/IFX_S2GL-HW-SW_V1.1.3/Firmware_Software/DAVE project/S2GL_Doppler/Libraries/XMCLib/inc\xmc_usic.h ****  * @endcond
  77:C:/Users/±è°æ¹Î/Desktop/IFX_S2GL-HW-SW_V1.1.3/Firmware_Software/DAVE project/S2GL_Doppler/Libraries/XMCLib/inc\xmc_usic.h ****  *
  78:C:/Users/±è°æ¹Î/Desktop/IFX_S2GL-HW-SW_V1.1.3/Firmware_Software/DAVE project/S2GL_Doppler/Libraries/XMCLib/inc\xmc_usic.h ****  */
  79:C:/Users/±è°æ¹Î/Desktop/IFX_S2GL-HW-SW_V1.1.3/Firmware_Software/DAVE project/S2GL_Doppler/Libraries/XMCLib/inc\xmc_usic.h **** 
  80:C:/Users/±è°æ¹Î/Desktop/IFX_S2GL-HW-SW_V1.1.3/Firmware_Software/DAVE project/S2GL_Doppler/Libraries/XMCLib/inc\xmc_usic.h **** #ifndef XMC_USIC_H
  81:C:/Users/±è°æ¹Î/Desktop/IFX_S2GL-HW-SW_V1.1.3/Firmware_Software/DAVE project/S2GL_Doppler/Libraries/XMCLib/inc\xmc_usic.h **** #define XMC_USIC_H
  82:C:/Users/±è°æ¹Î/Desktop/IFX_S2GL-HW-SW_V1.1.3/Firmware_Software/DAVE project/S2GL_Doppler/Libraries/XMCLib/inc\xmc_usic.h **** /*******************************************************************************
  83:C:/Users/±è°æ¹Î/Desktop/IFX_S2GL-HW-SW_V1.1.3/Firmware_Software/DAVE project/S2GL_Doppler/Libraries/XMCLib/inc\xmc_usic.h ****  * HEADER FILES
  84:C:/Users/±è°æ¹Î/Desktop/IFX_S2GL-HW-SW_V1.1.3/Firmware_Software/DAVE project/S2GL_Doppler/Libraries/XMCLib/inc\xmc_usic.h ****  *******************************************************************************/
  85:C:/Users/±è°æ¹Î/Desktop/IFX_S2GL-HW-SW_V1.1.3/Firmware_Software/DAVE project/S2GL_Doppler/Libraries/XMCLib/inc\xmc_usic.h **** 
  86:C:/Users/±è°æ¹Î/Desktop/IFX_S2GL-HW-SW_V1.1.3/Firmware_Software/DAVE project/S2GL_Doppler/Libraries/XMCLib/inc\xmc_usic.h **** #include "xmc_common.h"
  87:C:/Users/±è°æ¹Î/Desktop/IFX_S2GL-HW-SW_V1.1.3/Firmware_Software/DAVE project/S2GL_Doppler/Libraries/XMCLib/inc\xmc_usic.h **** 
  88:C:/Users/±è°æ¹Î/Desktop/IFX_S2GL-HW-SW_V1.1.3/Firmware_Software/DAVE project/S2GL_Doppler/Libraries/XMCLib/inc\xmc_usic.h **** /**
  89:C:/Users/±è°æ¹Î/Desktop/IFX_S2GL-HW-SW_V1.1.3/Firmware_Software/DAVE project/S2GL_Doppler/Libraries/XMCLib/inc\xmc_usic.h ****  * @addtogroup XMClib XMC Peripheral Library
  90:C:/Users/±è°æ¹Î/Desktop/IFX_S2GL-HW-SW_V1.1.3/Firmware_Software/DAVE project/S2GL_Doppler/Libraries/XMCLib/inc\xmc_usic.h ****  * @{
  91:C:/Users/±è°æ¹Î/Desktop/IFX_S2GL-HW-SW_V1.1.3/Firmware_Software/DAVE project/S2GL_Doppler/Libraries/XMCLib/inc\xmc_usic.h ****  */
  92:C:/Users/±è°æ¹Î/Desktop/IFX_S2GL-HW-SW_V1.1.3/Firmware_Software/DAVE project/S2GL_Doppler/Libraries/XMCLib/inc\xmc_usic.h **** 
  93:C:/Users/±è°æ¹Î/Desktop/IFX_S2GL-HW-SW_V1.1.3/Firmware_Software/DAVE project/S2GL_Doppler/Libraries/XMCLib/inc\xmc_usic.h **** /**
  94:C:/Users/±è°æ¹Î/Desktop/IFX_S2GL-HW-SW_V1.1.3/Firmware_Software/DAVE project/S2GL_Doppler/Libraries/XMCLib/inc\xmc_usic.h ****  * @addtogroup USIC
  95:C:/Users/±è°æ¹Î/Desktop/IFX_S2GL-HW-SW_V1.1.3/Firmware_Software/DAVE project/S2GL_Doppler/Libraries/XMCLib/inc\xmc_usic.h ****  * @brief Universal Serial Interface Channel(USIC) driver for serial communication.
  96:C:/Users/±è°æ¹Î/Desktop/IFX_S2GL-HW-SW_V1.1.3/Firmware_Software/DAVE project/S2GL_Doppler/Libraries/XMCLib/inc\xmc_usic.h ****  *
  97:C:/Users/±è°æ¹Î/Desktop/IFX_S2GL-HW-SW_V1.1.3/Firmware_Software/DAVE project/S2GL_Doppler/Libraries/XMCLib/inc\xmc_usic.h ****  * The Universal Serial Interface Channel(USIC) module is a flexible interface module
  98:C:/Users/±è°æ¹Î/Desktop/IFX_S2GL-HW-SW_V1.1.3/Firmware_Software/DAVE project/S2GL_Doppler/Libraries/XMCLib/inc\xmc_usic.h ****  * covering several serial communication protocols. A USIC module contains two
  99:C:/Users/±è°æ¹Î/Desktop/IFX_S2GL-HW-SW_V1.1.3/Firmware_Software/DAVE project/S2GL_Doppler/Libraries/XMCLib/inc\xmc_usic.h ****  * independent communication channels named USICx_CH0 and USICx_CH1, with x
 100:C:/Users/±è°æ¹Î/Desktop/IFX_S2GL-HW-SW_V1.1.3/Firmware_Software/DAVE project/S2GL_Doppler/Libraries/XMCLib/inc\xmc_usic.h ****  * being the number of the USIC module. The user can program, during run-time, which protocol will 
 101:C:/Users/±è°æ¹Î/Desktop/IFX_S2GL-HW-SW_V1.1.3/Firmware_Software/DAVE project/S2GL_Doppler/Libraries/XMCLib/inc\xmc_usic.h ****  * by each communication channel and which pins are used.
 102:C:/Users/±è°æ¹Î/Desktop/IFX_S2GL-HW-SW_V1.1.3/Firmware_Software/DAVE project/S2GL_Doppler/Libraries/XMCLib/inc\xmc_usic.h ****  * The driver provides APIs, configuration structures and enumerations to configure common features
 103:C:/Users/±è°æ¹Î/Desktop/IFX_S2GL-HW-SW_V1.1.3/Firmware_Software/DAVE project/S2GL_Doppler/Libraries/XMCLib/inc\xmc_usic.h ****  * communication protocols.
 104:C:/Users/±è°æ¹Î/Desktop/IFX_S2GL-HW-SW_V1.1.3/Firmware_Software/DAVE project/S2GL_Doppler/Libraries/XMCLib/inc\xmc_usic.h ****  * 
 105:C:/Users/±è°æ¹Î/Desktop/IFX_S2GL-HW-SW_V1.1.3/Firmware_Software/DAVE project/S2GL_Doppler/Libraries/XMCLib/inc\xmc_usic.h ****  * USIC driver features:
 106:C:/Users/±è°æ¹Î/Desktop/IFX_S2GL-HW-SW_V1.1.3/Firmware_Software/DAVE project/S2GL_Doppler/Libraries/XMCLib/inc\xmc_usic.h ****  * -# Allows configuration of FIFO for transmit and receive functions.
 107:C:/Users/±è°æ¹Î/Desktop/IFX_S2GL-HW-SW_V1.1.3/Firmware_Software/DAVE project/S2GL_Doppler/Libraries/XMCLib/inc\xmc_usic.h ****  * -# Provides a structure type XMC_USIC_CH_t to represent the USIC channel registers in a programm
 108:C:/Users/±è°æ¹Î/Desktop/IFX_S2GL-HW-SW_V1.1.3/Firmware_Software/DAVE project/S2GL_Doppler/Libraries/XMCLib/inc\xmc_usic.h ****  friendly format.
 109:C:/Users/±è°æ¹Î/Desktop/IFX_S2GL-HW-SW_V1.1.3/Firmware_Software/DAVE project/S2GL_Doppler/Libraries/XMCLib/inc\xmc_usic.h ****  * -# Allows configuration of automatic update for frame length, word length, slave select or slave
 110:C:/Users/±è°æ¹Î/Desktop/IFX_S2GL-HW-SW_V1.1.3/Firmware_Software/DAVE project/S2GL_Doppler/Libraries/XMCLib/inc\xmc_usic.h ****  * -# Allows transmission of data to FIFO using XMC_USIC_CH_TXFIFO_PutData() and XMC_USIC_CH_TXFIFO
 111:C:/Users/±è°æ¹Î/Desktop/IFX_S2GL-HW-SW_V1.1.3/Firmware_Software/DAVE project/S2GL_Doppler/Libraries/XMCLib/inc\xmc_usic.h ****  * -# Allows reading of received data in FIFO using XMC_USIC_CH_RXFIFO_GetData()
 112:C:/Users/±è°æ¹Î/Desktop/IFX_S2GL-HW-SW_V1.1.3/Firmware_Software/DAVE project/S2GL_Doppler/Libraries/XMCLib/inc\xmc_usic.h ****  * -# Allows configuration of baudrate using XMC_USIC_CH_SetBaudrate()
 113:C:/Users/±è°æ¹Î/Desktop/IFX_S2GL-HW-SW_V1.1.3/Firmware_Software/DAVE project/S2GL_Doppler/Libraries/XMCLib/inc\xmc_usic.h ****  * -# Provides API to trigger interrupts using XMC_USIC_CH_TriggerServiceRequest()
 114:C:/Users/±è°æ¹Î/Desktop/IFX_S2GL-HW-SW_V1.1.3/Firmware_Software/DAVE project/S2GL_Doppler/Libraries/XMCLib/inc\xmc_usic.h ****  * @{
 115:C:/Users/±è°æ¹Î/Desktop/IFX_S2GL-HW-SW_V1.1.3/Firmware_Software/DAVE project/S2GL_Doppler/Libraries/XMCLib/inc\xmc_usic.h ****  */
 116:C:/Users/±è°æ¹Î/Desktop/IFX_S2GL-HW-SW_V1.1.3/Firmware_Software/DAVE project/S2GL_Doppler/Libraries/XMCLib/inc\xmc_usic.h **** 
 117:C:/Users/±è°æ¹Î/Desktop/IFX_S2GL-HW-SW_V1.1.3/Firmware_Software/DAVE project/S2GL_Doppler/Libraries/XMCLib/inc\xmc_usic.h **** /*******************************************************************************
 118:C:/Users/±è°æ¹Î/Desktop/IFX_S2GL-HW-SW_V1.1.3/Firmware_Software/DAVE project/S2GL_Doppler/Libraries/XMCLib/inc\xmc_usic.h ****  * MACROS
 119:C:/Users/±è°æ¹Î/Desktop/IFX_S2GL-HW-SW_V1.1.3/Firmware_Software/DAVE project/S2GL_Doppler/Libraries/XMCLib/inc\xmc_usic.h ****  *******************************************************************************/
 120:C:/Users/±è°æ¹Î/Desktop/IFX_S2GL-HW-SW_V1.1.3/Firmware_Software/DAVE project/S2GL_Doppler/Libraries/XMCLib/inc\xmc_usic.h **** 
 121:C:/Users/±è°æ¹Î/Desktop/IFX_S2GL-HW-SW_V1.1.3/Firmware_Software/DAVE project/S2GL_Doppler/Libraries/XMCLib/inc\xmc_usic.h **** #define XMC_USIC0 ((XMC_USIC_t *)USIC0_BASE)			/**< USIC0 module base address */
 122:C:/Users/±è°æ¹Î/Desktop/IFX_S2GL-HW-SW_V1.1.3/Firmware_Software/DAVE project/S2GL_Doppler/Libraries/XMCLib/inc\xmc_usic.h **** #define XMC_USIC0_CH0 ((XMC_USIC_CH_t *)USIC0_CH0_BASE)	/**< USIC0 channel 0 base address */
 123:C:/Users/±è°æ¹Î/Desktop/IFX_S2GL-HW-SW_V1.1.3/Firmware_Software/DAVE project/S2GL_Doppler/Libraries/XMCLib/inc\xmc_usic.h **** #define XMC_USIC0_CH1 ((XMC_USIC_CH_t *)USIC0_CH1_BASE)	/**< USIC0 channel 1 base address */
 124:C:/Users/±è°æ¹Î/Desktop/IFX_S2GL-HW-SW_V1.1.3/Firmware_Software/DAVE project/S2GL_Doppler/Libraries/XMCLib/inc\xmc_usic.h **** 
 125:C:/Users/±è°æ¹Î/Desktop/IFX_S2GL-HW-SW_V1.1.3/Firmware_Software/DAVE project/S2GL_Doppler/Libraries/XMCLib/inc\xmc_usic.h **** #if defined(USIC1)
 126:C:/Users/±è°æ¹Î/Desktop/IFX_S2GL-HW-SW_V1.1.3/Firmware_Software/DAVE project/S2GL_Doppler/Libraries/XMCLib/inc\xmc_usic.h **** #define XMC_USIC1 ((XMC_USIC_t *)USIC1_BASE)			/**< USIC1 module base address */
 127:C:/Users/±è°æ¹Î/Desktop/IFX_S2GL-HW-SW_V1.1.3/Firmware_Software/DAVE project/S2GL_Doppler/Libraries/XMCLib/inc\xmc_usic.h **** #define XMC_USIC1_CH0 ((XMC_USIC_CH_t *)USIC1_CH0_BASE)	/**< USIC1 channel 0 base address */
 128:C:/Users/±è°æ¹Î/Desktop/IFX_S2GL-HW-SW_V1.1.3/Firmware_Software/DAVE project/S2GL_Doppler/Libraries/XMCLib/inc\xmc_usic.h **** #define XMC_USIC1_CH1 ((XMC_USIC_CH_t *)USIC1_CH1_BASE)	/**< USIC1 channel 1 base address */
 129:C:/Users/±è°æ¹Î/Desktop/IFX_S2GL-HW-SW_V1.1.3/Firmware_Software/DAVE project/S2GL_Doppler/Libraries/XMCLib/inc\xmc_usic.h **** #endif
 130:C:/Users/±è°æ¹Î/Desktop/IFX_S2GL-HW-SW_V1.1.3/Firmware_Software/DAVE project/S2GL_Doppler/Libraries/XMCLib/inc\xmc_usic.h **** 
 131:C:/Users/±è°æ¹Î/Desktop/IFX_S2GL-HW-SW_V1.1.3/Firmware_Software/DAVE project/S2GL_Doppler/Libraries/XMCLib/inc\xmc_usic.h **** #if defined(USIC2)
 132:C:/Users/±è°æ¹Î/Desktop/IFX_S2GL-HW-SW_V1.1.3/Firmware_Software/DAVE project/S2GL_Doppler/Libraries/XMCLib/inc\xmc_usic.h **** #define XMC_USIC2 ((XMC_USIC_t *)USIC2_BASE)			/**< USIC2 module base address */
 133:C:/Users/±è°æ¹Î/Desktop/IFX_S2GL-HW-SW_V1.1.3/Firmware_Software/DAVE project/S2GL_Doppler/Libraries/XMCLib/inc\xmc_usic.h **** #define XMC_USIC2_CH0 ((XMC_USIC_CH_t *)USIC2_CH0_BASE)	/**< USIC2 channel 0 base address */
 134:C:/Users/±è°æ¹Î/Desktop/IFX_S2GL-HW-SW_V1.1.3/Firmware_Software/DAVE project/S2GL_Doppler/Libraries/XMCLib/inc\xmc_usic.h **** #define XMC_USIC2_CH1 ((XMC_USIC_CH_t *)USIC2_CH1_BASE)	/**< USIC2 channel 1 base address */
 135:C:/Users/±è°æ¹Î/Desktop/IFX_S2GL-HW-SW_V1.1.3/Firmware_Software/DAVE project/S2GL_Doppler/Libraries/XMCLib/inc\xmc_usic.h **** #endif
 136:C:/Users/±è°æ¹Î/Desktop/IFX_S2GL-HW-SW_V1.1.3/Firmware_Software/DAVE project/S2GL_Doppler/Libraries/XMCLib/inc\xmc_usic.h **** 
 137:C:/Users/±è°æ¹Î/Desktop/IFX_S2GL-HW-SW_V1.1.3/Firmware_Software/DAVE project/S2GL_Doppler/Libraries/XMCLib/inc\xmc_usic.h **** #define USIC_CH_DXCR_DSEL_Msk  USIC_CH_DX0CR_DSEL_Msk   /**< Common mask for DSEL bitfield mask in 
 138:C:/Users/±è°æ¹Î/Desktop/IFX_S2GL-HW-SW_V1.1.3/Firmware_Software/DAVE project/S2GL_Doppler/Libraries/XMCLib/inc\xmc_usic.h **** #define USIC_CH_DXCR_DSEL_Pos  USIC_CH_DX0CR_DSEL_Pos   /**< Common mask for DSEL bitfield position
 139:C:/Users/±è°æ¹Î/Desktop/IFX_S2GL-HW-SW_V1.1.3/Firmware_Software/DAVE project/S2GL_Doppler/Libraries/XMCLib/inc\xmc_usic.h **** #define USIC_CH_DXCR_SFSEL_Pos USIC_CH_DX0CR_SFSEL_Pos  /**< Common mask for SFSEL bitfield positio
 140:C:/Users/±è°æ¹Î/Desktop/IFX_S2GL-HW-SW_V1.1.3/Firmware_Software/DAVE project/S2GL_Doppler/Libraries/XMCLib/inc\xmc_usic.h **** #define USIC_CH_DXCR_SFSEL_Msk USIC_CH_DX0CR_SFSEL_Msk  /**< Common mask for SFSEL bitfield mask in
 141:C:/Users/±è°æ¹Î/Desktop/IFX_S2GL-HW-SW_V1.1.3/Firmware_Software/DAVE project/S2GL_Doppler/Libraries/XMCLib/inc\xmc_usic.h **** #define USIC_CH_DXCR_DPOL_Msk  USIC_CH_DX0CR_DPOL_Msk   /**< Common mask for DPOL bitfield mask in 
 142:C:/Users/±è°æ¹Î/Desktop/IFX_S2GL-HW-SW_V1.1.3/Firmware_Software/DAVE project/S2GL_Doppler/Libraries/XMCLib/inc\xmc_usic.h **** #define USIC_CH_DXCR_DFEN_Msk  USIC_CH_DX0CR_DFEN_Msk   /**< Common mask for DFEN bitfield mask in 
 143:C:/Users/±è°æ¹Î/Desktop/IFX_S2GL-HW-SW_V1.1.3/Firmware_Software/DAVE project/S2GL_Doppler/Libraries/XMCLib/inc\xmc_usic.h **** #define USIC_CH_DXCR_DSEN_Msk  USIC_CH_DX0CR_DSEN_Msk   /**< Common mask for DSEN bitfield mask in 
 144:C:/Users/±è°æ¹Î/Desktop/IFX_S2GL-HW-SW_V1.1.3/Firmware_Software/DAVE project/S2GL_Doppler/Libraries/XMCLib/inc\xmc_usic.h **** #define USIC_CH_DXCR_CM_Pos    USIC_CH_DX0CR_CM_Pos     /**< Common mask for CM bitfield position i
 145:C:/Users/±è°æ¹Î/Desktop/IFX_S2GL-HW-SW_V1.1.3/Firmware_Software/DAVE project/S2GL_Doppler/Libraries/XMCLib/inc\xmc_usic.h **** #define USIC_CH_DXCR_CM_Msk    USIC_CH_DX0CR_CM_Msk     /**< Common mask for CM bitfield mask in DX
 146:C:/Users/±è°æ¹Î/Desktop/IFX_S2GL-HW-SW_V1.1.3/Firmware_Software/DAVE project/S2GL_Doppler/Libraries/XMCLib/inc\xmc_usic.h **** #define USIC_CH_DXCR_INSW_Msk  USIC_CH_DX0CR_INSW_Msk   /**< Common mask for INSW bitfield mask in 
 147:C:/Users/±è°æ¹Î/Desktop/IFX_S2GL-HW-SW_V1.1.3/Firmware_Software/DAVE project/S2GL_Doppler/Libraries/XMCLib/inc\xmc_usic.h **** #define USIC_CH_DXCR_INSW_pos  USIC_CH_DX0CR_INSW_Pos   /**< Common mask for INSW bitfield position
 148:C:/Users/±è°æ¹Î/Desktop/IFX_S2GL-HW-SW_V1.1.3/Firmware_Software/DAVE project/S2GL_Doppler/Libraries/XMCLib/inc\xmc_usic.h **** 
 149:C:/Users/±è°æ¹Î/Desktop/IFX_S2GL-HW-SW_V1.1.3/Firmware_Software/DAVE project/S2GL_Doppler/Libraries/XMCLib/inc\xmc_usic.h **** #if UC_FAMILY == XMC1
 150:C:/Users/±è°æ¹Î/Desktop/IFX_S2GL-HW-SW_V1.1.3/Firmware_Software/DAVE project/S2GL_Doppler/Libraries/XMCLib/inc\xmc_usic.h ****  #include "xmc1_usic_map.h"
 151:C:/Users/±è°æ¹Î/Desktop/IFX_S2GL-HW-SW_V1.1.3/Firmware_Software/DAVE project/S2GL_Doppler/Libraries/XMCLib/inc\xmc_usic.h **** #endif
 152:C:/Users/±è°æ¹Î/Desktop/IFX_S2GL-HW-SW_V1.1.3/Firmware_Software/DAVE project/S2GL_Doppler/Libraries/XMCLib/inc\xmc_usic.h **** 
 153:C:/Users/±è°æ¹Î/Desktop/IFX_S2GL-HW-SW_V1.1.3/Firmware_Software/DAVE project/S2GL_Doppler/Libraries/XMCLib/inc\xmc_usic.h **** #if UC_FAMILY == XMC4
 154:C:/Users/±è°æ¹Î/Desktop/IFX_S2GL-HW-SW_V1.1.3/Firmware_Software/DAVE project/S2GL_Doppler/Libraries/XMCLib/inc\xmc_usic.h ****  #include "xmc4_usic_map.h"
 155:C:/Users/±è°æ¹Î/Desktop/IFX_S2GL-HW-SW_V1.1.3/Firmware_Software/DAVE project/S2GL_Doppler/Libraries/XMCLib/inc\xmc_usic.h **** #endif
 156:C:/Users/±è°æ¹Î/Desktop/IFX_S2GL-HW-SW_V1.1.3/Firmware_Software/DAVE project/S2GL_Doppler/Libraries/XMCLib/inc\xmc_usic.h **** 
 157:C:/Users/±è°æ¹Î/Desktop/IFX_S2GL-HW-SW_V1.1.3/Firmware_Software/DAVE project/S2GL_Doppler/Libraries/XMCLib/inc\xmc_usic.h **** /*******************************************************************************
 158:C:/Users/±è°æ¹Î/Desktop/IFX_S2GL-HW-SW_V1.1.3/Firmware_Software/DAVE project/S2GL_Doppler/Libraries/XMCLib/inc\xmc_usic.h ****  * ENUMS
 159:C:/Users/±è°æ¹Î/Desktop/IFX_S2GL-HW-SW_V1.1.3/Firmware_Software/DAVE project/S2GL_Doppler/Libraries/XMCLib/inc\xmc_usic.h ****  *******************************************************************************/
 160:C:/Users/±è°æ¹Î/Desktop/IFX_S2GL-HW-SW_V1.1.3/Firmware_Software/DAVE project/S2GL_Doppler/Libraries/XMCLib/inc\xmc_usic.h **** 
 161:C:/Users/±è°æ¹Î/Desktop/IFX_S2GL-HW-SW_V1.1.3/Firmware_Software/DAVE project/S2GL_Doppler/Libraries/XMCLib/inc\xmc_usic.h **** /**
 162:C:/Users/±è°æ¹Î/Desktop/IFX_S2GL-HW-SW_V1.1.3/Firmware_Software/DAVE project/S2GL_Doppler/Libraries/XMCLib/inc\xmc_usic.h ****  * USIC channel driver status
 163:C:/Users/±è°æ¹Î/Desktop/IFX_S2GL-HW-SW_V1.1.3/Firmware_Software/DAVE project/S2GL_Doppler/Libraries/XMCLib/inc\xmc_usic.h ****  */
 164:C:/Users/±è°æ¹Î/Desktop/IFX_S2GL-HW-SW_V1.1.3/Firmware_Software/DAVE project/S2GL_Doppler/Libraries/XMCLib/inc\xmc_usic.h **** typedef enum XMC_USIC_CH_STATUS
 165:C:/Users/±è°æ¹Î/Desktop/IFX_S2GL-HW-SW_V1.1.3/Firmware_Software/DAVE project/S2GL_Doppler/Libraries/XMCLib/inc\xmc_usic.h **** {
 166:C:/Users/±è°æ¹Î/Desktop/IFX_S2GL-HW-SW_V1.1.3/Firmware_Software/DAVE project/S2GL_Doppler/Libraries/XMCLib/inc\xmc_usic.h ****   XMC_USIC_CH_STATUS_OK,    /**< USIC driver status : OK */
 167:C:/Users/±è°æ¹Î/Desktop/IFX_S2GL-HW-SW_V1.1.3/Firmware_Software/DAVE project/S2GL_Doppler/Libraries/XMCLib/inc\xmc_usic.h ****   XMC_USIC_CH_STATUS_ERROR, /**< USIC driver status : ERROR */
 168:C:/Users/±è°æ¹Î/Desktop/IFX_S2GL-HW-SW_V1.1.3/Firmware_Software/DAVE project/S2GL_Doppler/Libraries/XMCLib/inc\xmc_usic.h ****   XMC_USIC_CH_STATUS_BUSY   /**< USIC driver status : BUSY */
 169:C:/Users/±è°æ¹Î/Desktop/IFX_S2GL-HW-SW_V1.1.3/Firmware_Software/DAVE project/S2GL_Doppler/Libraries/XMCLib/inc\xmc_usic.h **** } XMC_USIC_CH_STATUS_t;
 170:C:/Users/±è°æ¹Î/Desktop/IFX_S2GL-HW-SW_V1.1.3/Firmware_Software/DAVE project/S2GL_Doppler/Libraries/XMCLib/inc\xmc_usic.h **** 
 171:C:/Users/±è°æ¹Î/Desktop/IFX_S2GL-HW-SW_V1.1.3/Firmware_Software/DAVE project/S2GL_Doppler/Libraries/XMCLib/inc\xmc_usic.h **** /**
 172:C:/Users/±è°æ¹Î/Desktop/IFX_S2GL-HW-SW_V1.1.3/Firmware_Software/DAVE project/S2GL_Doppler/Libraries/XMCLib/inc\xmc_usic.h **** * USIC channel kernel mode
 173:C:/Users/±è°æ¹Î/Desktop/IFX_S2GL-HW-SW_V1.1.3/Firmware_Software/DAVE project/S2GL_Doppler/Libraries/XMCLib/inc\xmc_usic.h **** */
 174:C:/Users/±è°æ¹Î/Desktop/IFX_S2GL-HW-SW_V1.1.3/Firmware_Software/DAVE project/S2GL_Doppler/Libraries/XMCLib/inc\xmc_usic.h **** typedef enum XMC_USIC_CH_KERNEL_MODE
 175:C:/Users/±è°æ¹Î/Desktop/IFX_S2GL-HW-SW_V1.1.3/Firmware_Software/DAVE project/S2GL_Doppler/Libraries/XMCLib/inc\xmc_usic.h **** {
 176:C:/Users/±è°æ¹Î/Desktop/IFX_S2GL-HW-SW_V1.1.3/Firmware_Software/DAVE project/S2GL_Doppler/Libraries/XMCLib/inc\xmc_usic.h ****   XMC_USIC_CH_KERNEL_MODE_RUN_0  = 0x0UL,  /**< Run mode 0 (transmission and reception possible)*/
 177:C:/Users/±è°æ¹Î/Desktop/IFX_S2GL-HW-SW_V1.1.3/Firmware_Software/DAVE project/S2GL_Doppler/Libraries/XMCLib/inc\xmc_usic.h ****   XMC_USIC_CH_KERNEL_MODE_RUN_1  = 0x1UL << USIC_CH_KSCFG_NOMCFG_Pos,  /**< Run mode 1 (transmissio
 178:C:/Users/±è°æ¹Î/Desktop/IFX_S2GL-HW-SW_V1.1.3/Firmware_Software/DAVE project/S2GL_Doppler/Libraries/XMCLib/inc\xmc_usic.h ****   XMC_USIC_CH_KERNEL_MODE_STOP_0 = 0x2UL << USIC_CH_KSCFG_NOMCFG_Pos,  /**< Stop mode 0 (no transmi
 179:C:/Users/±è°æ¹Î/Desktop/IFX_S2GL-HW-SW_V1.1.3/Firmware_Software/DAVE project/S2GL_Doppler/Libraries/XMCLib/inc\xmc_usic.h ****   XMC_USIC_CH_KERNEL_MODE_STOP_1 = 0x3UL << USIC_CH_KSCFG_NOMCFG_Pos   /**< Stop mode 1 (both trans
 180:C:/Users/±è°æ¹Î/Desktop/IFX_S2GL-HW-SW_V1.1.3/Firmware_Software/DAVE project/S2GL_Doppler/Libraries/XMCLib/inc\xmc_usic.h **** } XMC_USIC_CH_KERNEL_MODE_t;
 181:C:/Users/±è°æ¹Î/Desktop/IFX_S2GL-HW-SW_V1.1.3/Firmware_Software/DAVE project/S2GL_Doppler/Libraries/XMCLib/inc\xmc_usic.h **** 
 182:C:/Users/±è°æ¹Î/Desktop/IFX_S2GL-HW-SW_V1.1.3/Firmware_Software/DAVE project/S2GL_Doppler/Libraries/XMCLib/inc\xmc_usic.h **** /**
 183:C:/Users/±è°æ¹Î/Desktop/IFX_S2GL-HW-SW_V1.1.3/Firmware_Software/DAVE project/S2GL_Doppler/Libraries/XMCLib/inc\xmc_usic.h ****  * USIC channel operating mode
 184:C:/Users/±è°æ¹Î/Desktop/IFX_S2GL-HW-SW_V1.1.3/Firmware_Software/DAVE project/S2GL_Doppler/Libraries/XMCLib/inc\xmc_usic.h ****  */
 185:C:/Users/±è°æ¹Î/Desktop/IFX_S2GL-HW-SW_V1.1.3/Firmware_Software/DAVE project/S2GL_Doppler/Libraries/XMCLib/inc\xmc_usic.h **** typedef enum XMC_USIC_CH_OPERATING_MODE
 186:C:/Users/±è°æ¹Î/Desktop/IFX_S2GL-HW-SW_V1.1.3/Firmware_Software/DAVE project/S2GL_Doppler/Libraries/XMCLib/inc\xmc_usic.h **** {
 187:C:/Users/±è°æ¹Î/Desktop/IFX_S2GL-HW-SW_V1.1.3/Firmware_Software/DAVE project/S2GL_Doppler/Libraries/XMCLib/inc\xmc_usic.h ****   XMC_USIC_CH_OPERATING_MODE_IDLE = 0x0UL, /**< USIC channel idle */
 188:C:/Users/±è°æ¹Î/Desktop/IFX_S2GL-HW-SW_V1.1.3/Firmware_Software/DAVE project/S2GL_Doppler/Libraries/XMCLib/inc\xmc_usic.h ****   XMC_USIC_CH_OPERATING_MODE_SPI  = 0x1UL << USIC_CH_CCR_MODE_Pos, /**< SPI mode */
 189:C:/Users/±è°æ¹Î/Desktop/IFX_S2GL-HW-SW_V1.1.3/Firmware_Software/DAVE project/S2GL_Doppler/Libraries/XMCLib/inc\xmc_usic.h ****   XMC_USIC_CH_OPERATING_MODE_UART = 0x2UL << USIC_CH_CCR_MODE_Pos, /**< UART mode */
 190:C:/Users/±è°æ¹Î/Desktop/IFX_S2GL-HW-SW_V1.1.3/Firmware_Software/DAVE project/S2GL_Doppler/Libraries/XMCLib/inc\xmc_usic.h ****   XMC_USIC_CH_OPERATING_MODE_I2S  = 0x3UL << USIC_CH_CCR_MODE_Pos, /**< I2S mode */
 191:C:/Users/±è°æ¹Î/Desktop/IFX_S2GL-HW-SW_V1.1.3/Firmware_Software/DAVE project/S2GL_Doppler/Libraries/XMCLib/inc\xmc_usic.h ****   XMC_USIC_CH_OPERATING_MODE_I2C  = 0x4UL << USIC_CH_CCR_MODE_Pos  /**< I2C mode */
 192:C:/Users/±è°æ¹Î/Desktop/IFX_S2GL-HW-SW_V1.1.3/Firmware_Software/DAVE project/S2GL_Doppler/Libraries/XMCLib/inc\xmc_usic.h **** } XMC_USIC_CH_OPERATING_MODE_t;
 193:C:/Users/±è°æ¹Î/Desktop/IFX_S2GL-HW-SW_V1.1.3/Firmware_Software/DAVE project/S2GL_Doppler/Libraries/XMCLib/inc\xmc_usic.h **** 
 194:C:/Users/±è°æ¹Î/Desktop/IFX_S2GL-HW-SW_V1.1.3/Firmware_Software/DAVE project/S2GL_Doppler/Libraries/XMCLib/inc\xmc_usic.h **** /**
 195:C:/Users/±è°æ¹Î/Desktop/IFX_S2GL-HW-SW_V1.1.3/Firmware_Software/DAVE project/S2GL_Doppler/Libraries/XMCLib/inc\xmc_usic.h ****  * USIC channel inputs
 196:C:/Users/±è°æ¹Î/Desktop/IFX_S2GL-HW-SW_V1.1.3/Firmware_Software/DAVE project/S2GL_Doppler/Libraries/XMCLib/inc\xmc_usic.h ****  */
 197:C:/Users/±è°æ¹Î/Desktop/IFX_S2GL-HW-SW_V1.1.3/Firmware_Software/DAVE project/S2GL_Doppler/Libraries/XMCLib/inc\xmc_usic.h **** typedef enum XMC_USIC_CH_INPUT
 198:C:/Users/±è°æ¹Î/Desktop/IFX_S2GL-HW-SW_V1.1.3/Firmware_Software/DAVE project/S2GL_Doppler/Libraries/XMCLib/inc\xmc_usic.h **** {
 199:C:/Users/±è°æ¹Î/Desktop/IFX_S2GL-HW-SW_V1.1.3/Firmware_Software/DAVE project/S2GL_Doppler/Libraries/XMCLib/inc\xmc_usic.h ****   XMC_USIC_CH_INPUT_DX0, /**< DX0 input */
 200:C:/Users/±è°æ¹Î/Desktop/IFX_S2GL-HW-SW_V1.1.3/Firmware_Software/DAVE project/S2GL_Doppler/Libraries/XMCLib/inc\xmc_usic.h ****   XMC_USIC_CH_INPUT_DX1, /**< DX1 input */
 201:C:/Users/±è°æ¹Î/Desktop/IFX_S2GL-HW-SW_V1.1.3/Firmware_Software/DAVE project/S2GL_Doppler/Libraries/XMCLib/inc\xmc_usic.h ****   XMC_USIC_CH_INPUT_DX2, /**< DX2 input */
 202:C:/Users/±è°æ¹Î/Desktop/IFX_S2GL-HW-SW_V1.1.3/Firmware_Software/DAVE project/S2GL_Doppler/Libraries/XMCLib/inc\xmc_usic.h ****   XMC_USIC_CH_INPUT_DX3, /**< DX3 input */
 203:C:/Users/±è°æ¹Î/Desktop/IFX_S2GL-HW-SW_V1.1.3/Firmware_Software/DAVE project/S2GL_Doppler/Libraries/XMCLib/inc\xmc_usic.h ****   XMC_USIC_CH_INPUT_DX4, /**< DX4 input */
 204:C:/Users/±è°æ¹Î/Desktop/IFX_S2GL-HW-SW_V1.1.3/Firmware_Software/DAVE project/S2GL_Doppler/Libraries/XMCLib/inc\xmc_usic.h ****   XMC_USIC_CH_INPUT_DX5  /**< DX5 input */
 205:C:/Users/±è°æ¹Î/Desktop/IFX_S2GL-HW-SW_V1.1.3/Firmware_Software/DAVE project/S2GL_Doppler/Libraries/XMCLib/inc\xmc_usic.h **** } XMC_USIC_CH_INPUT_t;
 206:C:/Users/±è°æ¹Î/Desktop/IFX_S2GL-HW-SW_V1.1.3/Firmware_Software/DAVE project/S2GL_Doppler/Libraries/XMCLib/inc\xmc_usic.h **** 
 207:C:/Users/±è°æ¹Î/Desktop/IFX_S2GL-HW-SW_V1.1.3/Firmware_Software/DAVE project/S2GL_Doppler/Libraries/XMCLib/inc\xmc_usic.h **** /**
 208:C:/Users/±è°æ¹Î/Desktop/IFX_S2GL-HW-SW_V1.1.3/Firmware_Software/DAVE project/S2GL_Doppler/Libraries/XMCLib/inc\xmc_usic.h ****  * USIC channel input source sampling frequency
 209:C:/Users/±è°æ¹Î/Desktop/IFX_S2GL-HW-SW_V1.1.3/Firmware_Software/DAVE project/S2GL_Doppler/Libraries/XMCLib/inc\xmc_usic.h ****  */
 210:C:/Users/±è°æ¹Î/Desktop/IFX_S2GL-HW-SW_V1.1.3/Firmware_Software/DAVE project/S2GL_Doppler/Libraries/XMCLib/inc\xmc_usic.h **** typedef enum XMC_USIC_CH_INPUT_SAMPLING_FREQ
 211:C:/Users/±è°æ¹Î/Desktop/IFX_S2GL-HW-SW_V1.1.3/Firmware_Software/DAVE project/S2GL_Doppler/Libraries/XMCLib/inc\xmc_usic.h **** {
 212:C:/Users/±è°æ¹Î/Desktop/IFX_S2GL-HW-SW_V1.1.3/Firmware_Software/DAVE project/S2GL_Doppler/Libraries/XMCLib/inc\xmc_usic.h ****   XMC_USIC_CH_INPUT_SAMPLING_FREQ_FPERIPH            = 0x0UL, /**< Use fperiph frequency for input 
 213:C:/Users/±è°æ¹Î/Desktop/IFX_S2GL-HW-SW_V1.1.3/Firmware_Software/DAVE project/S2GL_Doppler/Libraries/XMCLib/inc\xmc_usic.h ****   XMC_USIC_CH_INPUT_SAMPLING_FREQ_FRACTIONAL_DIVIDER = 0x1UL << USIC_CH_DXCR_SFSEL_Pos  /**< Use fF
 214:C:/Users/±è°æ¹Î/Desktop/IFX_S2GL-HW-SW_V1.1.3/Firmware_Software/DAVE project/S2GL_Doppler/Libraries/XMCLib/inc\xmc_usic.h **** } XMC_USIC_CH_INPUT_SAMPLING_FREQ_t;
 215:C:/Users/±è°æ¹Î/Desktop/IFX_S2GL-HW-SW_V1.1.3/Firmware_Software/DAVE project/S2GL_Doppler/Libraries/XMCLib/inc\xmc_usic.h **** 
 216:C:/Users/±è°æ¹Î/Desktop/IFX_S2GL-HW-SW_V1.1.3/Firmware_Software/DAVE project/S2GL_Doppler/Libraries/XMCLib/inc\xmc_usic.h **** /**
 217:C:/Users/±è°æ¹Î/Desktop/IFX_S2GL-HW-SW_V1.1.3/Firmware_Software/DAVE project/S2GL_Doppler/Libraries/XMCLib/inc\xmc_usic.h ****  * USIC channel input combination mode
 218:C:/Users/±è°æ¹Î/Desktop/IFX_S2GL-HW-SW_V1.1.3/Firmware_Software/DAVE project/S2GL_Doppler/Libraries/XMCLib/inc\xmc_usic.h ****  */
 219:C:/Users/±è°æ¹Î/Desktop/IFX_S2GL-HW-SW_V1.1.3/Firmware_Software/DAVE project/S2GL_Doppler/Libraries/XMCLib/inc\xmc_usic.h **** typedef enum XMC_USIC_CH_INPUT_COMBINATION_MODE
 220:C:/Users/±è°æ¹Î/Desktop/IFX_S2GL-HW-SW_V1.1.3/Firmware_Software/DAVE project/S2GL_Doppler/Libraries/XMCLib/inc\xmc_usic.h **** {
 221:C:/Users/±è°æ¹Î/Desktop/IFX_S2GL-HW-SW_V1.1.3/Firmware_Software/DAVE project/S2GL_Doppler/Libraries/XMCLib/inc\xmc_usic.h ****   XMC_USIC_CH_INPUT_COMBINATION_MODE_TRIGGER_DISABLED = 0x0UL, /**< The trigger activation is disab
 222:C:/Users/±è°æ¹Î/Desktop/IFX_S2GL-HW-SW_V1.1.3/Firmware_Software/DAVE project/S2GL_Doppler/Libraries/XMCLib/inc\xmc_usic.h ****   XMC_USIC_CH_INPUT_COMBINATION_MODE_RISING_EDGE      = 0x1UL, /**< A rising edge activates DXnT*/
 223:C:/Users/±è°æ¹Î/Desktop/IFX_S2GL-HW-SW_V1.1.3/Firmware_Software/DAVE project/S2GL_Doppler/Libraries/XMCLib/inc\xmc_usic.h ****   XMC_USIC_CH_INPUT_COMBINATION_MODE_FALLING_EDGE     = 0x2UL, /**< A falling edge activates DXnT*/
 224:C:/Users/±è°æ¹Î/Desktop/IFX_S2GL-HW-SW_V1.1.3/Firmware_Software/DAVE project/S2GL_Doppler/Libraries/XMCLib/inc\xmc_usic.h ****   XMC_USIC_CH_INPUT_COMBINATION_MODE_BOTH_EDGES       = 0x3UL, /**< Both edges activate DXnT*/
 225:C:/Users/±è°æ¹Î/Desktop/IFX_S2GL-HW-SW_V1.1.3/Firmware_Software/DAVE project/S2GL_Doppler/Libraries/XMCLib/inc\xmc_usic.h **** } XMC_USIC_CH_INPUT_COMBINATION_MODE_t;
 226:C:/Users/±è°æ¹Î/Desktop/IFX_S2GL-HW-SW_V1.1.3/Firmware_Software/DAVE project/S2GL_Doppler/Libraries/XMCLib/inc\xmc_usic.h **** 
 227:C:/Users/±è°æ¹Î/Desktop/IFX_S2GL-HW-SW_V1.1.3/Firmware_Software/DAVE project/S2GL_Doppler/Libraries/XMCLib/inc\xmc_usic.h **** /**
 228:C:/Users/±è°æ¹Î/Desktop/IFX_S2GL-HW-SW_V1.1.3/Firmware_Software/DAVE project/S2GL_Doppler/Libraries/XMCLib/inc\xmc_usic.h ****  * USIC channel data transmission start modes.
 229:C:/Users/±è°æ¹Î/Desktop/IFX_S2GL-HW-SW_V1.1.3/Firmware_Software/DAVE project/S2GL_Doppler/Libraries/XMCLib/inc\xmc_usic.h ****  * Data shifted out of the transmit pin depends on the value configured for the
 230:C:/Users/±è°æ¹Î/Desktop/IFX_S2GL-HW-SW_V1.1.3/Firmware_Software/DAVE project/S2GL_Doppler/Libraries/XMCLib/inc\xmc_usic.h ****  * TDEN bitfield of the TCSR register. Following enum values are used for configuring
 231:C:/Users/±è°æ¹Î/Desktop/IFX_S2GL-HW-SW_V1.1.3/Firmware_Software/DAVE project/S2GL_Doppler/Libraries/XMCLib/inc\xmc_usic.h ****  * the TCSR->TDEN bitfield.
 232:C:/Users/±è°æ¹Î/Desktop/IFX_S2GL-HW-SW_V1.1.3/Firmware_Software/DAVE project/S2GL_Doppler/Libraries/XMCLib/inc\xmc_usic.h ****  */
 233:C:/Users/±è°æ¹Î/Desktop/IFX_S2GL-HW-SW_V1.1.3/Firmware_Software/DAVE project/S2GL_Doppler/Libraries/XMCLib/inc\xmc_usic.h **** typedef enum XMC_USIC_CH_START_TRANSMISION_MODE
 234:C:/Users/±è°æ¹Î/Desktop/IFX_S2GL-HW-SW_V1.1.3/Firmware_Software/DAVE project/S2GL_Doppler/Libraries/XMCLib/inc\xmc_usic.h **** {
 235:C:/Users/±è°æ¹Î/Desktop/IFX_S2GL-HW-SW_V1.1.3/Firmware_Software/DAVE project/S2GL_Doppler/Libraries/XMCLib/inc\xmc_usic.h ****   XMC_USIC_CH_START_TRANSMISION_DISABLED      = 0x0U, /**< Passive data level is sent out on transm
 236:C:/Users/±è°æ¹Î/Desktop/IFX_S2GL-HW-SW_V1.1.3/Firmware_Software/DAVE project/S2GL_Doppler/Libraries/XMCLib/inc\xmc_usic.h ****   XMC_USIC_CH_START_TRANSMISION_ON_TDV        = 0x1UL << USIC_CH_TCSR_TDEN_Pos, /**< Transmission o
 237:C:/Users/±è°æ¹Î/Desktop/IFX_S2GL-HW-SW_V1.1.3/Firmware_Software/DAVE project/S2GL_Doppler/Libraries/XMCLib/inc\xmc_usic.h ****   XMC_USIC_CH_START_TRANSMISION_ON_TDV_DX2S_0 = 0x2UL << USIC_CH_TCSR_TDEN_Pos, /**< Transmission o
 238:C:/Users/±è°æ¹Î/Desktop/IFX_S2GL-HW-SW_V1.1.3/Firmware_Software/DAVE project/S2GL_Doppler/Libraries/XMCLib/inc\xmc_usic.h ****   XMC_USIC_CH_START_TRANSMISION_ON_TDV_DX2S_1 = 0x3UL << USIC_CH_TCSR_TDEN_Pos  /**< Transmission o
 239:C:/Users/±è°æ¹Î/Desktop/IFX_S2GL-HW-SW_V1.1.3/Firmware_Software/DAVE project/S2GL_Doppler/Libraries/XMCLib/inc\xmc_usic.h **** } XMC_USIC_CH_START_TRANSMISION_MODE_t;
 240:C:/Users/±è°æ¹Î/Desktop/IFX_S2GL-HW-SW_V1.1.3/Firmware_Software/DAVE project/S2GL_Doppler/Libraries/XMCLib/inc\xmc_usic.h **** 
 241:C:/Users/±è°æ¹Î/Desktop/IFX_S2GL-HW-SW_V1.1.3/Firmware_Software/DAVE project/S2GL_Doppler/Libraries/XMCLib/inc\xmc_usic.h **** /**
 242:C:/Users/±è°æ¹Î/Desktop/IFX_S2GL-HW-SW_V1.1.3/Firmware_Software/DAVE project/S2GL_Doppler/Libraries/XMCLib/inc\xmc_usic.h ****  * USIC channel interrupt node pointers
 243:C:/Users/±è°æ¹Î/Desktop/IFX_S2GL-HW-SW_V1.1.3/Firmware_Software/DAVE project/S2GL_Doppler/Libraries/XMCLib/inc\xmc_usic.h ****  */
 244:C:/Users/±è°æ¹Î/Desktop/IFX_S2GL-HW-SW_V1.1.3/Firmware_Software/DAVE project/S2GL_Doppler/Libraries/XMCLib/inc\xmc_usic.h **** typedef enum XMC_USIC_CH_INTERRUPT_NODE_POINTER
 245:C:/Users/±è°æ¹Î/Desktop/IFX_S2GL-HW-SW_V1.1.3/Firmware_Software/DAVE project/S2GL_Doppler/Libraries/XMCLib/inc\xmc_usic.h **** {
 246:C:/Users/±è°æ¹Î/Desktop/IFX_S2GL-HW-SW_V1.1.3/Firmware_Software/DAVE project/S2GL_Doppler/Libraries/XMCLib/inc\xmc_usic.h ****   XMC_USIC_CH_INTERRUPT_NODE_POINTER_TRANSMIT_SHIFT      = USIC_CH_INPR_TSINP_Pos, /**< Node pointe
 247:C:/Users/±è°æ¹Î/Desktop/IFX_S2GL-HW-SW_V1.1.3/Firmware_Software/DAVE project/S2GL_Doppler/Libraries/XMCLib/inc\xmc_usic.h ****   XMC_USIC_CH_INTERRUPT_NODE_POINTER_TRANSMIT_BUFFER     = USIC_CH_INPR_TBINP_Pos, /**< Node pointe
 248:C:/Users/±è°æ¹Î/Desktop/IFX_S2GL-HW-SW_V1.1.3/Firmware_Software/DAVE project/S2GL_Doppler/Libraries/XMCLib/inc\xmc_usic.h ****   XMC_USIC_CH_INTERRUPT_NODE_POINTER_RECEIVE             = USIC_CH_INPR_RINP_Pos,  /**< Node pointe
 249:C:/Users/±è°æ¹Î/Desktop/IFX_S2GL-HW-SW_V1.1.3/Firmware_Software/DAVE project/S2GL_Doppler/Libraries/XMCLib/inc\xmc_usic.h ****   XMC_USIC_CH_INTERRUPT_NODE_POINTER_ALTERNATE_RECEIVE   = USIC_CH_INPR_AINP_Pos,  /**< Node pointe
 250:C:/Users/±è°æ¹Î/Desktop/IFX_S2GL-HW-SW_V1.1.3/Firmware_Software/DAVE project/S2GL_Doppler/Libraries/XMCLib/inc\xmc_usic.h ****   XMC_USIC_CH_INTERRUPT_NODE_POINTER_PROTOCOL            = USIC_CH_INPR_PINP_Pos   /**< Node pointe
 251:C:/Users/±è°æ¹Î/Desktop/IFX_S2GL-HW-SW_V1.1.3/Firmware_Software/DAVE project/S2GL_Doppler/Libraries/XMCLib/inc\xmc_usic.h **** } XMC_USIC_CH_INTERRUPT_NODE_POINTER_t;
 252:C:/Users/±è°æ¹Î/Desktop/IFX_S2GL-HW-SW_V1.1.3/Firmware_Software/DAVE project/S2GL_Doppler/Libraries/XMCLib/inc\xmc_usic.h **** 
 253:C:/Users/±è°æ¹Î/Desktop/IFX_S2GL-HW-SW_V1.1.3/Firmware_Software/DAVE project/S2GL_Doppler/Libraries/XMCLib/inc\xmc_usic.h **** /**
 254:C:/Users/±è°æ¹Î/Desktop/IFX_S2GL-HW-SW_V1.1.3/Firmware_Software/DAVE project/S2GL_Doppler/Libraries/XMCLib/inc\xmc_usic.h ****  * USIC channel events
 255:C:/Users/±è°æ¹Î/Desktop/IFX_S2GL-HW-SW_V1.1.3/Firmware_Software/DAVE project/S2GL_Doppler/Libraries/XMCLib/inc\xmc_usic.h ****  */
 256:C:/Users/±è°æ¹Î/Desktop/IFX_S2GL-HW-SW_V1.1.3/Firmware_Software/DAVE project/S2GL_Doppler/Libraries/XMCLib/inc\xmc_usic.h **** typedef enum XMC_USIC_CH_EVENT
 257:C:/Users/±è°æ¹Î/Desktop/IFX_S2GL-HW-SW_V1.1.3/Firmware_Software/DAVE project/S2GL_Doppler/Libraries/XMCLib/inc\xmc_usic.h **** {
 258:C:/Users/±è°æ¹Î/Desktop/IFX_S2GL-HW-SW_V1.1.3/Firmware_Software/DAVE project/S2GL_Doppler/Libraries/XMCLib/inc\xmc_usic.h ****   XMC_USIC_CH_EVENT_RECEIVE_START       = USIC_CH_CCR_RSIEN_Msk, /**< Receive start event */
 259:C:/Users/±è°æ¹Î/Desktop/IFX_S2GL-HW-SW_V1.1.3/Firmware_Software/DAVE project/S2GL_Doppler/Libraries/XMCLib/inc\xmc_usic.h ****   XMC_USIC_CH_EVENT_DATA_LOST           = USIC_CH_CCR_DLIEN_Msk, /**< Data lost event */
 260:C:/Users/±è°æ¹Î/Desktop/IFX_S2GL-HW-SW_V1.1.3/Firmware_Software/DAVE project/S2GL_Doppler/Libraries/XMCLib/inc\xmc_usic.h ****   XMC_USIC_CH_EVENT_TRANSMIT_SHIFT      = USIC_CH_CCR_TSIEN_Msk, /**< Transmit shift event */
 261:C:/Users/±è°æ¹Î/Desktop/IFX_S2GL-HW-SW_V1.1.3/Firmware_Software/DAVE project/S2GL_Doppler/Libraries/XMCLib/inc\xmc_usic.h ****   XMC_USIC_CH_EVENT_TRANSMIT_BUFFER     = USIC_CH_CCR_TBIEN_Msk, /**< Transmit buffer event */
 262:C:/Users/±è°æ¹Î/Desktop/IFX_S2GL-HW-SW_V1.1.3/Firmware_Software/DAVE project/S2GL_Doppler/Libraries/XMCLib/inc\xmc_usic.h ****   XMC_USIC_CH_EVENT_STANDARD_RECEIVE    = USIC_CH_CCR_RIEN_Msk,  /**< Receive event */
 263:C:/Users/±è°æ¹Î/Desktop/IFX_S2GL-HW-SW_V1.1.3/Firmware_Software/DAVE project/S2GL_Doppler/Libraries/XMCLib/inc\xmc_usic.h ****   XMC_USIC_CH_EVENT_ALTERNATIVE_RECEIVE = USIC_CH_CCR_AIEN_Msk,  /**< Alternate receive event */
 264:C:/Users/±è°æ¹Î/Desktop/IFX_S2GL-HW-SW_V1.1.3/Firmware_Software/DAVE project/S2GL_Doppler/Libraries/XMCLib/inc\xmc_usic.h ****   XMC_USIC_CH_EVENT_BAUD_RATE_GENERATOR = USIC_CH_CCR_BRGIEN_Msk /**< Baudrate generator event */
 265:C:/Users/±è°æ¹Î/Desktop/IFX_S2GL-HW-SW_V1.1.3/Firmware_Software/DAVE project/S2GL_Doppler/Libraries/XMCLib/inc\xmc_usic.h **** } XMC_USIC_CH_EVENT_t;
 266:C:/Users/±è°æ¹Î/Desktop/IFX_S2GL-HW-SW_V1.1.3/Firmware_Software/DAVE project/S2GL_Doppler/Libraries/XMCLib/inc\xmc_usic.h **** 
 267:C:/Users/±è°æ¹Î/Desktop/IFX_S2GL-HW-SW_V1.1.3/Firmware_Software/DAVE project/S2GL_Doppler/Libraries/XMCLib/inc\xmc_usic.h **** /**
 268:C:/Users/±è°æ¹Î/Desktop/IFX_S2GL-HW-SW_V1.1.3/Firmware_Software/DAVE project/S2GL_Doppler/Libraries/XMCLib/inc\xmc_usic.h **** * USIC channel parity mode
 269:C:/Users/±è°æ¹Î/Desktop/IFX_S2GL-HW-SW_V1.1.3/Firmware_Software/DAVE project/S2GL_Doppler/Libraries/XMCLib/inc\xmc_usic.h **** */
 270:C:/Users/±è°æ¹Î/Desktop/IFX_S2GL-HW-SW_V1.1.3/Firmware_Software/DAVE project/S2GL_Doppler/Libraries/XMCLib/inc\xmc_usic.h **** typedef enum XMC_USIC_CH_PARITY_MODE
 271:C:/Users/±è°æ¹Î/Desktop/IFX_S2GL-HW-SW_V1.1.3/Firmware_Software/DAVE project/S2GL_Doppler/Libraries/XMCLib/inc\xmc_usic.h **** {
 272:C:/Users/±è°æ¹Î/Desktop/IFX_S2GL-HW-SW_V1.1.3/Firmware_Software/DAVE project/S2GL_Doppler/Libraries/XMCLib/inc\xmc_usic.h ****   XMC_USIC_CH_PARITY_MODE_NONE     = 0x0UL,  /**< Disable parity mode */
 273:C:/Users/±è°æ¹Î/Desktop/IFX_S2GL-HW-SW_V1.1.3/Firmware_Software/DAVE project/S2GL_Doppler/Libraries/XMCLib/inc\xmc_usic.h ****   XMC_USIC_CH_PARITY_MODE_EVEN     = 0x2UL << USIC_CH_CCR_PM_Pos,  /**< Enable even parity mode */
 274:C:/Users/±è°æ¹Î/Desktop/IFX_S2GL-HW-SW_V1.1.3/Firmware_Software/DAVE project/S2GL_Doppler/Libraries/XMCLib/inc\xmc_usic.h ****   XMC_USIC_CH_PARITY_MODE_ODD      = 0x3UL << USIC_CH_CCR_PM_Pos   /**< Enable odd parity mode */
 275:C:/Users/±è°æ¹Î/Desktop/IFX_S2GL-HW-SW_V1.1.3/Firmware_Software/DAVE project/S2GL_Doppler/Libraries/XMCLib/inc\xmc_usic.h **** } XMC_USIC_CH_PARITY_MODE_t;
 276:C:/Users/±è°æ¹Î/Desktop/IFX_S2GL-HW-SW_V1.1.3/Firmware_Software/DAVE project/S2GL_Doppler/Libraries/XMCLib/inc\xmc_usic.h **** 
 277:C:/Users/±è°æ¹Î/Desktop/IFX_S2GL-HW-SW_V1.1.3/Firmware_Software/DAVE project/S2GL_Doppler/Libraries/XMCLib/inc\xmc_usic.h **** /**
 278:C:/Users/±è°æ¹Î/Desktop/IFX_S2GL-HW-SW_V1.1.3/Firmware_Software/DAVE project/S2GL_Doppler/Libraries/XMCLib/inc\xmc_usic.h **** * USIC channel data output mode
 279:C:/Users/±è°æ¹Î/Desktop/IFX_S2GL-HW-SW_V1.1.3/Firmware_Software/DAVE project/S2GL_Doppler/Libraries/XMCLib/inc\xmc_usic.h **** */
 280:C:/Users/±è°æ¹Î/Desktop/IFX_S2GL-HW-SW_V1.1.3/Firmware_Software/DAVE project/S2GL_Doppler/Libraries/XMCLib/inc\xmc_usic.h **** typedef enum XMC_USIC_CH_DATA_OUTPUT_MODE
 281:C:/Users/±è°æ¹Î/Desktop/IFX_S2GL-HW-SW_V1.1.3/Firmware_Software/DAVE project/S2GL_Doppler/Libraries/XMCLib/inc\xmc_usic.h **** {
 282:C:/Users/±è°æ¹Î/Desktop/IFX_S2GL-HW-SW_V1.1.3/Firmware_Software/DAVE project/S2GL_Doppler/Libraries/XMCLib/inc\xmc_usic.h ****   XMC_USIC_CH_DATA_OUTPUT_MODE_NORMAL   = 0x0UL,  /**< Data output normal mode */
 283:C:/Users/±è°æ¹Î/Desktop/IFX_S2GL-HW-SW_V1.1.3/Firmware_Software/DAVE project/S2GL_Doppler/Libraries/XMCLib/inc\xmc_usic.h ****   XMC_USIC_CH_DATA_OUTPUT_MODE_INVERTED = 0x1UL << USIC_CH_SCTR_DOCFG_Pos   /**< Data output invert
 284:C:/Users/±è°æ¹Î/Desktop/IFX_S2GL-HW-SW_V1.1.3/Firmware_Software/DAVE project/S2GL_Doppler/Libraries/XMCLib/inc\xmc_usic.h **** } XMC_USIC_CH_DATA_OUTPUT_MODE_t;
 285:C:/Users/±è°æ¹Î/Desktop/IFX_S2GL-HW-SW_V1.1.3/Firmware_Software/DAVE project/S2GL_Doppler/Libraries/XMCLib/inc\xmc_usic.h **** 
 286:C:/Users/±è°æ¹Î/Desktop/IFX_S2GL-HW-SW_V1.1.3/Firmware_Software/DAVE project/S2GL_Doppler/Libraries/XMCLib/inc\xmc_usic.h **** /**
 287:C:/Users/±è°æ¹Î/Desktop/IFX_S2GL-HW-SW_V1.1.3/Firmware_Software/DAVE project/S2GL_Doppler/Libraries/XMCLib/inc\xmc_usic.h **** * USIC channel data transmit buffer status
 288:C:/Users/±è°æ¹Î/Desktop/IFX_S2GL-HW-SW_V1.1.3/Firmware_Software/DAVE project/S2GL_Doppler/Libraries/XMCLib/inc\xmc_usic.h **** */
 289:C:/Users/±è°æ¹Î/Desktop/IFX_S2GL-HW-SW_V1.1.3/Firmware_Software/DAVE project/S2GL_Doppler/Libraries/XMCLib/inc\xmc_usic.h **** typedef enum XMC_USIC_CH_TBUF_STATUS
 290:C:/Users/±è°æ¹Î/Desktop/IFX_S2GL-HW-SW_V1.1.3/Firmware_Software/DAVE project/S2GL_Doppler/Libraries/XMCLib/inc\xmc_usic.h **** {
 291:C:/Users/±è°æ¹Î/Desktop/IFX_S2GL-HW-SW_V1.1.3/Firmware_Software/DAVE project/S2GL_Doppler/Libraries/XMCLib/inc\xmc_usic.h ****   XMC_USIC_CH_TBUF_STATUS_IDLE = 0x0UL,                 /**< Transfer buffer is currently idle*/
 292:C:/Users/±è°æ¹Î/Desktop/IFX_S2GL-HW-SW_V1.1.3/Firmware_Software/DAVE project/S2GL_Doppler/Libraries/XMCLib/inc\xmc_usic.h ****   XMC_USIC_CH_TBUF_STATUS_BUSY = USIC_CH_TCSR_TDV_Msk   /**< Transfer buffer is currently busy*/
 293:C:/Users/±è°æ¹Î/Desktop/IFX_S2GL-HW-SW_V1.1.3/Firmware_Software/DAVE project/S2GL_Doppler/Libraries/XMCLib/inc\xmc_usic.h **** } XMC_USIC_CH_TBUF_STATUS_t;
 294:C:/Users/±è°æ¹Î/Desktop/IFX_S2GL-HW-SW_V1.1.3/Firmware_Software/DAVE project/S2GL_Doppler/Libraries/XMCLib/inc\xmc_usic.h **** 
 295:C:/Users/±è°æ¹Î/Desktop/IFX_S2GL-HW-SW_V1.1.3/Firmware_Software/DAVE project/S2GL_Doppler/Libraries/XMCLib/inc\xmc_usic.h **** 
 296:C:/Users/±è°æ¹Î/Desktop/IFX_S2GL-HW-SW_V1.1.3/Firmware_Software/DAVE project/S2GL_Doppler/Libraries/XMCLib/inc\xmc_usic.h **** 
 297:C:/Users/±è°æ¹Î/Desktop/IFX_S2GL-HW-SW_V1.1.3/Firmware_Software/DAVE project/S2GL_Doppler/Libraries/XMCLib/inc\xmc_usic.h **** /**
 298:C:/Users/±è°æ¹Î/Desktop/IFX_S2GL-HW-SW_V1.1.3/Firmware_Software/DAVE project/S2GL_Doppler/Libraries/XMCLib/inc\xmc_usic.h **** * USIC channel data transmit buffer status modification
 299:C:/Users/±è°æ¹Î/Desktop/IFX_S2GL-HW-SW_V1.1.3/Firmware_Software/DAVE project/S2GL_Doppler/Libraries/XMCLib/inc\xmc_usic.h **** */
 300:C:/Users/±è°æ¹Î/Desktop/IFX_S2GL-HW-SW_V1.1.3/Firmware_Software/DAVE project/S2GL_Doppler/Libraries/XMCLib/inc\xmc_usic.h **** typedef enum XMC_USIC_CH_TBUF_STATUS_SET
 301:C:/Users/±è°æ¹Î/Desktop/IFX_S2GL-HW-SW_V1.1.3/Firmware_Software/DAVE project/S2GL_Doppler/Libraries/XMCLib/inc\xmc_usic.h **** {
 302:C:/Users/±è°æ¹Î/Desktop/IFX_S2GL-HW-SW_V1.1.3/Firmware_Software/DAVE project/S2GL_Doppler/Libraries/XMCLib/inc\xmc_usic.h ****   XMC_USIC_CH_TBUF_STATUS_SET_BUSY   = 0x1UL, /**< Set Transfer buffer status to busy*/
 303:C:/Users/±è°æ¹Î/Desktop/IFX_S2GL-HW-SW_V1.1.3/Firmware_Software/DAVE project/S2GL_Doppler/Libraries/XMCLib/inc\xmc_usic.h ****   XMC_USIC_CH_TBUF_STATUS_SET_IDLE   = 0x2UL  /**< Set Transfer buffer status to idle*/
 304:C:/Users/±è°æ¹Î/Desktop/IFX_S2GL-HW-SW_V1.1.3/Firmware_Software/DAVE project/S2GL_Doppler/Libraries/XMCLib/inc\xmc_usic.h **** } XMC_USIC_CH_TBUF_STATUS_SET_t;
 305:C:/Users/±è°æ¹Î/Desktop/IFX_S2GL-HW-SW_V1.1.3/Firmware_Software/DAVE project/S2GL_Doppler/Libraries/XMCLib/inc\xmc_usic.h **** 
 306:C:/Users/±è°æ¹Î/Desktop/IFX_S2GL-HW-SW_V1.1.3/Firmware_Software/DAVE project/S2GL_Doppler/Libraries/XMCLib/inc\xmc_usic.h **** /**
 307:C:/Users/±è°æ¹Î/Desktop/IFX_S2GL-HW-SW_V1.1.3/Firmware_Software/DAVE project/S2GL_Doppler/Libraries/XMCLib/inc\xmc_usic.h **** * USIC channel receive buffer status
 308:C:/Users/±è°æ¹Î/Desktop/IFX_S2GL-HW-SW_V1.1.3/Firmware_Software/DAVE project/S2GL_Doppler/Libraries/XMCLib/inc\xmc_usic.h **** */
 309:C:/Users/±è°æ¹Î/Desktop/IFX_S2GL-HW-SW_V1.1.3/Firmware_Software/DAVE project/S2GL_Doppler/Libraries/XMCLib/inc\xmc_usic.h **** typedef enum XMC_USIC_CH_RBUF_STATUS
 310:C:/Users/±è°æ¹Î/Desktop/IFX_S2GL-HW-SW_V1.1.3/Firmware_Software/DAVE project/S2GL_Doppler/Libraries/XMCLib/inc\xmc_usic.h **** {
 311:C:/Users/±è°æ¹Î/Desktop/IFX_S2GL-HW-SW_V1.1.3/Firmware_Software/DAVE project/S2GL_Doppler/Libraries/XMCLib/inc\xmc_usic.h ****   XMC_USIC_CH_RBUF_STATUS_DATA_VALID0 = USIC_CH_RBUFSR_RDV0_Msk, /**< RBUF0 data has not yet been r
 312:C:/Users/±è°æ¹Î/Desktop/IFX_S2GL-HW-SW_V1.1.3/Firmware_Software/DAVE project/S2GL_Doppler/Libraries/XMCLib/inc\xmc_usic.h ****   XMC_USIC_CH_RBUF_STATUS_DATA_VALID1 = USIC_CH_RBUFSR_RDV1_Msk  /**< RBUF1 data has not yet been r
 313:C:/Users/±è°æ¹Î/Desktop/IFX_S2GL-HW-SW_V1.1.3/Firmware_Software/DAVE project/S2GL_Doppler/Libraries/XMCLib/inc\xmc_usic.h **** } XMC_USIC_CH_RBUF_STATUS_t;
 314:C:/Users/±è°æ¹Î/Desktop/IFX_S2GL-HW-SW_V1.1.3/Firmware_Software/DAVE project/S2GL_Doppler/Libraries/XMCLib/inc\xmc_usic.h **** 
 315:C:/Users/±è°æ¹Î/Desktop/IFX_S2GL-HW-SW_V1.1.3/Firmware_Software/DAVE project/S2GL_Doppler/Libraries/XMCLib/inc\xmc_usic.h **** /**
 316:C:/Users/±è°æ¹Î/Desktop/IFX_S2GL-HW-SW_V1.1.3/Firmware_Software/DAVE project/S2GL_Doppler/Libraries/XMCLib/inc\xmc_usic.h ****  * USIC channel output signal passive data level
 317:C:/Users/±è°æ¹Î/Desktop/IFX_S2GL-HW-SW_V1.1.3/Firmware_Software/DAVE project/S2GL_Doppler/Libraries/XMCLib/inc\xmc_usic.h **** */
 318:C:/Users/±è°æ¹Î/Desktop/IFX_S2GL-HW-SW_V1.1.3/Firmware_Software/DAVE project/S2GL_Doppler/Libraries/XMCLib/inc\xmc_usic.h **** typedef enum XMC_USCI_CH_PASSIVE_DATA_LEVEL
 319:C:/Users/±è°æ¹Î/Desktop/IFX_S2GL-HW-SW_V1.1.3/Firmware_Software/DAVE project/S2GL_Doppler/Libraries/XMCLib/inc\xmc_usic.h **** {
 320:C:/Users/±è°æ¹Î/Desktop/IFX_S2GL-HW-SW_V1.1.3/Firmware_Software/DAVE project/S2GL_Doppler/Libraries/XMCLib/inc\xmc_usic.h ****   XMC_USIC_CH_PASSIVE_DATA_LEVEL0 = 0x0UL, /**< Passive level(idle mode signal level) 0 */
 321:C:/Users/±è°æ¹Î/Desktop/IFX_S2GL-HW-SW_V1.1.3/Firmware_Software/DAVE project/S2GL_Doppler/Libraries/XMCLib/inc\xmc_usic.h ****   XMC_USIC_CH_PASSIVE_DATA_LEVEL1 = 0x1UL << USIC_CH_SCTR_PDL_Pos  /**< Passive level(idle mode sig
 322:C:/Users/±è°æ¹Î/Desktop/IFX_S2GL-HW-SW_V1.1.3/Firmware_Software/DAVE project/S2GL_Doppler/Libraries/XMCLib/inc\xmc_usic.h **** } XMC_USIC_CH_PASSIVE_DATA_LEVEL_t;
 323:C:/Users/±è°æ¹Î/Desktop/IFX_S2GL-HW-SW_V1.1.3/Firmware_Software/DAVE project/S2GL_Doppler/Libraries/XMCLib/inc\xmc_usic.h **** 
 324:C:/Users/±è°æ¹Î/Desktop/IFX_S2GL-HW-SW_V1.1.3/Firmware_Software/DAVE project/S2GL_Doppler/Libraries/XMCLib/inc\xmc_usic.h **** /**
 325:C:/Users/±è°æ¹Î/Desktop/IFX_S2GL-HW-SW_V1.1.3/Firmware_Software/DAVE project/S2GL_Doppler/Libraries/XMCLib/inc\xmc_usic.h **** * USIC channel receive FIFO size
 326:C:/Users/±è°æ¹Î/Desktop/IFX_S2GL-HW-SW_V1.1.3/Firmware_Software/DAVE project/S2GL_Doppler/Libraries/XMCLib/inc\xmc_usic.h **** */
 327:C:/Users/±è°æ¹Î/Desktop/IFX_S2GL-HW-SW_V1.1.3/Firmware_Software/DAVE project/S2GL_Doppler/Libraries/XMCLib/inc\xmc_usic.h **** typedef enum XMC_USIC_CH_FIFO_SIZE
 328:C:/Users/±è°æ¹Î/Desktop/IFX_S2GL-HW-SW_V1.1.3/Firmware_Software/DAVE project/S2GL_Doppler/Libraries/XMCLib/inc\xmc_usic.h **** {
 329:C:/Users/±è°æ¹Î/Desktop/IFX_S2GL-HW-SW_V1.1.3/Firmware_Software/DAVE project/S2GL_Doppler/Libraries/XMCLib/inc\xmc_usic.h ****   XMC_USIC_CH_FIFO_DISABLED     = 0x0U,  /**< FIFO Disabled */
 330:C:/Users/±è°æ¹Î/Desktop/IFX_S2GL-HW-SW_V1.1.3/Firmware_Software/DAVE project/S2GL_Doppler/Libraries/XMCLib/inc\xmc_usic.h ****   XMC_USIC_CH_FIFO_SIZE_2WORDS  = 0x1U,  /**< FIFO size: 2 words */
 331:C:/Users/±è°æ¹Î/Desktop/IFX_S2GL-HW-SW_V1.1.3/Firmware_Software/DAVE project/S2GL_Doppler/Libraries/XMCLib/inc\xmc_usic.h ****   XMC_USIC_CH_FIFO_SIZE_4WORDS  = 0x2U,  /**< FIFO size: 4 words */
 332:C:/Users/±è°æ¹Î/Desktop/IFX_S2GL-HW-SW_V1.1.3/Firmware_Software/DAVE project/S2GL_Doppler/Libraries/XMCLib/inc\xmc_usic.h ****   XMC_USIC_CH_FIFO_SIZE_8WORDS  = 0x3U,  /**< FIFO size: 8 words */
 333:C:/Users/±è°æ¹Î/Desktop/IFX_S2GL-HW-SW_V1.1.3/Firmware_Software/DAVE project/S2GL_Doppler/Libraries/XMCLib/inc\xmc_usic.h ****   XMC_USIC_CH_FIFO_SIZE_16WORDS = 0x4U,  /**< FIFO size: 16 words */
 334:C:/Users/±è°æ¹Î/Desktop/IFX_S2GL-HW-SW_V1.1.3/Firmware_Software/DAVE project/S2GL_Doppler/Libraries/XMCLib/inc\xmc_usic.h ****   XMC_USIC_CH_FIFO_SIZE_32WORDS = 0x5U,  /**< FIFO size: 32 words */
 335:C:/Users/±è°æ¹Î/Desktop/IFX_S2GL-HW-SW_V1.1.3/Firmware_Software/DAVE project/S2GL_Doppler/Libraries/XMCLib/inc\xmc_usic.h ****   XMC_USIC_CH_FIFO_SIZE_64WORDS = 0x6U   /**< FIFO size: 64 words */
 336:C:/Users/±è°æ¹Î/Desktop/IFX_S2GL-HW-SW_V1.1.3/Firmware_Software/DAVE project/S2GL_Doppler/Libraries/XMCLib/inc\xmc_usic.h **** } XMC_USIC_CH_FIFO_SIZE_t;
 337:C:/Users/±è°æ¹Î/Desktop/IFX_S2GL-HW-SW_V1.1.3/Firmware_Software/DAVE project/S2GL_Doppler/Libraries/XMCLib/inc\xmc_usic.h **** 
 338:C:/Users/±è°æ¹Î/Desktop/IFX_S2GL-HW-SW_V1.1.3/Firmware_Software/DAVE project/S2GL_Doppler/Libraries/XMCLib/inc\xmc_usic.h **** /**
 339:C:/Users/±è°æ¹Î/Desktop/IFX_S2GL-HW-SW_V1.1.3/Firmware_Software/DAVE project/S2GL_Doppler/Libraries/XMCLib/inc\xmc_usic.h **** * USIC channel transmit FIFO interrupt node pointers
 340:C:/Users/±è°æ¹Î/Desktop/IFX_S2GL-HW-SW_V1.1.3/Firmware_Software/DAVE project/S2GL_Doppler/Libraries/XMCLib/inc\xmc_usic.h **** */
 341:C:/Users/±è°æ¹Î/Desktop/IFX_S2GL-HW-SW_V1.1.3/Firmware_Software/DAVE project/S2GL_Doppler/Libraries/XMCLib/inc\xmc_usic.h **** typedef enum XMC_USIC_CH_TXFIFO_INTERRUPT_NODE_POINTER
 342:C:/Users/±è°æ¹Î/Desktop/IFX_S2GL-HW-SW_V1.1.3/Firmware_Software/DAVE project/S2GL_Doppler/Libraries/XMCLib/inc\xmc_usic.h **** {
 343:C:/Users/±è°æ¹Î/Desktop/IFX_S2GL-HW-SW_V1.1.3/Firmware_Software/DAVE project/S2GL_Doppler/Libraries/XMCLib/inc\xmc_usic.h ****   XMC_USIC_CH_TXFIFO_INTERRUPT_NODE_POINTER_STANDARD  = USIC_CH_TBCTR_STBINP_Pos,  /**< Node pointe
 344:C:/Users/±è°æ¹Î/Desktop/IFX_S2GL-HW-SW_V1.1.3/Firmware_Software/DAVE project/S2GL_Doppler/Libraries/XMCLib/inc\xmc_usic.h ****   XMC_USIC_CH_TXFIFO_INTERRUPT_NODE_POINTER_ALTERNATE = USIC_CH_TBCTR_ATBINP_Pos   /**< Node pointe
 345:C:/Users/±è°æ¹Î/Desktop/IFX_S2GL-HW-SW_V1.1.3/Firmware_Software/DAVE project/S2GL_Doppler/Libraries/XMCLib/inc\xmc_usic.h **** } XMC_USIC_CH_TXFIFO_INTERRUPT_NODE_POINTER_t;
 346:C:/Users/±è°æ¹Î/Desktop/IFX_S2GL-HW-SW_V1.1.3/Firmware_Software/DAVE project/S2GL_Doppler/Libraries/XMCLib/inc\xmc_usic.h **** 
 347:C:/Users/±è°æ¹Î/Desktop/IFX_S2GL-HW-SW_V1.1.3/Firmware_Software/DAVE project/S2GL_Doppler/Libraries/XMCLib/inc\xmc_usic.h **** /**
 348:C:/Users/±è°æ¹Î/Desktop/IFX_S2GL-HW-SW_V1.1.3/Firmware_Software/DAVE project/S2GL_Doppler/Libraries/XMCLib/inc\xmc_usic.h **** * USIC channel transmit FIFO event configuration
 349:C:/Users/±è°æ¹Î/Desktop/IFX_S2GL-HW-SW_V1.1.3/Firmware_Software/DAVE project/S2GL_Doppler/Libraries/XMCLib/inc\xmc_usic.h **** */
 350:C:/Users/±è°æ¹Î/Desktop/IFX_S2GL-HW-SW_V1.1.3/Firmware_Software/DAVE project/S2GL_Doppler/Libraries/XMCLib/inc\xmc_usic.h **** typedef enum XMC_USIC_CH_TXFIFO_EVENT_CONF
 351:C:/Users/±è°æ¹Î/Desktop/IFX_S2GL-HW-SW_V1.1.3/Firmware_Software/DAVE project/S2GL_Doppler/Libraries/XMCLib/inc\xmc_usic.h **** {
 352:C:/Users/±è°æ¹Î/Desktop/IFX_S2GL-HW-SW_V1.1.3/Firmware_Software/DAVE project/S2GL_Doppler/Libraries/XMCLib/inc\xmc_usic.h ****   XMC_USIC_CH_TXFIFO_EVENT_CONF_STANDARD  = USIC_CH_TBCTR_STBIEN_Msk,   /**< Enable FIFO standard t
 353:C:/Users/±è°æ¹Î/Desktop/IFX_S2GL-HW-SW_V1.1.3/Firmware_Software/DAVE project/S2GL_Doppler/Libraries/XMCLib/inc\xmc_usic.h ****   XMC_USIC_CH_TXFIFO_EVENT_CONF_ERROR     = (int32_t)USIC_CH_TBCTR_TBERIEN_Msk  /**< Enable transmi
 354:C:/Users/±è°æ¹Î/Desktop/IFX_S2GL-HW-SW_V1.1.3/Firmware_Software/DAVE project/S2GL_Doppler/Libraries/XMCLib/inc\xmc_usic.h **** } XMC_USIC_CH_TXFIFO_EVENT_CONF_t;
 355:C:/Users/±è°æ¹Î/Desktop/IFX_S2GL-HW-SW_V1.1.3/Firmware_Software/DAVE project/S2GL_Doppler/Libraries/XMCLib/inc\xmc_usic.h **** 
 356:C:/Users/±è°æ¹Î/Desktop/IFX_S2GL-HW-SW_V1.1.3/Firmware_Software/DAVE project/S2GL_Doppler/Libraries/XMCLib/inc\xmc_usic.h **** /**
 357:C:/Users/±è°æ¹Î/Desktop/IFX_S2GL-HW-SW_V1.1.3/Firmware_Software/DAVE project/S2GL_Doppler/Libraries/XMCLib/inc\xmc_usic.h **** * USIC channel transmit FIFO status
 358:C:/Users/±è°æ¹Î/Desktop/IFX_S2GL-HW-SW_V1.1.3/Firmware_Software/DAVE project/S2GL_Doppler/Libraries/XMCLib/inc\xmc_usic.h **** */
 359:C:/Users/±è°æ¹Î/Desktop/IFX_S2GL-HW-SW_V1.1.3/Firmware_Software/DAVE project/S2GL_Doppler/Libraries/XMCLib/inc\xmc_usic.h **** typedef enum XMC_USIC_CH_TXFIFO_EVENT
 360:C:/Users/±è°æ¹Î/Desktop/IFX_S2GL-HW-SW_V1.1.3/Firmware_Software/DAVE project/S2GL_Doppler/Libraries/XMCLib/inc\xmc_usic.h **** {
 361:C:/Users/±è°æ¹Î/Desktop/IFX_S2GL-HW-SW_V1.1.3/Firmware_Software/DAVE project/S2GL_Doppler/Libraries/XMCLib/inc\xmc_usic.h ****   XMC_USIC_CH_TXFIFO_EVENT_STANDARD = USIC_CH_TRBSR_STBI_Msk,    /**< Transmit FIFO status: Standar
 362:C:/Users/±è°æ¹Î/Desktop/IFX_S2GL-HW-SW_V1.1.3/Firmware_Software/DAVE project/S2GL_Doppler/Libraries/XMCLib/inc\xmc_usic.h ****   XMC_USIC_CH_TXFIFO_EVENT_ERROR    = USIC_CH_TRBSR_TBERI_Msk    /**< Transmit FIFO status: Error e
 363:C:/Users/±è°æ¹Î/Desktop/IFX_S2GL-HW-SW_V1.1.3/Firmware_Software/DAVE project/S2GL_Doppler/Libraries/XMCLib/inc\xmc_usic.h **** } XMC_USIC_CH_TXFIFO_EVENT_t;
 364:C:/Users/±è°æ¹Î/Desktop/IFX_S2GL-HW-SW_V1.1.3/Firmware_Software/DAVE project/S2GL_Doppler/Libraries/XMCLib/inc\xmc_usic.h **** 
 365:C:/Users/±è°æ¹Î/Desktop/IFX_S2GL-HW-SW_V1.1.3/Firmware_Software/DAVE project/S2GL_Doppler/Libraries/XMCLib/inc\xmc_usic.h **** /**
 366:C:/Users/±è°æ¹Î/Desktop/IFX_S2GL-HW-SW_V1.1.3/Firmware_Software/DAVE project/S2GL_Doppler/Libraries/XMCLib/inc\xmc_usic.h **** * USIC channel receive FIFO interrupt node pointers
 367:C:/Users/±è°æ¹Î/Desktop/IFX_S2GL-HW-SW_V1.1.3/Firmware_Software/DAVE project/S2GL_Doppler/Libraries/XMCLib/inc\xmc_usic.h **** */
 368:C:/Users/±è°æ¹Î/Desktop/IFX_S2GL-HW-SW_V1.1.3/Firmware_Software/DAVE project/S2GL_Doppler/Libraries/XMCLib/inc\xmc_usic.h **** typedef enum XMC_USIC_CH_RXFIFO_INTERRUPT_NODE_POINTER
 369:C:/Users/±è°æ¹Î/Desktop/IFX_S2GL-HW-SW_V1.1.3/Firmware_Software/DAVE project/S2GL_Doppler/Libraries/XMCLib/inc\xmc_usic.h **** {
 370:C:/Users/±è°æ¹Î/Desktop/IFX_S2GL-HW-SW_V1.1.3/Firmware_Software/DAVE project/S2GL_Doppler/Libraries/XMCLib/inc\xmc_usic.h ****   XMC_USIC_CH_RXFIFO_INTERRUPT_NODE_POINTER_STANDARD  = USIC_CH_RBCTR_SRBINP_Pos, /**< Node pointer
 371:C:/Users/±è°æ¹Î/Desktop/IFX_S2GL-HW-SW_V1.1.3/Firmware_Software/DAVE project/S2GL_Doppler/Libraries/XMCLib/inc\xmc_usic.h ****   XMC_USIC_CH_RXFIFO_INTERRUPT_NODE_POINTER_ALTERNATE = USIC_CH_RBCTR_ARBINP_Pos  /**< Node pointer
 372:C:/Users/±è°æ¹Î/Desktop/IFX_S2GL-HW-SW_V1.1.3/Firmware_Software/DAVE project/S2GL_Doppler/Libraries/XMCLib/inc\xmc_usic.h **** } XMC_USIC_CH_RXFIFO_INTERRUPT_NODE_POINTER_t;
 373:C:/Users/±è°æ¹Î/Desktop/IFX_S2GL-HW-SW_V1.1.3/Firmware_Software/DAVE project/S2GL_Doppler/Libraries/XMCLib/inc\xmc_usic.h **** 
 374:C:/Users/±è°æ¹Î/Desktop/IFX_S2GL-HW-SW_V1.1.3/Firmware_Software/DAVE project/S2GL_Doppler/Libraries/XMCLib/inc\xmc_usic.h **** /**
 375:C:/Users/±è°æ¹Î/Desktop/IFX_S2GL-HW-SW_V1.1.3/Firmware_Software/DAVE project/S2GL_Doppler/Libraries/XMCLib/inc\xmc_usic.h **** * USIC channel receive FIFO event configuration
 376:C:/Users/±è°æ¹Î/Desktop/IFX_S2GL-HW-SW_V1.1.3/Firmware_Software/DAVE project/S2GL_Doppler/Libraries/XMCLib/inc\xmc_usic.h **** */
 377:C:/Users/±è°æ¹Î/Desktop/IFX_S2GL-HW-SW_V1.1.3/Firmware_Software/DAVE project/S2GL_Doppler/Libraries/XMCLib/inc\xmc_usic.h **** typedef enum XMC_USIC_CH_RXFIFO_EVENT_CONF
 378:C:/Users/±è°æ¹Î/Desktop/IFX_S2GL-HW-SW_V1.1.3/Firmware_Software/DAVE project/S2GL_Doppler/Libraries/XMCLib/inc\xmc_usic.h **** {
 379:C:/Users/±è°æ¹Î/Desktop/IFX_S2GL-HW-SW_V1.1.3/Firmware_Software/DAVE project/S2GL_Doppler/Libraries/XMCLib/inc\xmc_usic.h ****   XMC_USIC_CH_RXFIFO_EVENT_CONF_STANDARD  = USIC_CH_RBCTR_SRBIEN_Msk,   /**< Enable FIFO standard r
 380:C:/Users/±è°æ¹Î/Desktop/IFX_S2GL-HW-SW_V1.1.3/Firmware_Software/DAVE project/S2GL_Doppler/Libraries/XMCLib/inc\xmc_usic.h ****   XMC_USIC_CH_RXFIFO_EVENT_CONF_ERROR     = (int32_t)USIC_CH_RBCTR_RBERIEN_Msk,  /**< Enable receiv
 381:C:/Users/±è°æ¹Î/Desktop/IFX_S2GL-HW-SW_V1.1.3/Firmware_Software/DAVE project/S2GL_Doppler/Libraries/XMCLib/inc\xmc_usic.h ****   XMC_USIC_CH_RXFIFO_EVENT_CONF_ALTERNATE = USIC_CH_RBCTR_ARBIEN_Msk   /**< Enable FIFO alternative
 382:C:/Users/±è°æ¹Î/Desktop/IFX_S2GL-HW-SW_V1.1.3/Firmware_Software/DAVE project/S2GL_Doppler/Libraries/XMCLib/inc\xmc_usic.h **** } XMC_USIC_CH_RXFIFO_EVENT_CONF_t;
 383:C:/Users/±è°æ¹Î/Desktop/IFX_S2GL-HW-SW_V1.1.3/Firmware_Software/DAVE project/S2GL_Doppler/Libraries/XMCLib/inc\xmc_usic.h **** 
 384:C:/Users/±è°æ¹Î/Desktop/IFX_S2GL-HW-SW_V1.1.3/Firmware_Software/DAVE project/S2GL_Doppler/Libraries/XMCLib/inc\xmc_usic.h **** /**
 385:C:/Users/±è°æ¹Î/Desktop/IFX_S2GL-HW-SW_V1.1.3/Firmware_Software/DAVE project/S2GL_Doppler/Libraries/XMCLib/inc\xmc_usic.h **** * USIC channel receive FIFO status
 386:C:/Users/±è°æ¹Î/Desktop/IFX_S2GL-HW-SW_V1.1.3/Firmware_Software/DAVE project/S2GL_Doppler/Libraries/XMCLib/inc\xmc_usic.h **** */
 387:C:/Users/±è°æ¹Î/Desktop/IFX_S2GL-HW-SW_V1.1.3/Firmware_Software/DAVE project/S2GL_Doppler/Libraries/XMCLib/inc\xmc_usic.h **** typedef enum XMC_USIC_CH_RXFIFO_EVENT
 388:C:/Users/±è°æ¹Î/Desktop/IFX_S2GL-HW-SW_V1.1.3/Firmware_Software/DAVE project/S2GL_Doppler/Libraries/XMCLib/inc\xmc_usic.h **** {
 389:C:/Users/±è°æ¹Î/Desktop/IFX_S2GL-HW-SW_V1.1.3/Firmware_Software/DAVE project/S2GL_Doppler/Libraries/XMCLib/inc\xmc_usic.h ****   XMC_USIC_CH_RXFIFO_EVENT_STANDARD  = USIC_CH_TRBSR_SRBI_Msk,   /**< Receive FIFO status: Standard
 390:C:/Users/±è°æ¹Î/Desktop/IFX_S2GL-HW-SW_V1.1.3/Firmware_Software/DAVE project/S2GL_Doppler/Libraries/XMCLib/inc\xmc_usic.h ****   XMC_USIC_CH_RXFIFO_EVENT_ERROR     = USIC_CH_TRBSR_RBERI_Msk,  /**< Receive FIFO status: Error ev
 391:C:/Users/±è°æ¹Î/Desktop/IFX_S2GL-HW-SW_V1.1.3/Firmware_Software/DAVE project/S2GL_Doppler/Libraries/XMCLib/inc\xmc_usic.h ****   XMC_USIC_CH_RXFIFO_EVENT_ALTERNATE = USIC_CH_TRBSR_ARBI_Msk    /**< Receive FIFO status: Alternat
 392:C:/Users/±è°æ¹Î/Desktop/IFX_S2GL-HW-SW_V1.1.3/Firmware_Software/DAVE project/S2GL_Doppler/Libraries/XMCLib/inc\xmc_usic.h **** } XMC_USIC_CH_RXFIFO_EVENT_t;
 393:C:/Users/±è°æ¹Î/Desktop/IFX_S2GL-HW-SW_V1.1.3/Firmware_Software/DAVE project/S2GL_Doppler/Libraries/XMCLib/inc\xmc_usic.h **** 
 394:C:/Users/±è°æ¹Î/Desktop/IFX_S2GL-HW-SW_V1.1.3/Firmware_Software/DAVE project/S2GL_Doppler/Libraries/XMCLib/inc\xmc_usic.h **** /**
 395:C:/Users/±è°æ¹Î/Desktop/IFX_S2GL-HW-SW_V1.1.3/Firmware_Software/DAVE project/S2GL_Doppler/Libraries/XMCLib/inc\xmc_usic.h **** * USIC channel baudrate generator clock source
 396:C:/Users/±è°æ¹Î/Desktop/IFX_S2GL-HW-SW_V1.1.3/Firmware_Software/DAVE project/S2GL_Doppler/Libraries/XMCLib/inc\xmc_usic.h **** */
 397:C:/Users/±è°æ¹Î/Desktop/IFX_S2GL-HW-SW_V1.1.3/Firmware_Software/DAVE project/S2GL_Doppler/Libraries/XMCLib/inc\xmc_usic.h **** typedef enum XMC_USIC_CH_BRG_CLOCK_SOURCE
 398:C:/Users/±è°æ¹Î/Desktop/IFX_S2GL-HW-SW_V1.1.3/Firmware_Software/DAVE project/S2GL_Doppler/Libraries/XMCLib/inc\xmc_usic.h **** {
 399:C:/Users/±è°æ¹Î/Desktop/IFX_S2GL-HW-SW_V1.1.3/Firmware_Software/DAVE project/S2GL_Doppler/Libraries/XMCLib/inc\xmc_usic.h ****   XMC_USIC_CH_BRG_CLOCK_SOURCE_DIVIDER = 0x0UL, /**< Baudrate generator clock source : Source divid
 400:C:/Users/±è°æ¹Î/Desktop/IFX_S2GL-HW-SW_V1.1.3/Firmware_Software/DAVE project/S2GL_Doppler/Libraries/XMCLib/inc\xmc_usic.h ****   XMC_USIC_CH_BRG_CLOCK_SOURCE_DX1T    = 0x2UL << USIC_CH_BRG_CLKSEL_Pos  /**< Baudrate generator c
 401:C:/Users/±è°æ¹Î/Desktop/IFX_S2GL-HW-SW_V1.1.3/Firmware_Software/DAVE project/S2GL_Doppler/Libraries/XMCLib/inc\xmc_usic.h **** } XMC_USIC_CH_BRG_CLOCK_SOURCE_t;
 402:C:/Users/±è°æ¹Î/Desktop/IFX_S2GL-HW-SW_V1.1.3/Firmware_Software/DAVE project/S2GL_Doppler/Libraries/XMCLib/inc\xmc_usic.h **** 
 403:C:/Users/±è°æ¹Î/Desktop/IFX_S2GL-HW-SW_V1.1.3/Firmware_Software/DAVE project/S2GL_Doppler/Libraries/XMCLib/inc\xmc_usic.h **** /**
 404:C:/Users/±è°æ¹Î/Desktop/IFX_S2GL-HW-SW_V1.1.3/Firmware_Software/DAVE project/S2GL_Doppler/Libraries/XMCLib/inc\xmc_usic.h **** * USIC channel baudrate generator divider mode
 405:C:/Users/±è°æ¹Î/Desktop/IFX_S2GL-HW-SW_V1.1.3/Firmware_Software/DAVE project/S2GL_Doppler/Libraries/XMCLib/inc\xmc_usic.h **** */
 406:C:/Users/±è°æ¹Î/Desktop/IFX_S2GL-HW-SW_V1.1.3/Firmware_Software/DAVE project/S2GL_Doppler/Libraries/XMCLib/inc\xmc_usic.h **** typedef enum XMC_USIC_CH_BRG_CLOCK_DIVIDER_MODE
 407:C:/Users/±è°æ¹Î/Desktop/IFX_S2GL-HW-SW_V1.1.3/Firmware_Software/DAVE project/S2GL_Doppler/Libraries/XMCLib/inc\xmc_usic.h **** {
 408:C:/Users/±è°æ¹Î/Desktop/IFX_S2GL-HW-SW_V1.1.3/Firmware_Software/DAVE project/S2GL_Doppler/Libraries/XMCLib/inc\xmc_usic.h ****   XMC_USIC_CH_BRG_CLOCK_DIVIDER_MODE_DISABLED   = 0x0UL, /**< Baudrate generator clock divider: Dis
 409:C:/Users/±è°æ¹Î/Desktop/IFX_S2GL-HW-SW_V1.1.3/Firmware_Software/DAVE project/S2GL_Doppler/Libraries/XMCLib/inc\xmc_usic.h ****   XMC_USIC_CH_BRG_CLOCK_DIVIDER_MODE_NORMAL     = 0x1UL << USIC_CH_FDR_DM_Pos, /**< Baudrate genera
 410:C:/Users/±è°æ¹Î/Desktop/IFX_S2GL-HW-SW_V1.1.3/Firmware_Software/DAVE project/S2GL_Doppler/Libraries/XMCLib/inc\xmc_usic.h ****   XMC_USIC_CH_BRG_CLOCK_DIVIDER_MODE_FRACTIONAL = 0x2UL << USIC_CH_FDR_DM_Pos  /**< Baudrate genera
 411:C:/Users/±è°æ¹Î/Desktop/IFX_S2GL-HW-SW_V1.1.3/Firmware_Software/DAVE project/S2GL_Doppler/Libraries/XMCLib/inc\xmc_usic.h **** } XMC_USIC_CH_BRG_CLOCK_DIVIDER_MODE_t;
 412:C:/Users/±è°æ¹Î/Desktop/IFX_S2GL-HW-SW_V1.1.3/Firmware_Software/DAVE project/S2GL_Doppler/Libraries/XMCLib/inc\xmc_usic.h **** 
 413:C:/Users/±è°æ¹Î/Desktop/IFX_S2GL-HW-SW_V1.1.3/Firmware_Software/DAVE project/S2GL_Doppler/Libraries/XMCLib/inc\xmc_usic.h **** /**
 414:C:/Users/±è°æ¹Î/Desktop/IFX_S2GL-HW-SW_V1.1.3/Firmware_Software/DAVE project/S2GL_Doppler/Libraries/XMCLib/inc\xmc_usic.h **** * USIC channel baudrate generator master clock passive level
 415:C:/Users/±è°æ¹Î/Desktop/IFX_S2GL-HW-SW_V1.1.3/Firmware_Software/DAVE project/S2GL_Doppler/Libraries/XMCLib/inc\xmc_usic.h **** */
 416:C:/Users/±è°æ¹Î/Desktop/IFX_S2GL-HW-SW_V1.1.3/Firmware_Software/DAVE project/S2GL_Doppler/Libraries/XMCLib/inc\xmc_usic.h **** typedef enum XMC_USIC_CH_BRG_MASTER_CLOCK_PASSIVE_LEVEL
 417:C:/Users/±è°æ¹Î/Desktop/IFX_S2GL-HW-SW_V1.1.3/Firmware_Software/DAVE project/S2GL_Doppler/Libraries/XMCLib/inc\xmc_usic.h **** {
 418:C:/Users/±è°æ¹Î/Desktop/IFX_S2GL-HW-SW_V1.1.3/Firmware_Software/DAVE project/S2GL_Doppler/Libraries/XMCLib/inc\xmc_usic.h ****   XMC_USIC_CH_BRG_MASTER_CLOCK_PASSIVE_LEVEL_0 = 0x0UL, /**< Baudrate generator master clock passiv
 419:C:/Users/±è°æ¹Î/Desktop/IFX_S2GL-HW-SW_V1.1.3/Firmware_Software/DAVE project/S2GL_Doppler/Libraries/XMCLib/inc\xmc_usic.h ****   XMC_USIC_CH_BRG_MASTER_CLOCK_PASSIVE_LEVEL_1 = 0x1UL << USIC_CH_BRG_MCLKCFG_Pos  /**< Baudrate ge
 420:C:/Users/±è°æ¹Î/Desktop/IFX_S2GL-HW-SW_V1.1.3/Firmware_Software/DAVE project/S2GL_Doppler/Libraries/XMCLib/inc\xmc_usic.h **** } XMC_USIC_CH_BRG_MASTER_CLOCK_PASSIVE_LEVEL_t;
 421:C:/Users/±è°æ¹Î/Desktop/IFX_S2GL-HW-SW_V1.1.3/Firmware_Software/DAVE project/S2GL_Doppler/Libraries/XMCLib/inc\xmc_usic.h **** 
 422:C:/Users/±è°æ¹Î/Desktop/IFX_S2GL-HW-SW_V1.1.3/Firmware_Software/DAVE project/S2GL_Doppler/Libraries/XMCLib/inc\xmc_usic.h **** /**
 423:C:/Users/±è°æ¹Î/Desktop/IFX_S2GL-HW-SW_V1.1.3/Firmware_Software/DAVE project/S2GL_Doppler/Libraries/XMCLib/inc\xmc_usic.h **** * USIC channel baudrate generator shift clock passive level
 424:C:/Users/±è°æ¹Î/Desktop/IFX_S2GL-HW-SW_V1.1.3/Firmware_Software/DAVE project/S2GL_Doppler/Libraries/XMCLib/inc\xmc_usic.h **** */
 425:C:/Users/±è°æ¹Î/Desktop/IFX_S2GL-HW-SW_V1.1.3/Firmware_Software/DAVE project/S2GL_Doppler/Libraries/XMCLib/inc\xmc_usic.h **** typedef enum XMC_USIC_CH_BRG_SHIFT_CLOCK_PASSIVE_LEVEL
 426:C:/Users/±è°æ¹Î/Desktop/IFX_S2GL-HW-SW_V1.1.3/Firmware_Software/DAVE project/S2GL_Doppler/Libraries/XMCLib/inc\xmc_usic.h **** {
 427:C:/Users/±è°æ¹Î/Desktop/IFX_S2GL-HW-SW_V1.1.3/Firmware_Software/DAVE project/S2GL_Doppler/Libraries/XMCLib/inc\xmc_usic.h ****   XMC_USIC_CH_BRG_SHIFT_CLOCK_PASSIVE_LEVEL_0_DELAY_DISABLED = 0x0UL, /**< Shift clock passive leve
 428:C:/Users/±è°æ¹Î/Desktop/IFX_S2GL-HW-SW_V1.1.3/Firmware_Software/DAVE project/S2GL_Doppler/Libraries/XMCLib/inc\xmc_usic.h ****   XMC_USIC_CH_BRG_SHIFT_CLOCK_PASSIVE_LEVEL_1_DELAY_DISABLED = 0x1UL << USIC_CH_BRG_SCLKCFG_Pos, /*
 429:C:/Users/±è°æ¹Î/Desktop/IFX_S2GL-HW-SW_V1.1.3/Firmware_Software/DAVE project/S2GL_Doppler/Libraries/XMCLib/inc\xmc_usic.h ****   XMC_USIC_CH_BRG_SHIFT_CLOCK_PASSIVE_LEVEL_0_DELAY_ENABLED  = (int32_t)(0x2UL << USIC_CH_BRG_SCLKC
 430:C:/Users/±è°æ¹Î/Desktop/IFX_S2GL-HW-SW_V1.1.3/Firmware_Software/DAVE project/S2GL_Doppler/Libraries/XMCLib/inc\xmc_usic.h ****   XMC_USIC_CH_BRG_SHIFT_CLOCK_PASSIVE_LEVEL_1_DELAY_ENABLED  = (int32_t)(0x3UL << USIC_CH_BRG_SCLKC
 431:C:/Users/±è°æ¹Î/Desktop/IFX_S2GL-HW-SW_V1.1.3/Firmware_Software/DAVE project/S2GL_Doppler/Libraries/XMCLib/inc\xmc_usic.h **** } XMC_USIC_CH_BRG_SHIFT_CLOCK_PASSIVE_LEVEL_t;
 432:C:/Users/±è°æ¹Î/Desktop/IFX_S2GL-HW-SW_V1.1.3/Firmware_Software/DAVE project/S2GL_Doppler/Libraries/XMCLib/inc\xmc_usic.h **** 
 433:C:/Users/±è°æ¹Î/Desktop/IFX_S2GL-HW-SW_V1.1.3/Firmware_Software/DAVE project/S2GL_Doppler/Libraries/XMCLib/inc\xmc_usic.h **** /**
 434:C:/Users/±è°æ¹Î/Desktop/IFX_S2GL-HW-SW_V1.1.3/Firmware_Software/DAVE project/S2GL_Doppler/Libraries/XMCLib/inc\xmc_usic.h **** * USIC channel baudrate generator shift clock output
 435:C:/Users/±è°æ¹Î/Desktop/IFX_S2GL-HW-SW_V1.1.3/Firmware_Software/DAVE project/S2GL_Doppler/Libraries/XMCLib/inc\xmc_usic.h **** */
 436:C:/Users/±è°æ¹Î/Desktop/IFX_S2GL-HW-SW_V1.1.3/Firmware_Software/DAVE project/S2GL_Doppler/Libraries/XMCLib/inc\xmc_usic.h **** typedef enum XMC_USIC_CH_BRG_SHIFT_CLOCK_OUTPUT
 437:C:/Users/±è°æ¹Î/Desktop/IFX_S2GL-HW-SW_V1.1.3/Firmware_Software/DAVE project/S2GL_Doppler/Libraries/XMCLib/inc\xmc_usic.h **** {
 438:C:/Users/±è°æ¹Î/Desktop/IFX_S2GL-HW-SW_V1.1.3/Firmware_Software/DAVE project/S2GL_Doppler/Libraries/XMCLib/inc\xmc_usic.h ****   XMC_USIC_CH_BRG_SHIFT_CLOCK_OUTPUT_SCLK = 0x0UL, /**< Baudrate generator shift clock output: SCL.
 439:C:/Users/±è°æ¹Î/Desktop/IFX_S2GL-HW-SW_V1.1.3/Firmware_Software/DAVE project/S2GL_Doppler/Libraries/XMCLib/inc\xmc_usic.h ****   XMC_USIC_CH_BRG_SHIFT_CLOCK_OUTPUT_DX1 = 0x1UL << USIC_CH_BRG_SCLKOSEL_Pos   /**< Baudrate genera
 440:C:/Users/±è°æ¹Î/Desktop/IFX_S2GL-HW-SW_V1.1.3/Firmware_Software/DAVE project/S2GL_Doppler/Libraries/XMCLib/inc\xmc_usic.h **** } XMC_USIC_CH_BRG_SHIFT_CLOCK_OUTPUT_t;
 441:C:/Users/±è°æ¹Î/Desktop/IFX_S2GL-HW-SW_V1.1.3/Firmware_Software/DAVE project/S2GL_Doppler/Libraries/XMCLib/inc\xmc_usic.h **** 
 442:C:/Users/±è°æ¹Î/Desktop/IFX_S2GL-HW-SW_V1.1.3/Firmware_Software/DAVE project/S2GL_Doppler/Libraries/XMCLib/inc\xmc_usic.h **** /*******************************************************************************
 443:C:/Users/±è°æ¹Î/Desktop/IFX_S2GL-HW-SW_V1.1.3/Firmware_Software/DAVE project/S2GL_Doppler/Libraries/XMCLib/inc\xmc_usic.h ****  * DATA STRUCTURES
 444:C:/Users/±è°æ¹Î/Desktop/IFX_S2GL-HW-SW_V1.1.3/Firmware_Software/DAVE project/S2GL_Doppler/Libraries/XMCLib/inc\xmc_usic.h ****  *******************************************************************************/
 445:C:/Users/±è°æ¹Î/Desktop/IFX_S2GL-HW-SW_V1.1.3/Firmware_Software/DAVE project/S2GL_Doppler/Libraries/XMCLib/inc\xmc_usic.h **** 
 446:C:/Users/±è°æ¹Î/Desktop/IFX_S2GL-HW-SW_V1.1.3/Firmware_Software/DAVE project/S2GL_Doppler/Libraries/XMCLib/inc\xmc_usic.h **** /*Anonymous structure/union guard start*/
 447:C:/Users/±è°æ¹Î/Desktop/IFX_S2GL-HW-SW_V1.1.3/Firmware_Software/DAVE project/S2GL_Doppler/Libraries/XMCLib/inc\xmc_usic.h **** #if defined(__CC_ARM)
 448:C:/Users/±è°æ¹Î/Desktop/IFX_S2GL-HW-SW_V1.1.3/Firmware_Software/DAVE project/S2GL_Doppler/Libraries/XMCLib/inc\xmc_usic.h ****   #pragma push
 449:C:/Users/±è°æ¹Î/Desktop/IFX_S2GL-HW-SW_V1.1.3/Firmware_Software/DAVE project/S2GL_Doppler/Libraries/XMCLib/inc\xmc_usic.h ****   #pragma anon_unions
 450:C:/Users/±è°æ¹Î/Desktop/IFX_S2GL-HW-SW_V1.1.3/Firmware_Software/DAVE project/S2GL_Doppler/Libraries/XMCLib/inc\xmc_usic.h **** #elif defined(__TASKING__)
 451:C:/Users/±è°æ¹Î/Desktop/IFX_S2GL-HW-SW_V1.1.3/Firmware_Software/DAVE project/S2GL_Doppler/Libraries/XMCLib/inc\xmc_usic.h ****   #pragma warning 586
 452:C:/Users/±è°æ¹Î/Desktop/IFX_S2GL-HW-SW_V1.1.3/Firmware_Software/DAVE project/S2GL_Doppler/Libraries/XMCLib/inc\xmc_usic.h **** #endif
 453:C:/Users/±è°æ¹Î/Desktop/IFX_S2GL-HW-SW_V1.1.3/Firmware_Software/DAVE project/S2GL_Doppler/Libraries/XMCLib/inc\xmc_usic.h **** 
 454:C:/Users/±è°æ¹Î/Desktop/IFX_S2GL-HW-SW_V1.1.3/Firmware_Software/DAVE project/S2GL_Doppler/Libraries/XMCLib/inc\xmc_usic.h **** /**
 455:C:/Users/±è°æ¹Î/Desktop/IFX_S2GL-HW-SW_V1.1.3/Firmware_Software/DAVE project/S2GL_Doppler/Libraries/XMCLib/inc\xmc_usic.h ****  * USIC module structure
 456:C:/Users/±è°æ¹Î/Desktop/IFX_S2GL-HW-SW_V1.1.3/Firmware_Software/DAVE project/S2GL_Doppler/Libraries/XMCLib/inc\xmc_usic.h ****  */
 457:C:/Users/±è°æ¹Î/Desktop/IFX_S2GL-HW-SW_V1.1.3/Firmware_Software/DAVE project/S2GL_Doppler/Libraries/XMCLib/inc\xmc_usic.h **** typedef USIC_GLOBAL_TypeDef XMC_USIC_t;
 458:C:/Users/±è°æ¹Î/Desktop/IFX_S2GL-HW-SW_V1.1.3/Firmware_Software/DAVE project/S2GL_Doppler/Libraries/XMCLib/inc\xmc_usic.h **** 
 459:C:/Users/±è°æ¹Î/Desktop/IFX_S2GL-HW-SW_V1.1.3/Firmware_Software/DAVE project/S2GL_Doppler/Libraries/XMCLib/inc\xmc_usic.h **** /**
 460:C:/Users/±è°æ¹Î/Desktop/IFX_S2GL-HW-SW_V1.1.3/Firmware_Software/DAVE project/S2GL_Doppler/Libraries/XMCLib/inc\xmc_usic.h ****  * USIC channel structure.<br> The members of the structure are same as in the device header file, 
 461:C:/Users/±è°æ¹Î/Desktop/IFX_S2GL-HW-SW_V1.1.3/Firmware_Software/DAVE project/S2GL_Doppler/Libraries/XMCLib/inc\xmc_usic.h ****  * except for some registers.
 462:C:/Users/±è°æ¹Î/Desktop/IFX_S2GL-HW-SW_V1.1.3/Firmware_Software/DAVE project/S2GL_Doppler/Libraries/XMCLib/inc\xmc_usic.h ****  * DX0CR, DX1CR, DX2CR, DX3CR, DX4CR and DX5CR are replaced with the array DXCR[6].
 463:C:/Users/±è°æ¹Î/Desktop/IFX_S2GL-HW-SW_V1.1.3/Firmware_Software/DAVE project/S2GL_Doppler/Libraries/XMCLib/inc\xmc_usic.h ****  * TBUF0 to TBUF31 are replaced with TBUF[32].
 464:C:/Users/±è°æ¹Î/Desktop/IFX_S2GL-HW-SW_V1.1.3/Firmware_Software/DAVE project/S2GL_Doppler/Libraries/XMCLib/inc\xmc_usic.h ****  * IN0 to IN31 are replaced with IN[32].
 465:C:/Users/±è°æ¹Î/Desktop/IFX_S2GL-HW-SW_V1.1.3/Firmware_Software/DAVE project/S2GL_Doppler/Libraries/XMCLib/inc\xmc_usic.h ****  */
 466:C:/Users/±è°æ¹Î/Desktop/IFX_S2GL-HW-SW_V1.1.3/Firmware_Software/DAVE project/S2GL_Doppler/Libraries/XMCLib/inc\xmc_usic.h **** typedef struct XMC_USIC_CH
 467:C:/Users/±è°æ¹Î/Desktop/IFX_S2GL-HW-SW_V1.1.3/Firmware_Software/DAVE project/S2GL_Doppler/Libraries/XMCLib/inc\xmc_usic.h **** {
 468:C:/Users/±è°æ¹Î/Desktop/IFX_S2GL-HW-SW_V1.1.3/Firmware_Software/DAVE project/S2GL_Doppler/Libraries/XMCLib/inc\xmc_usic.h ****   __I  uint32_t  RESERVED0;
 469:C:/Users/±è°æ¹Î/Desktop/IFX_S2GL-HW-SW_V1.1.3/Firmware_Software/DAVE project/S2GL_Doppler/Libraries/XMCLib/inc\xmc_usic.h ****   __I  uint32_t  CCFG;			/**< Channel configuration register*/
 470:C:/Users/±è°æ¹Î/Desktop/IFX_S2GL-HW-SW_V1.1.3/Firmware_Software/DAVE project/S2GL_Doppler/Libraries/XMCLib/inc\xmc_usic.h ****   __I  uint32_t  RESERVED1;
 471:C:/Users/±è°æ¹Î/Desktop/IFX_S2GL-HW-SW_V1.1.3/Firmware_Software/DAVE project/S2GL_Doppler/Libraries/XMCLib/inc\xmc_usic.h ****   __IO uint32_t  KSCFG;			/**< Kernel state configuration register*/
 472:C:/Users/±è°æ¹Î/Desktop/IFX_S2GL-HW-SW_V1.1.3/Firmware_Software/DAVE project/S2GL_Doppler/Libraries/XMCLib/inc\xmc_usic.h ****   __IO uint32_t  FDR;			/**< Fractional divider configuration register*/
 473:C:/Users/±è°æ¹Î/Desktop/IFX_S2GL-HW-SW_V1.1.3/Firmware_Software/DAVE project/S2GL_Doppler/Libraries/XMCLib/inc\xmc_usic.h ****   __IO uint32_t  BRG;			/**< Baud rate generator register*/
 474:C:/Users/±è°æ¹Î/Desktop/IFX_S2GL-HW-SW_V1.1.3/Firmware_Software/DAVE project/S2GL_Doppler/Libraries/XMCLib/inc\xmc_usic.h ****   __IO uint32_t  INPR;			/**< Interrupt node pointer register*/
 475:C:/Users/±è°æ¹Î/Desktop/IFX_S2GL-HW-SW_V1.1.3/Firmware_Software/DAVE project/S2GL_Doppler/Libraries/XMCLib/inc\xmc_usic.h ****   __IO uint32_t  DXCR[6];		/**< Input control registers DX0 to DX5.*/
 476:C:/Users/±è°æ¹Î/Desktop/IFX_S2GL-HW-SW_V1.1.3/Firmware_Software/DAVE project/S2GL_Doppler/Libraries/XMCLib/inc\xmc_usic.h ****   __IO uint32_t  SCTR;			/**< Shift control register*/
 477:C:/Users/±è°æ¹Î/Desktop/IFX_S2GL-HW-SW_V1.1.3/Firmware_Software/DAVE project/S2GL_Doppler/Libraries/XMCLib/inc\xmc_usic.h ****   __IO uint32_t  TCSR;
 478:C:/Users/±è°æ¹Î/Desktop/IFX_S2GL-HW-SW_V1.1.3/Firmware_Software/DAVE project/S2GL_Doppler/Libraries/XMCLib/inc\xmc_usic.h **** 
 479:C:/Users/±è°æ¹Î/Desktop/IFX_S2GL-HW-SW_V1.1.3/Firmware_Software/DAVE project/S2GL_Doppler/Libraries/XMCLib/inc\xmc_usic.h ****   union {
 480:C:/Users/±è°æ¹Î/Desktop/IFX_S2GL-HW-SW_V1.1.3/Firmware_Software/DAVE project/S2GL_Doppler/Libraries/XMCLib/inc\xmc_usic.h ****     __IO uint32_t  PCR_IICMode;	/**< I2C protocol configuration register*/
 481:C:/Users/±è°æ¹Î/Desktop/IFX_S2GL-HW-SW_V1.1.3/Firmware_Software/DAVE project/S2GL_Doppler/Libraries/XMCLib/inc\xmc_usic.h ****     __IO uint32_t  PCR_IISMode; /**< I2S protocol configuration register*/
 482:C:/Users/±è°æ¹Î/Desktop/IFX_S2GL-HW-SW_V1.1.3/Firmware_Software/DAVE project/S2GL_Doppler/Libraries/XMCLib/inc\xmc_usic.h ****     __IO uint32_t  PCR_SSCMode;	/**< SPI protocol configuration register*/
 483:C:/Users/±è°æ¹Î/Desktop/IFX_S2GL-HW-SW_V1.1.3/Firmware_Software/DAVE project/S2GL_Doppler/Libraries/XMCLib/inc\xmc_usic.h ****     __IO uint32_t  PCR;			/**< Protocol configuration register*/
 484:C:/Users/±è°æ¹Î/Desktop/IFX_S2GL-HW-SW_V1.1.3/Firmware_Software/DAVE project/S2GL_Doppler/Libraries/XMCLib/inc\xmc_usic.h ****     __IO uint32_t  PCR_ASCMode;	/**< UART protocol configuration register*/
 485:C:/Users/±è°æ¹Î/Desktop/IFX_S2GL-HW-SW_V1.1.3/Firmware_Software/DAVE project/S2GL_Doppler/Libraries/XMCLib/inc\xmc_usic.h ****   };
 486:C:/Users/±è°æ¹Î/Desktop/IFX_S2GL-HW-SW_V1.1.3/Firmware_Software/DAVE project/S2GL_Doppler/Libraries/XMCLib/inc\xmc_usic.h ****   __IO uint32_t  CCR;			/**< Channel control register*/
 487:C:/Users/±è°æ¹Î/Desktop/IFX_S2GL-HW-SW_V1.1.3/Firmware_Software/DAVE project/S2GL_Doppler/Libraries/XMCLib/inc\xmc_usic.h ****   __IO uint32_t  CMTR;			/**< Capture mode timer register*/
 488:C:/Users/±è°æ¹Î/Desktop/IFX_S2GL-HW-SW_V1.1.3/Firmware_Software/DAVE project/S2GL_Doppler/Libraries/XMCLib/inc\xmc_usic.h **** 
 489:C:/Users/±è°æ¹Î/Desktop/IFX_S2GL-HW-SW_V1.1.3/Firmware_Software/DAVE project/S2GL_Doppler/Libraries/XMCLib/inc\xmc_usic.h ****   union {
 490:C:/Users/±è°æ¹Î/Desktop/IFX_S2GL-HW-SW_V1.1.3/Firmware_Software/DAVE project/S2GL_Doppler/Libraries/XMCLib/inc\xmc_usic.h ****     __IO uint32_t  PSR_IICMode;	/**< I2C protocol status register*/
 491:C:/Users/±è°æ¹Î/Desktop/IFX_S2GL-HW-SW_V1.1.3/Firmware_Software/DAVE project/S2GL_Doppler/Libraries/XMCLib/inc\xmc_usic.h ****     __IO uint32_t  PSR_IISMode;	/**< I2S protocol status register*/
 492:C:/Users/±è°æ¹Î/Desktop/IFX_S2GL-HW-SW_V1.1.3/Firmware_Software/DAVE project/S2GL_Doppler/Libraries/XMCLib/inc\xmc_usic.h ****     __IO uint32_t  PSR_SSCMode;	/**< SPI protocol status register*/
 493:C:/Users/±è°æ¹Î/Desktop/IFX_S2GL-HW-SW_V1.1.3/Firmware_Software/DAVE project/S2GL_Doppler/Libraries/XMCLib/inc\xmc_usic.h ****     __IO uint32_t  PSR;			/**< Protocol status register*/
 494:C:/Users/±è°æ¹Î/Desktop/IFX_S2GL-HW-SW_V1.1.3/Firmware_Software/DAVE project/S2GL_Doppler/Libraries/XMCLib/inc\xmc_usic.h ****     __IO uint32_t  PSR_ASCMode;	/**< UART protocol status register*/
 495:C:/Users/±è°æ¹Î/Desktop/IFX_S2GL-HW-SW_V1.1.3/Firmware_Software/DAVE project/S2GL_Doppler/Libraries/XMCLib/inc\xmc_usic.h ****   };
 496:C:/Users/±è°æ¹Î/Desktop/IFX_S2GL-HW-SW_V1.1.3/Firmware_Software/DAVE project/S2GL_Doppler/Libraries/XMCLib/inc\xmc_usic.h ****   __O  uint32_t  PSCR;			/**< Protocol status clear register*/
 497:C:/Users/±è°æ¹Î/Desktop/IFX_S2GL-HW-SW_V1.1.3/Firmware_Software/DAVE project/S2GL_Doppler/Libraries/XMCLib/inc\xmc_usic.h ****   __I  uint32_t  RBUFSR;		/**< Receive buffer status register*/
 498:C:/Users/±è°æ¹Î/Desktop/IFX_S2GL-HW-SW_V1.1.3/Firmware_Software/DAVE project/S2GL_Doppler/Libraries/XMCLib/inc\xmc_usic.h ****   __I  uint32_t  RBUF;			/**< Receive buffer register*/
 499:C:/Users/±è°æ¹Î/Desktop/IFX_S2GL-HW-SW_V1.1.3/Firmware_Software/DAVE project/S2GL_Doppler/Libraries/XMCLib/inc\xmc_usic.h ****   __I  uint32_t  RBUFD;			/**< Debug mode receive buffer register*/
 500:C:/Users/±è°æ¹Î/Desktop/IFX_S2GL-HW-SW_V1.1.3/Firmware_Software/DAVE project/S2GL_Doppler/Libraries/XMCLib/inc\xmc_usic.h ****   __I  uint32_t  RBUF0;			/**< Receive buffer 0*/
 501:C:/Users/±è°æ¹Î/Desktop/IFX_S2GL-HW-SW_V1.1.3/Firmware_Software/DAVE project/S2GL_Doppler/Libraries/XMCLib/inc\xmc_usic.h ****   __I  uint32_t  RBUF1;			/**< Receive buffer 1*/
 502:C:/Users/±è°æ¹Î/Desktop/IFX_S2GL-HW-SW_V1.1.3/Firmware_Software/DAVE project/S2GL_Doppler/Libraries/XMCLib/inc\xmc_usic.h ****   __I  uint32_t  RBUF01SR;		/**< Receive buffer status register*/
 503:C:/Users/±è°æ¹Î/Desktop/IFX_S2GL-HW-SW_V1.1.3/Firmware_Software/DAVE project/S2GL_Doppler/Libraries/XMCLib/inc\xmc_usic.h ****   __O  uint32_t  FMR;			/**< Flag modification register*/
 504:C:/Users/±è°æ¹Î/Desktop/IFX_S2GL-HW-SW_V1.1.3/Firmware_Software/DAVE project/S2GL_Doppler/Libraries/XMCLib/inc\xmc_usic.h ****   __I  uint32_t  RESERVED2[5];
 505:C:/Users/±è°æ¹Î/Desktop/IFX_S2GL-HW-SW_V1.1.3/Firmware_Software/DAVE project/S2GL_Doppler/Libraries/XMCLib/inc\xmc_usic.h ****   __IO uint32_t  TBUF[32];		/**< Tranmsit buffer registers*/
 506:C:/Users/±è°æ¹Î/Desktop/IFX_S2GL-HW-SW_V1.1.3/Firmware_Software/DAVE project/S2GL_Doppler/Libraries/XMCLib/inc\xmc_usic.h ****   __IO uint32_t  BYP;			/**< FIFO bypass register*/
 507:C:/Users/±è°æ¹Î/Desktop/IFX_S2GL-HW-SW_V1.1.3/Firmware_Software/DAVE project/S2GL_Doppler/Libraries/XMCLib/inc\xmc_usic.h ****   __IO uint32_t  BYPCR;			/**< FIFO bypass control register*/
 508:C:/Users/±è°æ¹Î/Desktop/IFX_S2GL-HW-SW_V1.1.3/Firmware_Software/DAVE project/S2GL_Doppler/Libraries/XMCLib/inc\xmc_usic.h ****   __IO uint32_t  TBCTR;			/**< Transmit FIFO control register*/
 509:C:/Users/±è°æ¹Î/Desktop/IFX_S2GL-HW-SW_V1.1.3/Firmware_Software/DAVE project/S2GL_Doppler/Libraries/XMCLib/inc\xmc_usic.h ****   __IO uint32_t  RBCTR;			/**< Receive FIFO control register*/
 510:C:/Users/±è°æ¹Î/Desktop/IFX_S2GL-HW-SW_V1.1.3/Firmware_Software/DAVE project/S2GL_Doppler/Libraries/XMCLib/inc\xmc_usic.h ****   __I  uint32_t  TRBPTR;		/**< Transmit/recive buffer pointer register*/
 511:C:/Users/±è°æ¹Î/Desktop/IFX_S2GL-HW-SW_V1.1.3/Firmware_Software/DAVE project/S2GL_Doppler/Libraries/XMCLib/inc\xmc_usic.h ****   __IO uint32_t  TRBSR;			/**< Transmit/receive buffer status register*/
 512:C:/Users/±è°æ¹Î/Desktop/IFX_S2GL-HW-SW_V1.1.3/Firmware_Software/DAVE project/S2GL_Doppler/Libraries/XMCLib/inc\xmc_usic.h ****   __O  uint32_t  TRBSCR;		/**< Transmit/receive buffer status clear register*/
 513:C:/Users/±è°æ¹Î/Desktop/IFX_S2GL-HW-SW_V1.1.3/Firmware_Software/DAVE project/S2GL_Doppler/Libraries/XMCLib/inc\xmc_usic.h ****   __I  uint32_t  OUTR;			/**< Receive FIFO output register*/
 514:C:/Users/±è°æ¹Î/Desktop/IFX_S2GL-HW-SW_V1.1.3/Firmware_Software/DAVE project/S2GL_Doppler/Libraries/XMCLib/inc\xmc_usic.h ****   __I  uint32_t  OUTDR;			/**< Receive FIFO debug output register*/
 515:C:/Users/±è°æ¹Î/Desktop/IFX_S2GL-HW-SW_V1.1.3/Firmware_Software/DAVE project/S2GL_Doppler/Libraries/XMCLib/inc\xmc_usic.h ****   __I  uint32_t  RESERVED3[23];
 516:C:/Users/±è°æ¹Î/Desktop/IFX_S2GL-HW-SW_V1.1.3/Firmware_Software/DAVE project/S2GL_Doppler/Libraries/XMCLib/inc\xmc_usic.h ****   __O  uint32_t  IN[32];		/**< Transmit FIFO input register*/
 517:C:/Users/±è°æ¹Î/Desktop/IFX_S2GL-HW-SW_V1.1.3/Firmware_Software/DAVE project/S2GL_Doppler/Libraries/XMCLib/inc\xmc_usic.h **** } XMC_USIC_CH_t;
 518:C:/Users/±è°æ¹Î/Desktop/IFX_S2GL-HW-SW_V1.1.3/Firmware_Software/DAVE project/S2GL_Doppler/Libraries/XMCLib/inc\xmc_usic.h **** 
 519:C:/Users/±è°æ¹Î/Desktop/IFX_S2GL-HW-SW_V1.1.3/Firmware_Software/DAVE project/S2GL_Doppler/Libraries/XMCLib/inc\xmc_usic.h **** 
 520:C:/Users/±è°æ¹Î/Desktop/IFX_S2GL-HW-SW_V1.1.3/Firmware_Software/DAVE project/S2GL_Doppler/Libraries/XMCLib/inc\xmc_usic.h **** /*Anonymous structure/union guard end*/
 521:C:/Users/±è°æ¹Î/Desktop/IFX_S2GL-HW-SW_V1.1.3/Firmware_Software/DAVE project/S2GL_Doppler/Libraries/XMCLib/inc\xmc_usic.h **** #if defined(__CC_ARM)
 522:C:/Users/±è°æ¹Î/Desktop/IFX_S2GL-HW-SW_V1.1.3/Firmware_Software/DAVE project/S2GL_Doppler/Libraries/XMCLib/inc\xmc_usic.h ****   #pragma pop
 523:C:/Users/±è°æ¹Î/Desktop/IFX_S2GL-HW-SW_V1.1.3/Firmware_Software/DAVE project/S2GL_Doppler/Libraries/XMCLib/inc\xmc_usic.h **** #elif defined(__TASKING__)
 524:C:/Users/±è°æ¹Î/Desktop/IFX_S2GL-HW-SW_V1.1.3/Firmware_Software/DAVE project/S2GL_Doppler/Libraries/XMCLib/inc\xmc_usic.h ****   #pragma warning restore
 525:C:/Users/±è°æ¹Î/Desktop/IFX_S2GL-HW-SW_V1.1.3/Firmware_Software/DAVE project/S2GL_Doppler/Libraries/XMCLib/inc\xmc_usic.h **** #endif
 526:C:/Users/±è°æ¹Î/Desktop/IFX_S2GL-HW-SW_V1.1.3/Firmware_Software/DAVE project/S2GL_Doppler/Libraries/XMCLib/inc\xmc_usic.h **** 
 527:C:/Users/±è°æ¹Î/Desktop/IFX_S2GL-HW-SW_V1.1.3/Firmware_Software/DAVE project/S2GL_Doppler/Libraries/XMCLib/inc\xmc_usic.h **** /*******************************************************************************
 528:C:/Users/±è°æ¹Î/Desktop/IFX_S2GL-HW-SW_V1.1.3/Firmware_Software/DAVE project/S2GL_Doppler/Libraries/XMCLib/inc\xmc_usic.h ****  * API PROTOTYPES
 529:C:/Users/±è°æ¹Î/Desktop/IFX_S2GL-HW-SW_V1.1.3/Firmware_Software/DAVE project/S2GL_Doppler/Libraries/XMCLib/inc\xmc_usic.h ****  ******************************************************************************/
 530:C:/Users/±è°æ¹Î/Desktop/IFX_S2GL-HW-SW_V1.1.3/Firmware_Software/DAVE project/S2GL_Doppler/Libraries/XMCLib/inc\xmc_usic.h **** 
 531:C:/Users/±è°æ¹Î/Desktop/IFX_S2GL-HW-SW_V1.1.3/Firmware_Software/DAVE project/S2GL_Doppler/Libraries/XMCLib/inc\xmc_usic.h **** #ifdef __cplusplus
 532:C:/Users/±è°æ¹Î/Desktop/IFX_S2GL-HW-SW_V1.1.3/Firmware_Software/DAVE project/S2GL_Doppler/Libraries/XMCLib/inc\xmc_usic.h **** extern "C" {
 533:C:/Users/±è°æ¹Î/Desktop/IFX_S2GL-HW-SW_V1.1.3/Firmware_Software/DAVE project/S2GL_Doppler/Libraries/XMCLib/inc\xmc_usic.h **** #endif
 534:C:/Users/±è°æ¹Î/Desktop/IFX_S2GL-HW-SW_V1.1.3/Firmware_Software/DAVE project/S2GL_Doppler/Libraries/XMCLib/inc\xmc_usic.h **** 
 535:C:/Users/±è°æ¹Î/Desktop/IFX_S2GL-HW-SW_V1.1.3/Firmware_Software/DAVE project/S2GL_Doppler/Libraries/XMCLib/inc\xmc_usic.h **** __STATIC_INLINE bool XMC_USIC_IsModuleValid(const XMC_USIC_t *const module)
 536:C:/Users/±è°æ¹Î/Desktop/IFX_S2GL-HW-SW_V1.1.3/Firmware_Software/DAVE project/S2GL_Doppler/Libraries/XMCLib/inc\xmc_usic.h **** {
 537:C:/Users/±è°æ¹Î/Desktop/IFX_S2GL-HW-SW_V1.1.3/Firmware_Software/DAVE project/S2GL_Doppler/Libraries/XMCLib/inc\xmc_usic.h ****   bool tmp;
 538:C:/Users/±è°æ¹Î/Desktop/IFX_S2GL-HW-SW_V1.1.3/Firmware_Software/DAVE project/S2GL_Doppler/Libraries/XMCLib/inc\xmc_usic.h **** 
 539:C:/Users/±è°æ¹Î/Desktop/IFX_S2GL-HW-SW_V1.1.3/Firmware_Software/DAVE project/S2GL_Doppler/Libraries/XMCLib/inc\xmc_usic.h ****   tmp = (module == XMC_USIC0);
 540:C:/Users/±è°æ¹Î/Desktop/IFX_S2GL-HW-SW_V1.1.3/Firmware_Software/DAVE project/S2GL_Doppler/Libraries/XMCLib/inc\xmc_usic.h **** #if defined(XMC_USIC1)  
 541:C:/Users/±è°æ¹Î/Desktop/IFX_S2GL-HW-SW_V1.1.3/Firmware_Software/DAVE project/S2GL_Doppler/Libraries/XMCLib/inc\xmc_usic.h ****   tmp = tmp || (module == XMC_USIC1);
 542:C:/Users/±è°æ¹Î/Desktop/IFX_S2GL-HW-SW_V1.1.3/Firmware_Software/DAVE project/S2GL_Doppler/Libraries/XMCLib/inc\xmc_usic.h **** #endif
 543:C:/Users/±è°æ¹Î/Desktop/IFX_S2GL-HW-SW_V1.1.3/Firmware_Software/DAVE project/S2GL_Doppler/Libraries/XMCLib/inc\xmc_usic.h **** #if defined(XMC_USIC2)  
 544:C:/Users/±è°æ¹Î/Desktop/IFX_S2GL-HW-SW_V1.1.3/Firmware_Software/DAVE project/S2GL_Doppler/Libraries/XMCLib/inc\xmc_usic.h ****   tmp = tmp || (module == XMC_USIC2);
 545:C:/Users/±è°æ¹Î/Desktop/IFX_S2GL-HW-SW_V1.1.3/Firmware_Software/DAVE project/S2GL_Doppler/Libraries/XMCLib/inc\xmc_usic.h **** #endif
 546:C:/Users/±è°æ¹Î/Desktop/IFX_S2GL-HW-SW_V1.1.3/Firmware_Software/DAVE project/S2GL_Doppler/Libraries/XMCLib/inc\xmc_usic.h **** 
 547:C:/Users/±è°æ¹Î/Desktop/IFX_S2GL-HW-SW_V1.1.3/Firmware_Software/DAVE project/S2GL_Doppler/Libraries/XMCLib/inc\xmc_usic.h ****   return tmp;
 548:C:/Users/±è°æ¹Î/Desktop/IFX_S2GL-HW-SW_V1.1.3/Firmware_Software/DAVE project/S2GL_Doppler/Libraries/XMCLib/inc\xmc_usic.h **** }
 549:C:/Users/±è°æ¹Î/Desktop/IFX_S2GL-HW-SW_V1.1.3/Firmware_Software/DAVE project/S2GL_Doppler/Libraries/XMCLib/inc\xmc_usic.h **** 
 550:C:/Users/±è°æ¹Î/Desktop/IFX_S2GL-HW-SW_V1.1.3/Firmware_Software/DAVE project/S2GL_Doppler/Libraries/XMCLib/inc\xmc_usic.h **** __STATIC_INLINE bool XMC_USIC_IsChannelValid(const XMC_USIC_CH_t *const channel)
 551:C:/Users/±è°æ¹Î/Desktop/IFX_S2GL-HW-SW_V1.1.3/Firmware_Software/DAVE project/S2GL_Doppler/Libraries/XMCLib/inc\xmc_usic.h **** {
 552:C:/Users/±è°æ¹Î/Desktop/IFX_S2GL-HW-SW_V1.1.3/Firmware_Software/DAVE project/S2GL_Doppler/Libraries/XMCLib/inc\xmc_usic.h ****   bool tmp;
 553:C:/Users/±è°æ¹Î/Desktop/IFX_S2GL-HW-SW_V1.1.3/Firmware_Software/DAVE project/S2GL_Doppler/Libraries/XMCLib/inc\xmc_usic.h **** 
 554:C:/Users/±è°æ¹Î/Desktop/IFX_S2GL-HW-SW_V1.1.3/Firmware_Software/DAVE project/S2GL_Doppler/Libraries/XMCLib/inc\xmc_usic.h ****   tmp = ((channel == XMC_USIC0_CH0) || (channel == XMC_USIC0_CH1));
 555:C:/Users/±è°æ¹Î/Desktop/IFX_S2GL-HW-SW_V1.1.3/Firmware_Software/DAVE project/S2GL_Doppler/Libraries/XMCLib/inc\xmc_usic.h **** #if defined(XMC_USIC1)  
 556:C:/Users/±è°æ¹Î/Desktop/IFX_S2GL-HW-SW_V1.1.3/Firmware_Software/DAVE project/S2GL_Doppler/Libraries/XMCLib/inc\xmc_usic.h ****   tmp = tmp || ((channel == XMC_USIC1_CH0) || (channel == XMC_USIC1_CH1));
 557:C:/Users/±è°æ¹Î/Desktop/IFX_S2GL-HW-SW_V1.1.3/Firmware_Software/DAVE project/S2GL_Doppler/Libraries/XMCLib/inc\xmc_usic.h **** #endif
 558:C:/Users/±è°æ¹Î/Desktop/IFX_S2GL-HW-SW_V1.1.3/Firmware_Software/DAVE project/S2GL_Doppler/Libraries/XMCLib/inc\xmc_usic.h **** #if defined(XMC_USIC2)  
 559:C:/Users/±è°æ¹Î/Desktop/IFX_S2GL-HW-SW_V1.1.3/Firmware_Software/DAVE project/S2GL_Doppler/Libraries/XMCLib/inc\xmc_usic.h ****   tmp = tmp || ((channel == XMC_USIC2_CH0) || (channel == XMC_USIC2_CH1));
 560:C:/Users/±è°æ¹Î/Desktop/IFX_S2GL-HW-SW_V1.1.3/Firmware_Software/DAVE project/S2GL_Doppler/Libraries/XMCLib/inc\xmc_usic.h **** #endif
 561:C:/Users/±è°æ¹Î/Desktop/IFX_S2GL-HW-SW_V1.1.3/Firmware_Software/DAVE project/S2GL_Doppler/Libraries/XMCLib/inc\xmc_usic.h **** 
 562:C:/Users/±è°æ¹Î/Desktop/IFX_S2GL-HW-SW_V1.1.3/Firmware_Software/DAVE project/S2GL_Doppler/Libraries/XMCLib/inc\xmc_usic.h ****   return tmp;
 563:C:/Users/±è°æ¹Î/Desktop/IFX_S2GL-HW-SW_V1.1.3/Firmware_Software/DAVE project/S2GL_Doppler/Libraries/XMCLib/inc\xmc_usic.h **** }
 564:C:/Users/±è°æ¹Î/Desktop/IFX_S2GL-HW-SW_V1.1.3/Firmware_Software/DAVE project/S2GL_Doppler/Libraries/XMCLib/inc\xmc_usic.h **** 
 565:C:/Users/±è°æ¹Î/Desktop/IFX_S2GL-HW-SW_V1.1.3/Firmware_Software/DAVE project/S2GL_Doppler/Libraries/XMCLib/inc\xmc_usic.h **** /* Common APIs */
 566:C:/Users/±è°æ¹Î/Desktop/IFX_S2GL-HW-SW_V1.1.3/Firmware_Software/DAVE project/S2GL_Doppler/Libraries/XMCLib/inc\xmc_usic.h **** 
 567:C:/Users/±è°æ¹Î/Desktop/IFX_S2GL-HW-SW_V1.1.3/Firmware_Software/DAVE project/S2GL_Doppler/Libraries/XMCLib/inc\xmc_usic.h **** /**
 568:C:/Users/±è°æ¹Î/Desktop/IFX_S2GL-HW-SW_V1.1.3/Firmware_Software/DAVE project/S2GL_Doppler/Libraries/XMCLib/inc\xmc_usic.h ****  * @param  usic Pointer to USIC module handler of type @ref XMC_USIC_t.\n
 569:C:/Users/±è°æ¹Î/Desktop/IFX_S2GL-HW-SW_V1.1.3/Firmware_Software/DAVE project/S2GL_Doppler/Libraries/XMCLib/inc\xmc_usic.h ****  * 				\b Range: @ref XMC_USIC0 to @ref XMC_USIC2 based on device support.
 570:C:/Users/±è°æ¹Î/Desktop/IFX_S2GL-HW-SW_V1.1.3/Firmware_Software/DAVE project/S2GL_Doppler/Libraries/XMCLib/inc\xmc_usic.h ****  * @return None
 571:C:/Users/±è°æ¹Î/Desktop/IFX_S2GL-HW-SW_V1.1.3/Firmware_Software/DAVE project/S2GL_Doppler/Libraries/XMCLib/inc\xmc_usic.h ****  * 
 572:C:/Users/±è°æ¹Î/Desktop/IFX_S2GL-HW-SW_V1.1.3/Firmware_Software/DAVE project/S2GL_Doppler/Libraries/XMCLib/inc\xmc_usic.h ****  * \par<b>Description</b><br>
 573:C:/Users/±è°æ¹Î/Desktop/IFX_S2GL-HW-SW_V1.1.3/Firmware_Software/DAVE project/S2GL_Doppler/Libraries/XMCLib/inc\xmc_usic.h ****  * Enables the USIC module.\n\n
 574:C:/Users/±è°æ¹Î/Desktop/IFX_S2GL-HW-SW_V1.1.3/Firmware_Software/DAVE project/S2GL_Doppler/Libraries/XMCLib/inc\xmc_usic.h ****  * Enables the clock for the USIC module by following the
 575:C:/Users/±è°æ¹Î/Desktop/IFX_S2GL-HW-SW_V1.1.3/Firmware_Software/DAVE project/S2GL_Doppler/Libraries/XMCLib/inc\xmc_usic.h ****  * clock enabling sequence for the selected device.
 576:C:/Users/±è°æ¹Î/Desktop/IFX_S2GL-HW-SW_V1.1.3/Firmware_Software/DAVE project/S2GL_Doppler/Libraries/XMCLib/inc\xmc_usic.h ****  *
 577:C:/Users/±è°æ¹Î/Desktop/IFX_S2GL-HW-SW_V1.1.3/Firmware_Software/DAVE project/S2GL_Doppler/Libraries/XMCLib/inc\xmc_usic.h ****  * \par<b>Related APIs:</b><BR>
 578:C:/Users/±è°æ¹Î/Desktop/IFX_S2GL-HW-SW_V1.1.3/Firmware_Software/DAVE project/S2GL_Doppler/Libraries/XMCLib/inc\xmc_usic.h ****  * XMC_USIC_CH_Enable(), XMC_USIC_Disable() \n\n\n
 579:C:/Users/±è°æ¹Î/Desktop/IFX_S2GL-HW-SW_V1.1.3/Firmware_Software/DAVE project/S2GL_Doppler/Libraries/XMCLib/inc\xmc_usic.h ****  */
 580:C:/Users/±è°æ¹Î/Desktop/IFX_S2GL-HW-SW_V1.1.3/Firmware_Software/DAVE project/S2GL_Doppler/Libraries/XMCLib/inc\xmc_usic.h **** void XMC_USIC_Enable(XMC_USIC_t *const usic);
 581:C:/Users/±è°æ¹Î/Desktop/IFX_S2GL-HW-SW_V1.1.3/Firmware_Software/DAVE project/S2GL_Doppler/Libraries/XMCLib/inc\xmc_usic.h **** /**
 582:C:/Users/±è°æ¹Î/Desktop/IFX_S2GL-HW-SW_V1.1.3/Firmware_Software/DAVE project/S2GL_Doppler/Libraries/XMCLib/inc\xmc_usic.h ****  * @param  usic Pointer to USIC module handler of type @ref XMC_USIC_t.\n
 583:C:/Users/±è°æ¹Î/Desktop/IFX_S2GL-HW-SW_V1.1.3/Firmware_Software/DAVE project/S2GL_Doppler/Libraries/XMCLib/inc\xmc_usic.h ****  * 				\b Range: @ref XMC_USIC0 to @ref XMC_USIC2 based on device support.
 584:C:/Users/±è°æ¹Î/Desktop/IFX_S2GL-HW-SW_V1.1.3/Firmware_Software/DAVE project/S2GL_Doppler/Libraries/XMCLib/inc\xmc_usic.h ****  * @return None
 585:C:/Users/±è°æ¹Î/Desktop/IFX_S2GL-HW-SW_V1.1.3/Firmware_Software/DAVE project/S2GL_Doppler/Libraries/XMCLib/inc\xmc_usic.h ****  *
 586:C:/Users/±è°æ¹Î/Desktop/IFX_S2GL-HW-SW_V1.1.3/Firmware_Software/DAVE project/S2GL_Doppler/Libraries/XMCLib/inc\xmc_usic.h ****  * \par<b>Description</b><br>
 587:C:/Users/±è°æ¹Î/Desktop/IFX_S2GL-HW-SW_V1.1.3/Firmware_Software/DAVE project/S2GL_Doppler/Libraries/XMCLib/inc\xmc_usic.h ****  * Disables the USIC module.\n\n
 588:C:/Users/±è°æ¹Î/Desktop/IFX_S2GL-HW-SW_V1.1.3/Firmware_Software/DAVE project/S2GL_Doppler/Libraries/XMCLib/inc\xmc_usic.h ****  * Disables the clock for the USIC module by following the clock
 589:C:/Users/±è°æ¹Î/Desktop/IFX_S2GL-HW-SW_V1.1.3/Firmware_Software/DAVE project/S2GL_Doppler/Libraries/XMCLib/inc\xmc_usic.h ****  * disabling sequence for the selected device.
 590:C:/Users/±è°æ¹Î/Desktop/IFX_S2GL-HW-SW_V1.1.3/Firmware_Software/DAVE project/S2GL_Doppler/Libraries/XMCLib/inc\xmc_usic.h ****  *
 591:C:/Users/±è°æ¹Î/Desktop/IFX_S2GL-HW-SW_V1.1.3/Firmware_Software/DAVE project/S2GL_Doppler/Libraries/XMCLib/inc\xmc_usic.h ****  * \par<b>Related APIs:</b><BR>
 592:C:/Users/±è°æ¹Î/Desktop/IFX_S2GL-HW-SW_V1.1.3/Firmware_Software/DAVE project/S2GL_Doppler/Libraries/XMCLib/inc\xmc_usic.h ****  * XMC_USIC_CH_Disable(), XMC_USIC_Enable() \n\n\n
 593:C:/Users/±è°æ¹Î/Desktop/IFX_S2GL-HW-SW_V1.1.3/Firmware_Software/DAVE project/S2GL_Doppler/Libraries/XMCLib/inc\xmc_usic.h ****  */
 594:C:/Users/±è°æ¹Î/Desktop/IFX_S2GL-HW-SW_V1.1.3/Firmware_Software/DAVE project/S2GL_Doppler/Libraries/XMCLib/inc\xmc_usic.h **** void XMC_USIC_Disable(XMC_USIC_t *const usic);
 595:C:/Users/±è°æ¹Î/Desktop/IFX_S2GL-HW-SW_V1.1.3/Firmware_Software/DAVE project/S2GL_Doppler/Libraries/XMCLib/inc\xmc_usic.h **** /**
 596:C:/Users/±è°æ¹Î/Desktop/IFX_S2GL-HW-SW_V1.1.3/Firmware_Software/DAVE project/S2GL_Doppler/Libraries/XMCLib/inc\xmc_usic.h ****  * @param  channel Pointer to USIC channel handler of type @ref XMC_USIC_CH_t \n
 597:C:/Users/±è°æ¹Î/Desktop/IFX_S2GL-HW-SW_V1.1.3/Firmware_Software/DAVE project/S2GL_Doppler/Libraries/XMCLib/inc\xmc_usic.h ****  * 				   \b Range: @ref XMC_USIC0_CH0, @ref XMC_USIC0_CH1 to @ref XMC_USIC2_CH1 based on device su
 598:C:/Users/±è°æ¹Î/Desktop/IFX_S2GL-HW-SW_V1.1.3/Firmware_Software/DAVE project/S2GL_Doppler/Libraries/XMCLib/inc\xmc_usic.h ****  * @return None
 599:C:/Users/±è°æ¹Î/Desktop/IFX_S2GL-HW-SW_V1.1.3/Firmware_Software/DAVE project/S2GL_Doppler/Libraries/XMCLib/inc\xmc_usic.h ****  *
 600:C:/Users/±è°æ¹Î/Desktop/IFX_S2GL-HW-SW_V1.1.3/Firmware_Software/DAVE project/S2GL_Doppler/Libraries/XMCLib/inc\xmc_usic.h ****  * \par<b>Description</b><br>
 601:C:/Users/±è°æ¹Î/Desktop/IFX_S2GL-HW-SW_V1.1.3/Firmware_Software/DAVE project/S2GL_Doppler/Libraries/XMCLib/inc\xmc_usic.h ****  * Enables the USIC channel. \n\n
 602:C:/Users/±è°æ¹Î/Desktop/IFX_S2GL-HW-SW_V1.1.3/Firmware_Software/DAVE project/S2GL_Doppler/Libraries/XMCLib/inc\xmc_usic.h ****  * USIC channel is enabled by setting the module enable bit in KSCFG register bitfield MODEN.
 603:C:/Users/±è°æ¹Î/Desktop/IFX_S2GL-HW-SW_V1.1.3/Firmware_Software/DAVE project/S2GL_Doppler/Libraries/XMCLib/inc\xmc_usic.h ****  * On enabling, the channel is set to idle mode.
 604:C:/Users/±è°æ¹Î/Desktop/IFX_S2GL-HW-SW_V1.1.3/Firmware_Software/DAVE project/S2GL_Doppler/Libraries/XMCLib/inc\xmc_usic.h ****  *
 605:C:/Users/±è°æ¹Î/Desktop/IFX_S2GL-HW-SW_V1.1.3/Firmware_Software/DAVE project/S2GL_Doppler/Libraries/XMCLib/inc\xmc_usic.h ****  * \par<b>Related APIs:</b><BR>
 606:C:/Users/±è°æ¹Î/Desktop/IFX_S2GL-HW-SW_V1.1.3/Firmware_Software/DAVE project/S2GL_Doppler/Libraries/XMCLib/inc\xmc_usic.h ****  * XMC_USIC_CH_Disable(), XMC_USIC_Enable() \n\n\n
 607:C:/Users/±è°æ¹Î/Desktop/IFX_S2GL-HW-SW_V1.1.3/Firmware_Software/DAVE project/S2GL_Doppler/Libraries/XMCLib/inc\xmc_usic.h ****  */
 608:C:/Users/±è°æ¹Î/Desktop/IFX_S2GL-HW-SW_V1.1.3/Firmware_Software/DAVE project/S2GL_Doppler/Libraries/XMCLib/inc\xmc_usic.h **** void XMC_USIC_CH_Enable(XMC_USIC_CH_t *const channel);
 609:C:/Users/±è°æ¹Î/Desktop/IFX_S2GL-HW-SW_V1.1.3/Firmware_Software/DAVE project/S2GL_Doppler/Libraries/XMCLib/inc\xmc_usic.h **** /**
 610:C:/Users/±è°æ¹Î/Desktop/IFX_S2GL-HW-SW_V1.1.3/Firmware_Software/DAVE project/S2GL_Doppler/Libraries/XMCLib/inc\xmc_usic.h ****  * @param  channel Pointer to USIC channel handler of type @ref XMC_USIC_CH_t \n
 611:C:/Users/±è°æ¹Î/Desktop/IFX_S2GL-HW-SW_V1.1.3/Firmware_Software/DAVE project/S2GL_Doppler/Libraries/XMCLib/inc\xmc_usic.h ****  * 				   \b Range: @ref XMC_USIC0_CH0, @ref XMC_USIC0_CH1 to @ref XMC_USIC2_CH1 based on device su
 612:C:/Users/±è°æ¹Î/Desktop/IFX_S2GL-HW-SW_V1.1.3/Firmware_Software/DAVE project/S2GL_Doppler/Libraries/XMCLib/inc\xmc_usic.h ****  * @return None
 613:C:/Users/±è°æ¹Î/Desktop/IFX_S2GL-HW-SW_V1.1.3/Firmware_Software/DAVE project/S2GL_Doppler/Libraries/XMCLib/inc\xmc_usic.h ****  *
 614:C:/Users/±è°æ¹Î/Desktop/IFX_S2GL-HW-SW_V1.1.3/Firmware_Software/DAVE project/S2GL_Doppler/Libraries/XMCLib/inc\xmc_usic.h ****  * \par<b>Description</b><br>
 615:C:/Users/±è°æ¹Î/Desktop/IFX_S2GL-HW-SW_V1.1.3/Firmware_Software/DAVE project/S2GL_Doppler/Libraries/XMCLib/inc\xmc_usic.h ****  * Disables the USIC channel.\n\n
 616:C:/Users/±è°æ¹Î/Desktop/IFX_S2GL-HW-SW_V1.1.3/Firmware_Software/DAVE project/S2GL_Doppler/Libraries/XMCLib/inc\xmc_usic.h ****  * USIC channel is disabled by setting the module enable bit(MDEN) to 0 in the register KSCFG.
 617:C:/Users/±è°æ¹Î/Desktop/IFX_S2GL-HW-SW_V1.1.3/Firmware_Software/DAVE project/S2GL_Doppler/Libraries/XMCLib/inc\xmc_usic.h ****  *
 618:C:/Users/±è°æ¹Î/Desktop/IFX_S2GL-HW-SW_V1.1.3/Firmware_Software/DAVE project/S2GL_Doppler/Libraries/XMCLib/inc\xmc_usic.h ****  * \par<b>Related APIs:</b><BR>
 619:C:/Users/±è°æ¹Î/Desktop/IFX_S2GL-HW-SW_V1.1.3/Firmware_Software/DAVE project/S2GL_Doppler/Libraries/XMCLib/inc\xmc_usic.h ****  * XMC_USIC_CH_Enable(), XMC_USIC_Disable() \n\n\n
 620:C:/Users/±è°æ¹Î/Desktop/IFX_S2GL-HW-SW_V1.1.3/Firmware_Software/DAVE project/S2GL_Doppler/Libraries/XMCLib/inc\xmc_usic.h ****  */
 621:C:/Users/±è°æ¹Î/Desktop/IFX_S2GL-HW-SW_V1.1.3/Firmware_Software/DAVE project/S2GL_Doppler/Libraries/XMCLib/inc\xmc_usic.h **** void XMC_USIC_CH_Disable(XMC_USIC_CH_t *const channel);
 622:C:/Users/±è°æ¹Î/Desktop/IFX_S2GL-HW-SW_V1.1.3/Firmware_Software/DAVE project/S2GL_Doppler/Libraries/XMCLib/inc\xmc_usic.h **** 
 623:C:/Users/±è°æ¹Î/Desktop/IFX_S2GL-HW-SW_V1.1.3/Firmware_Software/DAVE project/S2GL_Doppler/Libraries/XMCLib/inc\xmc_usic.h **** /**
 624:C:/Users/±è°æ¹Î/Desktop/IFX_S2GL-HW-SW_V1.1.3/Firmware_Software/DAVE project/S2GL_Doppler/Libraries/XMCLib/inc\xmc_usic.h ****  * @param  channel Pointer to USIC channel handler of type @ref XMC_USIC_CH_t \n
 625:C:/Users/±è°æ¹Î/Desktop/IFX_S2GL-HW-SW_V1.1.3/Firmware_Software/DAVE project/S2GL_Doppler/Libraries/XMCLib/inc\xmc_usic.h ****  * 				   \b Range: @ref XMC_USIC0_CH0, @ref XMC_USIC0_CH1 to @ref XMC_USIC2_CH1 based on device su
 626:C:/Users/±è°æ¹Î/Desktop/IFX_S2GL-HW-SW_V1.1.3/Firmware_Software/DAVE project/S2GL_Doppler/Libraries/XMCLib/inc\xmc_usic.h ****  * @param  rate Desired baudrate. \b Range: minimum value = 100, maximum value depends on the perip
 627:C:/Users/±è°æ¹Î/Desktop/IFX_S2GL-HW-SW_V1.1.3/Firmware_Software/DAVE project/S2GL_Doppler/Libraries/XMCLib/inc\xmc_usic.h ****  * 				and \a oversampling. Maximum baudrate can be derived using the formula: (fperiph * 1023)/(10
 628:C:/Users/±è°æ¹Î/Desktop/IFX_S2GL-HW-SW_V1.1.3/Firmware_Software/DAVE project/S2GL_Doppler/Libraries/XMCLib/inc\xmc_usic.h ****  * @param  oversampling Required oversampling. The value indicates the number of time quanta for on
 629:C:/Users/±è°æ¹Î/Desktop/IFX_S2GL-HW-SW_V1.1.3/Firmware_Software/DAVE project/S2GL_Doppler/Libraries/XMCLib/inc\xmc_usic.h ****  * 						This can be related to the number of samples for each logic state of the data signal. \n
 630:C:/Users/±è°æ¹Î/Desktop/IFX_S2GL-HW-SW_V1.1.3/Firmware_Software/DAVE project/S2GL_Doppler/Libraries/XMCLib/inc\xmc_usic.h ****  * 						\b Range: 1 to 32. Value should be chosen based on the protocol used.
 631:C:/Users/±è°æ¹Î/Desktop/IFX_S2GL-HW-SW_V1.1.3/Firmware_Software/DAVE project/S2GL_Doppler/Libraries/XMCLib/inc\xmc_usic.h ****  * @return Status indicating the baudrate configuration.\n
 632:C:/Users/±è°æ¹Î/Desktop/IFX_S2GL-HW-SW_V1.1.3/Firmware_Software/DAVE project/S2GL_Doppler/Libraries/XMCLib/inc\xmc_usic.h ****  * 			\b Range: @ref XMC_USIC_CH_STATUS_OK if baudrate is successfully configured,
 633:C:/Users/±è°æ¹Î/Desktop/IFX_S2GL-HW-SW_V1.1.3/Firmware_Software/DAVE project/S2GL_Doppler/Libraries/XMCLib/inc\xmc_usic.h ****  * 					  @ref XMC_USIC_CH_STATUS_ERROR if desired baudrate or oversampling is invalid.
 634:C:/Users/±è°æ¹Î/Desktop/IFX_S2GL-HW-SW_V1.1.3/Firmware_Software/DAVE project/S2GL_Doppler/Libraries/XMCLib/inc\xmc_usic.h ****  *
 635:C:/Users/±è°æ¹Î/Desktop/IFX_S2GL-HW-SW_V1.1.3/Firmware_Software/DAVE project/S2GL_Doppler/Libraries/XMCLib/inc\xmc_usic.h ****  * \par<b>Description</b><br>
 636:C:/Users/±è°æ¹Î/Desktop/IFX_S2GL-HW-SW_V1.1.3/Firmware_Software/DAVE project/S2GL_Doppler/Libraries/XMCLib/inc\xmc_usic.h ****  * Configures the baudrate of the USIC channel. \n\n
 637:C:/Users/±è°æ¹Î/Desktop/IFX_S2GL-HW-SW_V1.1.3/Firmware_Software/DAVE project/S2GL_Doppler/Libraries/XMCLib/inc\xmc_usic.h ****  * Baudrate is configured by considering the peripheral frequency and the desired baudrate.
 638:C:/Users/±è°æ¹Î/Desktop/IFX_S2GL-HW-SW_V1.1.3/Firmware_Software/DAVE project/S2GL_Doppler/Libraries/XMCLib/inc\xmc_usic.h ****  * Optimum values of FDR->STEP and BRG->PDIV are calulated and used for generating the desired
 639:C:/Users/±è°æ¹Î/Desktop/IFX_S2GL-HW-SW_V1.1.3/Firmware_Software/DAVE project/S2GL_Doppler/Libraries/XMCLib/inc\xmc_usic.h ****  * baudrate.
 640:C:/Users/±è°æ¹Î/Desktop/IFX_S2GL-HW-SW_V1.1.3/Firmware_Software/DAVE project/S2GL_Doppler/Libraries/XMCLib/inc\xmc_usic.h ****  *
 641:C:/Users/±è°æ¹Î/Desktop/IFX_S2GL-HW-SW_V1.1.3/Firmware_Software/DAVE project/S2GL_Doppler/Libraries/XMCLib/inc\xmc_usic.h ****  * \par<b>Related APIs:</b><BR>
 642:C:/Users/±è°æ¹Î/Desktop/IFX_S2GL-HW-SW_V1.1.3/Firmware_Software/DAVE project/S2GL_Doppler/Libraries/XMCLib/inc\xmc_usic.h ****  * XMC_USIC_CH_SetStartTransmisionMode(), XMC_USIC_CH_SetInputSource() \n\n\n
 643:C:/Users/±è°æ¹Î/Desktop/IFX_S2GL-HW-SW_V1.1.3/Firmware_Software/DAVE project/S2GL_Doppler/Libraries/XMCLib/inc\xmc_usic.h ****  */
 644:C:/Users/±è°æ¹Î/Desktop/IFX_S2GL-HW-SW_V1.1.3/Firmware_Software/DAVE project/S2GL_Doppler/Libraries/XMCLib/inc\xmc_usic.h **** XMC_USIC_CH_STATUS_t XMC_USIC_CH_SetBaudrate(XMC_USIC_CH_t *const channel, uint32_t rate, uint32_t 
 645:C:/Users/±è°æ¹Î/Desktop/IFX_S2GL-HW-SW_V1.1.3/Firmware_Software/DAVE project/S2GL_Doppler/Libraries/XMCLib/inc\xmc_usic.h **** 
 646:C:/Users/±è°æ¹Î/Desktop/IFX_S2GL-HW-SW_V1.1.3/Firmware_Software/DAVE project/S2GL_Doppler/Libraries/XMCLib/inc\xmc_usic.h **** /**
 647:C:/Users/±è°æ¹Î/Desktop/IFX_S2GL-HW-SW_V1.1.3/Firmware_Software/DAVE project/S2GL_Doppler/Libraries/XMCLib/inc\xmc_usic.h ****  * @param  channel Pointer to USIC channel handler of type @ref XMC_USIC_CH_t \n
 648:C:/Users/±è°æ¹Î/Desktop/IFX_S2GL-HW-SW_V1.1.3/Firmware_Software/DAVE project/S2GL_Doppler/Libraries/XMCLib/inc\xmc_usic.h ****  * 				   \b Range: @ref XMC_USIC0_CH0, @ref XMC_USIC0_CH1 to @ref XMC_USIC2_CH1 based on device su
 649:C:/Users/±è°æ¹Î/Desktop/IFX_S2GL-HW-SW_V1.1.3/Firmware_Software/DAVE project/S2GL_Doppler/Libraries/XMCLib/inc\xmc_usic.h ****  * @param  pdiv Desired divider for the external frequency input. \b Range: minimum value = 1, maxi
 650:C:/Users/±è°æ¹Î/Desktop/IFX_S2GL-HW-SW_V1.1.3/Firmware_Software/DAVE project/S2GL_Doppler/Libraries/XMCLib/inc\xmc_usic.h ****  * @param  oversampling Required oversampling. The value indicates the number of time quanta for on
 651:C:/Users/±è°æ¹Î/Desktop/IFX_S2GL-HW-SW_V1.1.3/Firmware_Software/DAVE project/S2GL_Doppler/Libraries/XMCLib/inc\xmc_usic.h ****  * 						This can be related to the number of samples for each logic state of the data signal. \n
 652:C:/Users/±è°æ¹Î/Desktop/IFX_S2GL-HW-SW_V1.1.3/Firmware_Software/DAVE project/S2GL_Doppler/Libraries/XMCLib/inc\xmc_usic.h ****  * 						\b Range: 1 to 32. Value should be chosen based on the protocol used.
 653:C:/Users/±è°æ¹Î/Desktop/IFX_S2GL-HW-SW_V1.1.3/Firmware_Software/DAVE project/S2GL_Doppler/Libraries/XMCLib/inc\xmc_usic.h ****  * @param  combination_mode Selects which edge of the synchronized(and optionally filtered) signal 
 654:C:/Users/±è°æ¹Î/Desktop/IFX_S2GL-HW-SW_V1.1.3/Firmware_Software/DAVE project/S2GL_Doppler/Libraries/XMCLib/inc\xmc_usic.h ****  *                          output DXnT of the input stage.
 655:C:/Users/±è°æ¹Î/Desktop/IFX_S2GL-HW-SW_V1.1.3/Firmware_Software/DAVE project/S2GL_Doppler/Libraries/XMCLib/inc\xmc_usic.h ****  *
 656:C:/Users/±è°æ¹Î/Desktop/IFX_S2GL-HW-SW_V1.1.3/Firmware_Software/DAVE project/S2GL_Doppler/Libraries/XMCLib/inc\xmc_usic.h ****  * @return None
 657:C:/Users/±è°æ¹Î/Desktop/IFX_S2GL-HW-SW_V1.1.3/Firmware_Software/DAVE project/S2GL_Doppler/Libraries/XMCLib/inc\xmc_usic.h ****  *
 658:C:/Users/±è°æ¹Î/Desktop/IFX_S2GL-HW-SW_V1.1.3/Firmware_Software/DAVE project/S2GL_Doppler/Libraries/XMCLib/inc\xmc_usic.h ****  * \par<b>Description</b><br>
 659:C:/Users/±è°æ¹Î/Desktop/IFX_S2GL-HW-SW_V1.1.3/Firmware_Software/DAVE project/S2GL_Doppler/Libraries/XMCLib/inc\xmc_usic.h ****  * Enables the external frequency input for the Baudrate Generator and configures the divider, over
 660:C:/Users/±è°æ¹Î/Desktop/IFX_S2GL-HW-SW_V1.1.3/Firmware_Software/DAVE project/S2GL_Doppler/Libraries/XMCLib/inc\xmc_usic.h ****  * the combination mode of the USIC channel. \n\n
 661:C:/Users/±è°æ¹Î/Desktop/IFX_S2GL-HW-SW_V1.1.3/Firmware_Software/DAVE project/S2GL_Doppler/Libraries/XMCLib/inc\xmc_usic.h ****  *
 662:C:/Users/±è°æ¹Î/Desktop/IFX_S2GL-HW-SW_V1.1.3/Firmware_Software/DAVE project/S2GL_Doppler/Libraries/XMCLib/inc\xmc_usic.h ****  * \par<b>Related APIs:</b><BR>
 663:C:/Users/±è°æ¹Î/Desktop/IFX_S2GL-HW-SW_V1.1.3/Firmware_Software/DAVE project/S2GL_Doppler/Libraries/XMCLib/inc\xmc_usic.h ****  * XMC_USIC_CH_SetBRGInputClockSource(), XMC_USIC_CH_SetInputTriggerCombinationMode() \n\n\n
 664:C:/Users/±è°æ¹Î/Desktop/IFX_S2GL-HW-SW_V1.1.3/Firmware_Software/DAVE project/S2GL_Doppler/Libraries/XMCLib/inc\xmc_usic.h ****  */
 665:C:/Users/±è°æ¹Î/Desktop/IFX_S2GL-HW-SW_V1.1.3/Firmware_Software/DAVE project/S2GL_Doppler/Libraries/XMCLib/inc\xmc_usic.h **** void XMC_USIC_CH_ConfigExternalInputSignalToBRG(XMC_USIC_CH_t *const channel,
 666:C:/Users/±è°æ¹Î/Desktop/IFX_S2GL-HW-SW_V1.1.3/Firmware_Software/DAVE project/S2GL_Doppler/Libraries/XMCLib/inc\xmc_usic.h **** 		                                         const uint16_t pdiv,
 667:C:/Users/±è°æ¹Î/Desktop/IFX_S2GL-HW-SW_V1.1.3/Firmware_Software/DAVE project/S2GL_Doppler/Libraries/XMCLib/inc\xmc_usic.h **** 												 const uint32_t oversampling,
 668:C:/Users/±è°æ¹Î/Desktop/IFX_S2GL-HW-SW_V1.1.3/Firmware_Software/DAVE project/S2GL_Doppler/Libraries/XMCLib/inc\xmc_usic.h **** 												 const XMC_USIC_CH_INPUT_COMBINATION_MODE_t combination_mode);
 669:C:/Users/±è°æ¹Î/Desktop/IFX_S2GL-HW-SW_V1.1.3/Firmware_Software/DAVE project/S2GL_Doppler/Libraries/XMCLib/inc\xmc_usic.h **** 
 670:C:/Users/±è°æ¹Î/Desktop/IFX_S2GL-HW-SW_V1.1.3/Firmware_Software/DAVE project/S2GL_Doppler/Libraries/XMCLib/inc\xmc_usic.h **** /**
 671:C:/Users/±è°æ¹Î/Desktop/IFX_S2GL-HW-SW_V1.1.3/Firmware_Software/DAVE project/S2GL_Doppler/Libraries/XMCLib/inc\xmc_usic.h ****  * @param  channel Pointer to USIC channel handler of type @ref XMC_USIC_CH_t \n
 672:C:/Users/±è°æ¹Î/Desktop/IFX_S2GL-HW-SW_V1.1.3/Firmware_Software/DAVE project/S2GL_Doppler/Libraries/XMCLib/inc\xmc_usic.h ****  * 				   \b Range: @ref XMC_USIC0_CH0, @ref XMC_USIC0_CH1 to @ref XMC_USIC2_CH1 based on device su
 673:C:/Users/±è°æ¹Î/Desktop/IFX_S2GL-HW-SW_V1.1.3/Firmware_Software/DAVE project/S2GL_Doppler/Libraries/XMCLib/inc\xmc_usic.h ****  * @param  input USIC channel input stage of type @ref XMC_USIC_CH_INPUT_t. \n
 674:C:/Users/±è°æ¹Î/Desktop/IFX_S2GL-HW-SW_V1.1.3/Firmware_Software/DAVE project/S2GL_Doppler/Libraries/XMCLib/inc\xmc_usic.h ****  * 				 \b Range: @ref XMC_USIC_CH_INPUT_DX0 to @ref XMC_USIC_CH_INPUT_DX5
 675:C:/Users/±è°æ¹Î/Desktop/IFX_S2GL-HW-SW_V1.1.3/Firmware_Software/DAVE project/S2GL_Doppler/Libraries/XMCLib/inc\xmc_usic.h ****  * @param  source Input source select for the input stage. The table below maps the enum value with
 676:C:/Users/±è°æ¹Î/Desktop/IFX_S2GL-HW-SW_V1.1.3/Firmware_Software/DAVE project/S2GL_Doppler/Libraries/XMCLib/inc\xmc_usic.h ****  * <table><tr><td>0</td><td>DXnA</td></tr><tr><td>1</td><td>DXnB</td></tr><tr><td>2</td><td>DXnC</t
 677:C:/Users/±è°æ¹Î/Desktop/IFX_S2GL-HW-SW_V1.1.3/Firmware_Software/DAVE project/S2GL_Doppler/Libraries/XMCLib/inc\xmc_usic.h ****  * <tr><td>4</td><td>DXnE</td></tr><tr><td>5</td><td>DXnF</td></tr><tr><td>6</td><td>DXnG</td></tr>
 678:C:/Users/±è°æ¹Î/Desktop/IFX_S2GL-HW-SW_V1.1.3/Firmware_Software/DAVE project/S2GL_Doppler/Libraries/XMCLib/inc\xmc_usic.h ****  * </tr></table>
 679:C:/Users/±è°æ¹Î/Desktop/IFX_S2GL-HW-SW_V1.1.3/Firmware_Software/DAVE project/S2GL_Doppler/Libraries/XMCLib/inc\xmc_usic.h ****  * @return None
 680:C:/Users/±è°æ¹Î/Desktop/IFX_S2GL-HW-SW_V1.1.3/Firmware_Software/DAVE project/S2GL_Doppler/Libraries/XMCLib/inc\xmc_usic.h ****  *
 681:C:/Users/±è°æ¹Î/Desktop/IFX_S2GL-HW-SW_V1.1.3/Firmware_Software/DAVE project/S2GL_Doppler/Libraries/XMCLib/inc\xmc_usic.h ****  * \par<b>Description</b><br>
 682:C:/Users/±è°æ¹Î/Desktop/IFX_S2GL-HW-SW_V1.1.3/Firmware_Software/DAVE project/S2GL_Doppler/Libraries/XMCLib/inc\xmc_usic.h ****  * Selects the data source for USIC input stage.\n\n
 683:C:/Users/±è°æ¹Î/Desktop/IFX_S2GL-HW-SW_V1.1.3/Firmware_Software/DAVE project/S2GL_Doppler/Libraries/XMCLib/inc\xmc_usic.h ****  * Selects the input data signal source among DXnA, DXnB.. DXnG for the input stage. The API can be
 684:C:/Users/±è°æ¹Î/Desktop/IFX_S2GL-HW-SW_V1.1.3/Firmware_Software/DAVE project/S2GL_Doppler/Libraries/XMCLib/inc\xmc_usic.h ****  * like DX0CR, DX1CR etc. 
 685:C:/Users/±è°æ¹Î/Desktop/IFX_S2GL-HW-SW_V1.1.3/Firmware_Software/DAVE project/S2GL_Doppler/Libraries/XMCLib/inc\xmc_usic.h ****  *  
 686:C:/Users/±è°æ¹Î/Desktop/IFX_S2GL-HW-SW_V1.1.3/Firmware_Software/DAVE project/S2GL_Doppler/Libraries/XMCLib/inc\xmc_usic.h ****  * \par<b>Related APIs:</b><BR>
 687:C:/Users/±è°æ¹Î/Desktop/IFX_S2GL-HW-SW_V1.1.3/Firmware_Software/DAVE project/S2GL_Doppler/Libraries/XMCLib/inc\xmc_usic.h ****  * XMC_USIC_CH_EnableInputInversion(), XMC_USIC_CH_EnableInputDigitalFilter(), XMC_USIC_CH_EnableIn
 688:C:/Users/±è°æ¹Î/Desktop/IFX_S2GL-HW-SW_V1.1.3/Firmware_Software/DAVE project/S2GL_Doppler/Libraries/XMCLib/inc\xmc_usic.h ****  * XMC_USIC_CH_SetInputSamplingFreq()\n\n\n
 689:C:/Users/±è°æ¹Î/Desktop/IFX_S2GL-HW-SW_V1.1.3/Firmware_Software/DAVE project/S2GL_Doppler/Libraries/XMCLib/inc\xmc_usic.h ****  */
 690:C:/Users/±è°æ¹Î/Desktop/IFX_S2GL-HW-SW_V1.1.3/Firmware_Software/DAVE project/S2GL_Doppler/Libraries/XMCLib/inc\xmc_usic.h **** __STATIC_INLINE void XMC_USIC_CH_SetInputSource(XMC_USIC_CH_t *const channel, const XMC_USIC_CH_INP
 691:C:/Users/±è°æ¹Î/Desktop/IFX_S2GL-HW-SW_V1.1.3/Firmware_Software/DAVE project/S2GL_Doppler/Libraries/XMCLib/inc\xmc_usic.h **** {
 692:C:/Users/±è°æ¹Î/Desktop/IFX_S2GL-HW-SW_V1.1.3/Firmware_Software/DAVE project/S2GL_Doppler/Libraries/XMCLib/inc\xmc_usic.h ****   channel->DXCR[input] = (uint32_t)((channel->DXCR[input] & (uint32_t)(~USIC_CH_DXCR_DSEL_Msk)) |
 693:C:/Users/±è°æ¹Î/Desktop/IFX_S2GL-HW-SW_V1.1.3/Firmware_Software/DAVE project/S2GL_Doppler/Libraries/XMCLib/inc\xmc_usic.h ****                          ((uint32_t)source << USIC_CH_DXCR_DSEL_Pos));
 694:C:/Users/±è°æ¹Î/Desktop/IFX_S2GL-HW-SW_V1.1.3/Firmware_Software/DAVE project/S2GL_Doppler/Libraries/XMCLib/inc\xmc_usic.h **** }
 695:C:/Users/±è°æ¹Î/Desktop/IFX_S2GL-HW-SW_V1.1.3/Firmware_Software/DAVE project/S2GL_Doppler/Libraries/XMCLib/inc\xmc_usic.h **** /**
 696:C:/Users/±è°æ¹Î/Desktop/IFX_S2GL-HW-SW_V1.1.3/Firmware_Software/DAVE project/S2GL_Doppler/Libraries/XMCLib/inc\xmc_usic.h ****  * @param  channel Pointer to USIC channel handler of type @ref XMC_USIC_CH_t \n
 697:C:/Users/±è°æ¹Î/Desktop/IFX_S2GL-HW-SW_V1.1.3/Firmware_Software/DAVE project/S2GL_Doppler/Libraries/XMCLib/inc\xmc_usic.h ****  * 				   \b Range: @ref XMC_USIC0_CH0, @ref XMC_USIC0_CH1 to @ref XMC_USIC2_CH1 based on device su
 698:C:/Users/±è°æ¹Î/Desktop/IFX_S2GL-HW-SW_V1.1.3/Firmware_Software/DAVE project/S2GL_Doppler/Libraries/XMCLib/inc\xmc_usic.h ****  * @param  input USIC channel input stage of type @ref XMC_USIC_CH_INPUT_t. \n
 699:C:/Users/±è°æ¹Î/Desktop/IFX_S2GL-HW-SW_V1.1.3/Firmware_Software/DAVE project/S2GL_Doppler/Libraries/XMCLib/inc\xmc_usic.h ****  * 				 \b Range: @ref XMC_USIC_CH_INPUT_DX0 to @ref XMC_USIC_CH_INPUT_DX5
 700:C:/Users/±è°æ¹Î/Desktop/IFX_S2GL-HW-SW_V1.1.3/Firmware_Software/DAVE project/S2GL_Doppler/Libraries/XMCLib/inc\xmc_usic.h ****  * @return None
 701:C:/Users/±è°æ¹Î/Desktop/IFX_S2GL-HW-SW_V1.1.3/Firmware_Software/DAVE project/S2GL_Doppler/Libraries/XMCLib/inc\xmc_usic.h ****  *
 702:C:/Users/±è°æ¹Î/Desktop/IFX_S2GL-HW-SW_V1.1.3/Firmware_Software/DAVE project/S2GL_Doppler/Libraries/XMCLib/inc\xmc_usic.h ****  * \par<b>Description</b><br>
 703:C:/Users/±è°æ¹Î/Desktop/IFX_S2GL-HW-SW_V1.1.3/Firmware_Software/DAVE project/S2GL_Doppler/Libraries/XMCLib/inc\xmc_usic.h ****  * The input of the data shift unit is controlled by the
 704:C:/Users/±è°æ¹Î/Desktop/IFX_S2GL-HW-SW_V1.1.3/Firmware_Software/DAVE project/S2GL_Doppler/Libraries/XMCLib/inc\xmc_usic.h ****  * protocol pre-processor. \n\n
 705:C:/Users/±è°æ¹Î/Desktop/IFX_S2GL-HW-SW_V1.1.3/Firmware_Software/DAVE project/S2GL_Doppler/Libraries/XMCLib/inc\xmc_usic.h ****  *
 706:C:/Users/±è°æ¹Î/Desktop/IFX_S2GL-HW-SW_V1.1.3/Firmware_Software/DAVE project/S2GL_Doppler/Libraries/XMCLib/inc\xmc_usic.h ****  * \par<b>Related APIs:</b><BR>
 707:C:/Users/±è°æ¹Î/Desktop/IFX_S2GL-HW-SW_V1.1.3/Firmware_Software/DAVE project/S2GL_Doppler/Libraries/XMCLib/inc\xmc_usic.h ****  * XMC_USIC_CH_ConnectInputDataShiftToDataInput()\n\n\n
 708:C:/Users/±è°æ¹Î/Desktop/IFX_S2GL-HW-SW_V1.1.3/Firmware_Software/DAVE project/S2GL_Doppler/Libraries/XMCLib/inc\xmc_usic.h ****  */
 709:C:/Users/±è°æ¹Î/Desktop/IFX_S2GL-HW-SW_V1.1.3/Firmware_Software/DAVE project/S2GL_Doppler/Libraries/XMCLib/inc\xmc_usic.h **** __STATIC_INLINE void XMC_USIC_CH_ConnectInputDataShiftToPPP(XMC_USIC_CH_t *const channel, const XMC
 710:C:/Users/±è°æ¹Î/Desktop/IFX_S2GL-HW-SW_V1.1.3/Firmware_Software/DAVE project/S2GL_Doppler/Libraries/XMCLib/inc\xmc_usic.h **** {
 711:C:/Users/±è°æ¹Î/Desktop/IFX_S2GL-HW-SW_V1.1.3/Firmware_Software/DAVE project/S2GL_Doppler/Libraries/XMCLib/inc\xmc_usic.h ****   channel->DXCR[input] &=(uint32_t)~USIC_CH_DXCR_INSW_Msk;
 712:C:/Users/±è°æ¹Î/Desktop/IFX_S2GL-HW-SW_V1.1.3/Firmware_Software/DAVE project/S2GL_Doppler/Libraries/XMCLib/inc\xmc_usic.h **** }
 713:C:/Users/±è°æ¹Î/Desktop/IFX_S2GL-HW-SW_V1.1.3/Firmware_Software/DAVE project/S2GL_Doppler/Libraries/XMCLib/inc\xmc_usic.h **** 
 714:C:/Users/±è°æ¹Î/Desktop/IFX_S2GL-HW-SW_V1.1.3/Firmware_Software/DAVE project/S2GL_Doppler/Libraries/XMCLib/inc\xmc_usic.h **** /**
 715:C:/Users/±è°æ¹Î/Desktop/IFX_S2GL-HW-SW_V1.1.3/Firmware_Software/DAVE project/S2GL_Doppler/Libraries/XMCLib/inc\xmc_usic.h ****  * @param  channel Pointer to USIC channel handler of type @ref XMC_USIC_CH_t \n
 716:C:/Users/±è°æ¹Î/Desktop/IFX_S2GL-HW-SW_V1.1.3/Firmware_Software/DAVE project/S2GL_Doppler/Libraries/XMCLib/inc\xmc_usic.h ****  * 				   \b Range: @ref XMC_USIC0_CH0, @ref XMC_USIC0_CH1 to @ref XMC_USIC2_CH1 based on device su
 717:C:/Users/±è°æ¹Î/Desktop/IFX_S2GL-HW-SW_V1.1.3/Firmware_Software/DAVE project/S2GL_Doppler/Libraries/XMCLib/inc\xmc_usic.h ****  * @param  input USIC channel input stage of type @ref XMC_USIC_CH_INPUT_t. \n
 718:C:/Users/±è°æ¹Î/Desktop/IFX_S2GL-HW-SW_V1.1.3/Firmware_Software/DAVE project/S2GL_Doppler/Libraries/XMCLib/inc\xmc_usic.h ****  * 				 \b Range: @ref XMC_USIC_CH_INPUT_DX0 to @ref XMC_USIC_CH_INPUT_DX5
 719:C:/Users/±è°æ¹Î/Desktop/IFX_S2GL-HW-SW_V1.1.3/Firmware_Software/DAVE project/S2GL_Doppler/Libraries/XMCLib/inc\xmc_usic.h ****  * @return None
 720:C:/Users/±è°æ¹Î/Desktop/IFX_S2GL-HW-SW_V1.1.3/Firmware_Software/DAVE project/S2GL_Doppler/Libraries/XMCLib/inc\xmc_usic.h ****  *
 721:C:/Users/±è°æ¹Î/Desktop/IFX_S2GL-HW-SW_V1.1.3/Firmware_Software/DAVE project/S2GL_Doppler/Libraries/XMCLib/inc\xmc_usic.h ****  * \par<b>Description</b><br>
 722:C:/Users/±è°æ¹Î/Desktop/IFX_S2GL-HW-SW_V1.1.3/Firmware_Software/DAVE project/S2GL_Doppler/Libraries/XMCLib/inc\xmc_usic.h ****  * The input of the data shift unit is connected to
 723:C:/Users/±è°æ¹Î/Desktop/IFX_S2GL-HW-SW_V1.1.3/Firmware_Software/DAVE project/S2GL_Doppler/Libraries/XMCLib/inc\xmc_usic.h ****  * the selected data input line. \n\n
 724:C:/Users/±è°æ¹Î/Desktop/IFX_S2GL-HW-SW_V1.1.3/Firmware_Software/DAVE project/S2GL_Doppler/Libraries/XMCLib/inc\xmc_usic.h ****  *
 725:C:/Users/±è°æ¹Î/Desktop/IFX_S2GL-HW-SW_V1.1.3/Firmware_Software/DAVE project/S2GL_Doppler/Libraries/XMCLib/inc\xmc_usic.h ****  * This setting is used
 726:C:/Users/±è°æ¹Î/Desktop/IFX_S2GL-HW-SW_V1.1.3/Firmware_Software/DAVE project/S2GL_Doppler/Libraries/XMCLib/inc\xmc_usic.h ****  * if the signals are directly derived from an input
 727:C:/Users/±è°æ¹Î/Desktop/IFX_S2GL-HW-SW_V1.1.3/Firmware_Software/DAVE project/S2GL_Doppler/Libraries/XMCLib/inc\xmc_usic.h ****  * pin without treatment by the protocol preprocessor.
 728:C:/Users/±è°æ¹Î/Desktop/IFX_S2GL-HW-SW_V1.1.3/Firmware_Software/DAVE project/S2GL_Doppler/Libraries/XMCLib/inc\xmc_usic.h ****  * \par<b>Related APIs:</b><BR>
 729:C:/Users/±è°æ¹Î/Desktop/IFX_S2GL-HW-SW_V1.1.3/Firmware_Software/DAVE project/S2GL_Doppler/Libraries/XMCLib/inc\xmc_usic.h ****  * XMC_USIC_CH_ConnectInputDataShiftToPPP()\n\n\n
 730:C:/Users/±è°æ¹Î/Desktop/IFX_S2GL-HW-SW_V1.1.3/Firmware_Software/DAVE project/S2GL_Doppler/Libraries/XMCLib/inc\xmc_usic.h ****  */
 731:C:/Users/±è°æ¹Î/Desktop/IFX_S2GL-HW-SW_V1.1.3/Firmware_Software/DAVE project/S2GL_Doppler/Libraries/XMCLib/inc\xmc_usic.h **** __STATIC_INLINE void XMC_USIC_CH_ConnectInputDataShiftToDataInput(XMC_USIC_CH_t *const channel, con
 732:C:/Users/±è°æ¹Î/Desktop/IFX_S2GL-HW-SW_V1.1.3/Firmware_Software/DAVE project/S2GL_Doppler/Libraries/XMCLib/inc\xmc_usic.h **** {
 733:C:/Users/±è°æ¹Î/Desktop/IFX_S2GL-HW-SW_V1.1.3/Firmware_Software/DAVE project/S2GL_Doppler/Libraries/XMCLib/inc\xmc_usic.h ****   channel->DXCR[input] |= USIC_CH_DXCR_INSW_Msk;
 734:C:/Users/±è°æ¹Î/Desktop/IFX_S2GL-HW-SW_V1.1.3/Firmware_Software/DAVE project/S2GL_Doppler/Libraries/XMCLib/inc\xmc_usic.h **** }
 735:C:/Users/±è°æ¹Î/Desktop/IFX_S2GL-HW-SW_V1.1.3/Firmware_Software/DAVE project/S2GL_Doppler/Libraries/XMCLib/inc\xmc_usic.h **** 
 736:C:/Users/±è°æ¹Î/Desktop/IFX_S2GL-HW-SW_V1.1.3/Firmware_Software/DAVE project/S2GL_Doppler/Libraries/XMCLib/inc\xmc_usic.h **** /**
 737:C:/Users/±è°æ¹Î/Desktop/IFX_S2GL-HW-SW_V1.1.3/Firmware_Software/DAVE project/S2GL_Doppler/Libraries/XMCLib/inc\xmc_usic.h ****  * @param  channel Pointer to USIC channel handler of type @ref XMC_USIC_CH_t \n
 738:C:/Users/±è°æ¹Î/Desktop/IFX_S2GL-HW-SW_V1.1.3/Firmware_Software/DAVE project/S2GL_Doppler/Libraries/XMCLib/inc\xmc_usic.h ****  * 				   \b Range: @ref XMC_USIC0_CH0, @ref XMC_USIC0_CH1 to @ref XMC_USIC2_CH1 based on device su
 739:C:/Users/±è°æ¹Î/Desktop/IFX_S2GL-HW-SW_V1.1.3/Firmware_Software/DAVE project/S2GL_Doppler/Libraries/XMCLib/inc\xmc_usic.h ****  * @param  input USIC channel input stage of type @ref XMC_USIC_CH_INPUT_t. \n
 740:C:/Users/±è°æ¹Î/Desktop/IFX_S2GL-HW-SW_V1.1.3/Firmware_Software/DAVE project/S2GL_Doppler/Libraries/XMCLib/inc\xmc_usic.h ****  * 				 \b Range: @ref XMC_USIC_CH_INPUT_DX0 to @ref XMC_USIC_CH_INPUT_DX5
 741:C:/Users/±è°æ¹Î/Desktop/IFX_S2GL-HW-SW_V1.1.3/Firmware_Software/DAVE project/S2GL_Doppler/Libraries/XMCLib/inc\xmc_usic.h ****  * @return None
 742:C:/Users/±è°æ¹Î/Desktop/IFX_S2GL-HW-SW_V1.1.3/Firmware_Software/DAVE project/S2GL_Doppler/Libraries/XMCLib/inc\xmc_usic.h ****  *
 743:C:/Users/±è°æ¹Î/Desktop/IFX_S2GL-HW-SW_V1.1.3/Firmware_Software/DAVE project/S2GL_Doppler/Libraries/XMCLib/inc\xmc_usic.h ****  * \par<b>Description</b><br>
 744:C:/Users/±è°æ¹Î/Desktop/IFX_S2GL-HW-SW_V1.1.3/Firmware_Software/DAVE project/S2GL_Doppler/Libraries/XMCLib/inc\xmc_usic.h ****  * Enables input inversion for USIC channel input data signal. \n\n
 745:C:/Users/±è°æ¹Î/Desktop/IFX_S2GL-HW-SW_V1.1.3/Firmware_Software/DAVE project/S2GL_Doppler/Libraries/XMCLib/inc\xmc_usic.h ****  *
 746:C:/Users/±è°æ¹Î/Desktop/IFX_S2GL-HW-SW_V1.1.3/Firmware_Software/DAVE project/S2GL_Doppler/Libraries/XMCLib/inc\xmc_usic.h ****  * Polarity of the input source can be changed to provide inverted data input.
 747:C:/Users/±è°æ¹Î/Desktop/IFX_S2GL-HW-SW_V1.1.3/Firmware_Software/DAVE project/S2GL_Doppler/Libraries/XMCLib/inc\xmc_usic.h ****  * \par<b>Related APIs:</b><BR>
 748:C:/Users/±è°æ¹Î/Desktop/IFX_S2GL-HW-SW_V1.1.3/Firmware_Software/DAVE project/S2GL_Doppler/Libraries/XMCLib/inc\xmc_usic.h ****  * XMC_USIC_CH_DisableInputInversion()\n\n\n
 749:C:/Users/±è°æ¹Î/Desktop/IFX_S2GL-HW-SW_V1.1.3/Firmware_Software/DAVE project/S2GL_Doppler/Libraries/XMCLib/inc\xmc_usic.h ****  */
 750:C:/Users/±è°æ¹Î/Desktop/IFX_S2GL-HW-SW_V1.1.3/Firmware_Software/DAVE project/S2GL_Doppler/Libraries/XMCLib/inc\xmc_usic.h **** __STATIC_INLINE void XMC_USIC_CH_EnableInputInversion(XMC_USIC_CH_t *const channel, const XMC_USIC_
 751:C:/Users/±è°æ¹Î/Desktop/IFX_S2GL-HW-SW_V1.1.3/Firmware_Software/DAVE project/S2GL_Doppler/Libraries/XMCLib/inc\xmc_usic.h **** {
 752:C:/Users/±è°æ¹Î/Desktop/IFX_S2GL-HW-SW_V1.1.3/Firmware_Software/DAVE project/S2GL_Doppler/Libraries/XMCLib/inc\xmc_usic.h ****   channel->DXCR[input] |= USIC_CH_DXCR_DPOL_Msk;
 753:C:/Users/±è°æ¹Î/Desktop/IFX_S2GL-HW-SW_V1.1.3/Firmware_Software/DAVE project/S2GL_Doppler/Libraries/XMCLib/inc\xmc_usic.h **** }
 754:C:/Users/±è°æ¹Î/Desktop/IFX_S2GL-HW-SW_V1.1.3/Firmware_Software/DAVE project/S2GL_Doppler/Libraries/XMCLib/inc\xmc_usic.h **** 
 755:C:/Users/±è°æ¹Î/Desktop/IFX_S2GL-HW-SW_V1.1.3/Firmware_Software/DAVE project/S2GL_Doppler/Libraries/XMCLib/inc\xmc_usic.h **** /**
 756:C:/Users/±è°æ¹Î/Desktop/IFX_S2GL-HW-SW_V1.1.3/Firmware_Software/DAVE project/S2GL_Doppler/Libraries/XMCLib/inc\xmc_usic.h ****  * @param  channel Pointer to USIC channel handler of type @ref XMC_USIC_CH_t \n
 757:C:/Users/±è°æ¹Î/Desktop/IFX_S2GL-HW-SW_V1.1.3/Firmware_Software/DAVE project/S2GL_Doppler/Libraries/XMCLib/inc\xmc_usic.h ****  * 				   \b Range: @ref XMC_USIC0_CH0, @ref XMC_USIC0_CH1 to @ref XMC_USIC2_CH1 based on device su
 758:C:/Users/±è°æ¹Î/Desktop/IFX_S2GL-HW-SW_V1.1.3/Firmware_Software/DAVE project/S2GL_Doppler/Libraries/XMCLib/inc\xmc_usic.h ****  * @param  input USIC channel input stage of type @ref XMC_USIC_CH_INPUT_t. \n
 759:C:/Users/±è°æ¹Î/Desktop/IFX_S2GL-HW-SW_V1.1.3/Firmware_Software/DAVE project/S2GL_Doppler/Libraries/XMCLib/inc\xmc_usic.h ****  * 				 \b Range: @ref XMC_USIC_CH_INPUT_DX0 to @ref XMC_USIC_CH_INPUT_DX5
 760:C:/Users/±è°æ¹Î/Desktop/IFX_S2GL-HW-SW_V1.1.3/Firmware_Software/DAVE project/S2GL_Doppler/Libraries/XMCLib/inc\xmc_usic.h ****  * @return None
 761:C:/Users/±è°æ¹Î/Desktop/IFX_S2GL-HW-SW_V1.1.3/Firmware_Software/DAVE project/S2GL_Doppler/Libraries/XMCLib/inc\xmc_usic.h ****  *
 762:C:/Users/±è°æ¹Î/Desktop/IFX_S2GL-HW-SW_V1.1.3/Firmware_Software/DAVE project/S2GL_Doppler/Libraries/XMCLib/inc\xmc_usic.h ****  * \par<b>Description</b><br>
 763:C:/Users/±è°æ¹Î/Desktop/IFX_S2GL-HW-SW_V1.1.3/Firmware_Software/DAVE project/S2GL_Doppler/Libraries/XMCLib/inc\xmc_usic.h ****  * Disables input inversion for USIC channel. \n\n
 764:C:/Users/±è°æ¹Î/Desktop/IFX_S2GL-HW-SW_V1.1.3/Firmware_Software/DAVE project/S2GL_Doppler/Libraries/XMCLib/inc\xmc_usic.h ****  *
 765:C:/Users/±è°æ¹Î/Desktop/IFX_S2GL-HW-SW_V1.1.3/Firmware_Software/DAVE project/S2GL_Doppler/Libraries/XMCLib/inc\xmc_usic.h ****  * Resets the input data polarity for the USIC channel input data signal.
 766:C:/Users/±è°æ¹Î/Desktop/IFX_S2GL-HW-SW_V1.1.3/Firmware_Software/DAVE project/S2GL_Doppler/Libraries/XMCLib/inc\xmc_usic.h ****  * \par<b>Related APIs:</b><BR>
 767:C:/Users/±è°æ¹Î/Desktop/IFX_S2GL-HW-SW_V1.1.3/Firmware_Software/DAVE project/S2GL_Doppler/Libraries/XMCLib/inc\xmc_usic.h ****  * XMC_USIC_CH_EnableInputInversion()\n\n\n
 768:C:/Users/±è°æ¹Î/Desktop/IFX_S2GL-HW-SW_V1.1.3/Firmware_Software/DAVE project/S2GL_Doppler/Libraries/XMCLib/inc\xmc_usic.h ****  */
 769:C:/Users/±è°æ¹Î/Desktop/IFX_S2GL-HW-SW_V1.1.3/Firmware_Software/DAVE project/S2GL_Doppler/Libraries/XMCLib/inc\xmc_usic.h **** __STATIC_INLINE void XMC_USIC_CH_DisableInputInversion(XMC_USIC_CH_t *const channel, const XMC_USIC
 770:C:/Users/±è°æ¹Î/Desktop/IFX_S2GL-HW-SW_V1.1.3/Firmware_Software/DAVE project/S2GL_Doppler/Libraries/XMCLib/inc\xmc_usic.h **** {
 771:C:/Users/±è°æ¹Î/Desktop/IFX_S2GL-HW-SW_V1.1.3/Firmware_Software/DAVE project/S2GL_Doppler/Libraries/XMCLib/inc\xmc_usic.h ****   channel->DXCR[input] &=(uint32_t)~USIC_CH_DXCR_DPOL_Msk;
 772:C:/Users/±è°æ¹Î/Desktop/IFX_S2GL-HW-SW_V1.1.3/Firmware_Software/DAVE project/S2GL_Doppler/Libraries/XMCLib/inc\xmc_usic.h **** }
 773:C:/Users/±è°æ¹Î/Desktop/IFX_S2GL-HW-SW_V1.1.3/Firmware_Software/DAVE project/S2GL_Doppler/Libraries/XMCLib/inc\xmc_usic.h **** 
 774:C:/Users/±è°æ¹Î/Desktop/IFX_S2GL-HW-SW_V1.1.3/Firmware_Software/DAVE project/S2GL_Doppler/Libraries/XMCLib/inc\xmc_usic.h **** /**
 775:C:/Users/±è°æ¹Î/Desktop/IFX_S2GL-HW-SW_V1.1.3/Firmware_Software/DAVE project/S2GL_Doppler/Libraries/XMCLib/inc\xmc_usic.h ****  * @param  channel Pointer to USIC channel handler of type @ref XMC_USIC_CH_t \n
 776:C:/Users/±è°æ¹Î/Desktop/IFX_S2GL-HW-SW_V1.1.3/Firmware_Software/DAVE project/S2GL_Doppler/Libraries/XMCLib/inc\xmc_usic.h ****  * 				   \b Range: @ref XMC_USIC0_CH0, @ref XMC_USIC0_CH1 to @ref XMC_USIC2_CH1 based on device su
 777:C:/Users/±è°æ¹Î/Desktop/IFX_S2GL-HW-SW_V1.1.3/Firmware_Software/DAVE project/S2GL_Doppler/Libraries/XMCLib/inc\xmc_usic.h ****  * @return None
 778:C:/Users/±è°æ¹Î/Desktop/IFX_S2GL-HW-SW_V1.1.3/Firmware_Software/DAVE project/S2GL_Doppler/Libraries/XMCLib/inc\xmc_usic.h ****  *
 779:C:/Users/±è°æ¹Î/Desktop/IFX_S2GL-HW-SW_V1.1.3/Firmware_Software/DAVE project/S2GL_Doppler/Libraries/XMCLib/inc\xmc_usic.h ****  * \par<b>Description</b><br>
 780:C:/Users/±è°æ¹Î/Desktop/IFX_S2GL-HW-SW_V1.1.3/Firmware_Software/DAVE project/S2GL_Doppler/Libraries/XMCLib/inc\xmc_usic.h ****  * Enables delay compensation. \n\n
 781:C:/Users/±è°æ¹Î/Desktop/IFX_S2GL-HW-SW_V1.1.3/Firmware_Software/DAVE project/S2GL_Doppler/Libraries/XMCLib/inc\xmc_usic.h ****  *
 782:C:/Users/±è°æ¹Î/Desktop/IFX_S2GL-HW-SW_V1.1.3/Firmware_Software/DAVE project/S2GL_Doppler/Libraries/XMCLib/inc\xmc_usic.h ****  * Delay compensation can be applied to the receive path.
 783:C:/Users/±è°æ¹Î/Desktop/IFX_S2GL-HW-SW_V1.1.3/Firmware_Software/DAVE project/S2GL_Doppler/Libraries/XMCLib/inc\xmc_usic.h ****  * \par<b>Related APIs:</b><BR>
 784:C:/Users/±è°æ¹Î/Desktop/IFX_S2GL-HW-SW_V1.1.3/Firmware_Software/DAVE project/S2GL_Doppler/Libraries/XMCLib/inc\xmc_usic.h ****  * XMC_USIC_CH_DisableDelayCompensation()\n\n\n
 785:C:/Users/±è°æ¹Î/Desktop/IFX_S2GL-HW-SW_V1.1.3/Firmware_Software/DAVE project/S2GL_Doppler/Libraries/XMCLib/inc\xmc_usic.h ****  */
 786:C:/Users/±è°æ¹Î/Desktop/IFX_S2GL-HW-SW_V1.1.3/Firmware_Software/DAVE project/S2GL_Doppler/Libraries/XMCLib/inc\xmc_usic.h **** __STATIC_INLINE void XMC_USIC_CH_EnableDelayCompensation(XMC_USIC_CH_t *const channel)
 787:C:/Users/±è°æ¹Î/Desktop/IFX_S2GL-HW-SW_V1.1.3/Firmware_Software/DAVE project/S2GL_Doppler/Libraries/XMCLib/inc\xmc_usic.h **** {
 788:C:/Users/±è°æ¹Î/Desktop/IFX_S2GL-HW-SW_V1.1.3/Firmware_Software/DAVE project/S2GL_Doppler/Libraries/XMCLib/inc\xmc_usic.h ****   channel->DXCR[1U] |= USIC_CH_DX1CR_DCEN_Msk;
 789:C:/Users/±è°æ¹Î/Desktop/IFX_S2GL-HW-SW_V1.1.3/Firmware_Software/DAVE project/S2GL_Doppler/Libraries/XMCLib/inc\xmc_usic.h **** }
 790:C:/Users/±è°æ¹Î/Desktop/IFX_S2GL-HW-SW_V1.1.3/Firmware_Software/DAVE project/S2GL_Doppler/Libraries/XMCLib/inc\xmc_usic.h **** 
 791:C:/Users/±è°æ¹Î/Desktop/IFX_S2GL-HW-SW_V1.1.3/Firmware_Software/DAVE project/S2GL_Doppler/Libraries/XMCLib/inc\xmc_usic.h **** /**
 792:C:/Users/±è°æ¹Î/Desktop/IFX_S2GL-HW-SW_V1.1.3/Firmware_Software/DAVE project/S2GL_Doppler/Libraries/XMCLib/inc\xmc_usic.h ****  * @param  channel Pointer to USIC channel handler of type @ref XMC_USIC_CH_t \n
 793:C:/Users/±è°æ¹Î/Desktop/IFX_S2GL-HW-SW_V1.1.3/Firmware_Software/DAVE project/S2GL_Doppler/Libraries/XMCLib/inc\xmc_usic.h ****  * 				   \b Range: @ref XMC_USIC0_CH0, @ref XMC_USIC0_CH1 to @ref XMC_USIC2_CH1 based on device su
 794:C:/Users/±è°æ¹Î/Desktop/IFX_S2GL-HW-SW_V1.1.3/Firmware_Software/DAVE project/S2GL_Doppler/Libraries/XMCLib/inc\xmc_usic.h ****  * @return None
 795:C:/Users/±è°æ¹Î/Desktop/IFX_S2GL-HW-SW_V1.1.3/Firmware_Software/DAVE project/S2GL_Doppler/Libraries/XMCLib/inc\xmc_usic.h ****  *
 796:C:/Users/±è°æ¹Î/Desktop/IFX_S2GL-HW-SW_V1.1.3/Firmware_Software/DAVE project/S2GL_Doppler/Libraries/XMCLib/inc\xmc_usic.h ****  * \par<b>Description</b><br>
 797:C:/Users/±è°æ¹Î/Desktop/IFX_S2GL-HW-SW_V1.1.3/Firmware_Software/DAVE project/S2GL_Doppler/Libraries/XMCLib/inc\xmc_usic.h ****  * Disables delay compensation.. \n\n
 798:C:/Users/±è°æ¹Î/Desktop/IFX_S2GL-HW-SW_V1.1.3/Firmware_Software/DAVE project/S2GL_Doppler/Libraries/XMCLib/inc\xmc_usic.h ****  *
 799:C:/Users/±è°æ¹Î/Desktop/IFX_S2GL-HW-SW_V1.1.3/Firmware_Software/DAVE project/S2GL_Doppler/Libraries/XMCLib/inc\xmc_usic.h ****  * \par<b>Related APIs:</b><BR>
 800:C:/Users/±è°æ¹Î/Desktop/IFX_S2GL-HW-SW_V1.1.3/Firmware_Software/DAVE project/S2GL_Doppler/Libraries/XMCLib/inc\xmc_usic.h ****  * XMC_USIC_CH_EnableDelayCompensation()\n\n\n
 801:C:/Users/±è°æ¹Î/Desktop/IFX_S2GL-HW-SW_V1.1.3/Firmware_Software/DAVE project/S2GL_Doppler/Libraries/XMCLib/inc\xmc_usic.h ****  */
 802:C:/Users/±è°æ¹Î/Desktop/IFX_S2GL-HW-SW_V1.1.3/Firmware_Software/DAVE project/S2GL_Doppler/Libraries/XMCLib/inc\xmc_usic.h **** __STATIC_INLINE void XMC_USIC_CH_DisableDelayCompensation(XMC_USIC_CH_t *const channel)
 803:C:/Users/±è°æ¹Î/Desktop/IFX_S2GL-HW-SW_V1.1.3/Firmware_Software/DAVE project/S2GL_Doppler/Libraries/XMCLib/inc\xmc_usic.h **** {
 804:C:/Users/±è°æ¹Î/Desktop/IFX_S2GL-HW-SW_V1.1.3/Firmware_Software/DAVE project/S2GL_Doppler/Libraries/XMCLib/inc\xmc_usic.h ****   channel->DXCR[1U] &=(uint32_t)~USIC_CH_DX1CR_DCEN_Msk;
 805:C:/Users/±è°æ¹Î/Desktop/IFX_S2GL-HW-SW_V1.1.3/Firmware_Software/DAVE project/S2GL_Doppler/Libraries/XMCLib/inc\xmc_usic.h **** }
 806:C:/Users/±è°æ¹Î/Desktop/IFX_S2GL-HW-SW_V1.1.3/Firmware_Software/DAVE project/S2GL_Doppler/Libraries/XMCLib/inc\xmc_usic.h **** 
 807:C:/Users/±è°æ¹Î/Desktop/IFX_S2GL-HW-SW_V1.1.3/Firmware_Software/DAVE project/S2GL_Doppler/Libraries/XMCLib/inc\xmc_usic.h **** /**
 808:C:/Users/±è°æ¹Î/Desktop/IFX_S2GL-HW-SW_V1.1.3/Firmware_Software/DAVE project/S2GL_Doppler/Libraries/XMCLib/inc\xmc_usic.h ****  * @param  channel Pointer to USIC channel handler of type @ref XMC_USIC_CH_t \n
 809:C:/Users/±è°æ¹Î/Desktop/IFX_S2GL-HW-SW_V1.1.3/Firmware_Software/DAVE project/S2GL_Doppler/Libraries/XMCLib/inc\xmc_usic.h ****  * 				   \b Range: @ref XMC_USIC0_CH0, @ref XMC_USIC0_CH1 to @ref XMC_USIC2_CH1 based on device su
 810:C:/Users/±è°æ¹Î/Desktop/IFX_S2GL-HW-SW_V1.1.3/Firmware_Software/DAVE project/S2GL_Doppler/Libraries/XMCLib/inc\xmc_usic.h ****  * @param  input USIC channel input stage of type @ref XMC_USIC_CH_INPUT_t. \n
 811:C:/Users/±è°æ¹Î/Desktop/IFX_S2GL-HW-SW_V1.1.3/Firmware_Software/DAVE project/S2GL_Doppler/Libraries/XMCLib/inc\xmc_usic.h ****  * 				 \b Range: @ref XMC_USIC_CH_INPUT_DX0 to @ref XMC_USIC_CH_INPUT_DX5
 812:C:/Users/±è°æ¹Î/Desktop/IFX_S2GL-HW-SW_V1.1.3/Firmware_Software/DAVE project/S2GL_Doppler/Libraries/XMCLib/inc\xmc_usic.h ****  * @return None
 813:C:/Users/±è°æ¹Î/Desktop/IFX_S2GL-HW-SW_V1.1.3/Firmware_Software/DAVE project/S2GL_Doppler/Libraries/XMCLib/inc\xmc_usic.h ****  *
 814:C:/Users/±è°æ¹Î/Desktop/IFX_S2GL-HW-SW_V1.1.3/Firmware_Software/DAVE project/S2GL_Doppler/Libraries/XMCLib/inc\xmc_usic.h ****  * \par<b>Description</b><br>
 815:C:/Users/±è°æ¹Î/Desktop/IFX_S2GL-HW-SW_V1.1.3/Firmware_Software/DAVE project/S2GL_Doppler/Libraries/XMCLib/inc\xmc_usic.h ****  * Enables the input digital filter for USIC channel input data signal. \n\n
 816:C:/Users/±è°æ¹Î/Desktop/IFX_S2GL-HW-SW_V1.1.3/Firmware_Software/DAVE project/S2GL_Doppler/Libraries/XMCLib/inc\xmc_usic.h ****  * Input data signal from the selected multiplexer will be digitally filtered.
 817:C:/Users/±è°æ¹Î/Desktop/IFX_S2GL-HW-SW_V1.1.3/Firmware_Software/DAVE project/S2GL_Doppler/Libraries/XMCLib/inc\xmc_usic.h ****  *
 818:C:/Users/±è°æ¹Î/Desktop/IFX_S2GL-HW-SW_V1.1.3/Firmware_Software/DAVE project/S2GL_Doppler/Libraries/XMCLib/inc\xmc_usic.h ****  * \par<b>Related APIs:</b><BR>
 819:C:/Users/±è°æ¹Î/Desktop/IFX_S2GL-HW-SW_V1.1.3/Firmware_Software/DAVE project/S2GL_Doppler/Libraries/XMCLib/inc\xmc_usic.h ****  * XMC_USIC_CH_DisableInputDigitalFilter()\n\n\n
 820:C:/Users/±è°æ¹Î/Desktop/IFX_S2GL-HW-SW_V1.1.3/Firmware_Software/DAVE project/S2GL_Doppler/Libraries/XMCLib/inc\xmc_usic.h ****  */
 821:C:/Users/±è°æ¹Î/Desktop/IFX_S2GL-HW-SW_V1.1.3/Firmware_Software/DAVE project/S2GL_Doppler/Libraries/XMCLib/inc\xmc_usic.h **** __STATIC_INLINE void XMC_USIC_CH_EnableInputDigitalFilter(XMC_USIC_CH_t *const channel, const XMC_U
 822:C:/Users/±è°æ¹Î/Desktop/IFX_S2GL-HW-SW_V1.1.3/Firmware_Software/DAVE project/S2GL_Doppler/Libraries/XMCLib/inc\xmc_usic.h **** {
 823:C:/Users/±è°æ¹Î/Desktop/IFX_S2GL-HW-SW_V1.1.3/Firmware_Software/DAVE project/S2GL_Doppler/Libraries/XMCLib/inc\xmc_usic.h ****   channel->DXCR[input] |= (uint32_t)USIC_CH_DXCR_DFEN_Msk;
 824:C:/Users/±è°æ¹Î/Desktop/IFX_S2GL-HW-SW_V1.1.3/Firmware_Software/DAVE project/S2GL_Doppler/Libraries/XMCLib/inc\xmc_usic.h **** }
 825:C:/Users/±è°æ¹Î/Desktop/IFX_S2GL-HW-SW_V1.1.3/Firmware_Software/DAVE project/S2GL_Doppler/Libraries/XMCLib/inc\xmc_usic.h **** /**
 826:C:/Users/±è°æ¹Î/Desktop/IFX_S2GL-HW-SW_V1.1.3/Firmware_Software/DAVE project/S2GL_Doppler/Libraries/XMCLib/inc\xmc_usic.h ****  * @param  channel Pointer to USIC channel handler of type @ref XMC_USIC_CH_t \n
 827:C:/Users/±è°æ¹Î/Desktop/IFX_S2GL-HW-SW_V1.1.3/Firmware_Software/DAVE project/S2GL_Doppler/Libraries/XMCLib/inc\xmc_usic.h ****  * 				   \b Range: @ref XMC_USIC0_CH0, @ref XMC_USIC0_CH1 to @ref XMC_USIC2_CH1 based on device su
 828:C:/Users/±è°æ¹Î/Desktop/IFX_S2GL-HW-SW_V1.1.3/Firmware_Software/DAVE project/S2GL_Doppler/Libraries/XMCLib/inc\xmc_usic.h ****  * @param  input USIC channel input stage of type @ref XMC_USIC_CH_INPUT_t. \n
 829:C:/Users/±è°æ¹Î/Desktop/IFX_S2GL-HW-SW_V1.1.3/Firmware_Software/DAVE project/S2GL_Doppler/Libraries/XMCLib/inc\xmc_usic.h ****  * 				 \b Range: @ref XMC_USIC_CH_INPUT_DX0 to @ref XMC_USIC_CH_INPUT_DX5
 830:C:/Users/±è°æ¹Î/Desktop/IFX_S2GL-HW-SW_V1.1.3/Firmware_Software/DAVE project/S2GL_Doppler/Libraries/XMCLib/inc\xmc_usic.h ****  * @return None
 831:C:/Users/±è°æ¹Î/Desktop/IFX_S2GL-HW-SW_V1.1.3/Firmware_Software/DAVE project/S2GL_Doppler/Libraries/XMCLib/inc\xmc_usic.h ****  *
 832:C:/Users/±è°æ¹Î/Desktop/IFX_S2GL-HW-SW_V1.1.3/Firmware_Software/DAVE project/S2GL_Doppler/Libraries/XMCLib/inc\xmc_usic.h ****  * \par<b>Description</b><br>
 833:C:/Users/±è°æ¹Î/Desktop/IFX_S2GL-HW-SW_V1.1.3/Firmware_Software/DAVE project/S2GL_Doppler/Libraries/XMCLib/inc\xmc_usic.h ****  * Disables the input digital filter for USIC channel input data signal. \n\n
 834:C:/Users/±è°æ¹Î/Desktop/IFX_S2GL-HW-SW_V1.1.3/Firmware_Software/DAVE project/S2GL_Doppler/Libraries/XMCLib/inc\xmc_usic.h ****  * Input data signal from the selected multiplexer will not be digitally filtered.
 835:C:/Users/±è°æ¹Î/Desktop/IFX_S2GL-HW-SW_V1.1.3/Firmware_Software/DAVE project/S2GL_Doppler/Libraries/XMCLib/inc\xmc_usic.h ****  *
 836:C:/Users/±è°æ¹Î/Desktop/IFX_S2GL-HW-SW_V1.1.3/Firmware_Software/DAVE project/S2GL_Doppler/Libraries/XMCLib/inc\xmc_usic.h ****  * \par<b>Related APIs:</b><BR>
 837:C:/Users/±è°æ¹Î/Desktop/IFX_S2GL-HW-SW_V1.1.3/Firmware_Software/DAVE project/S2GL_Doppler/Libraries/XMCLib/inc\xmc_usic.h ****  * XMC_USIC_CH_EnableInputDigitalFilter()\n\n\n
 838:C:/Users/±è°æ¹Î/Desktop/IFX_S2GL-HW-SW_V1.1.3/Firmware_Software/DAVE project/S2GL_Doppler/Libraries/XMCLib/inc\xmc_usic.h ****  */
 839:C:/Users/±è°æ¹Î/Desktop/IFX_S2GL-HW-SW_V1.1.3/Firmware_Software/DAVE project/S2GL_Doppler/Libraries/XMCLib/inc\xmc_usic.h **** __STATIC_INLINE void XMC_USIC_CH_DisableInputDigitalFilter(XMC_USIC_CH_t *const channel, const XMC_
 840:C:/Users/±è°æ¹Î/Desktop/IFX_S2GL-HW-SW_V1.1.3/Firmware_Software/DAVE project/S2GL_Doppler/Libraries/XMCLib/inc\xmc_usic.h **** {
 841:C:/Users/±è°æ¹Î/Desktop/IFX_S2GL-HW-SW_V1.1.3/Firmware_Software/DAVE project/S2GL_Doppler/Libraries/XMCLib/inc\xmc_usic.h ****   channel->DXCR[input] &=(uint32_t)~USIC_CH_DXCR_DFEN_Msk;
 842:C:/Users/±è°æ¹Î/Desktop/IFX_S2GL-HW-SW_V1.1.3/Firmware_Software/DAVE project/S2GL_Doppler/Libraries/XMCLib/inc\xmc_usic.h **** }
 843:C:/Users/±è°æ¹Î/Desktop/IFX_S2GL-HW-SW_V1.1.3/Firmware_Software/DAVE project/S2GL_Doppler/Libraries/XMCLib/inc\xmc_usic.h **** /**
 844:C:/Users/±è°æ¹Î/Desktop/IFX_S2GL-HW-SW_V1.1.3/Firmware_Software/DAVE project/S2GL_Doppler/Libraries/XMCLib/inc\xmc_usic.h ****  * @param  channel Pointer to USIC channel handler of type @ref XMC_USIC_CH_t \n
 845:C:/Users/±è°æ¹Î/Desktop/IFX_S2GL-HW-SW_V1.1.3/Firmware_Software/DAVE project/S2GL_Doppler/Libraries/XMCLib/inc\xmc_usic.h ****  * 				   \b Range: @ref XMC_USIC0_CH0, @ref XMC_USIC0_CH1 to @ref XMC_USIC2_CH1 based on device su
 846:C:/Users/±è°æ¹Î/Desktop/IFX_S2GL-HW-SW_V1.1.3/Firmware_Software/DAVE project/S2GL_Doppler/Libraries/XMCLib/inc\xmc_usic.h ****  * @param  input USIC channel input stage of type @ref XMC_USIC_CH_INPUT_t. \n
 847:C:/Users/±è°æ¹Î/Desktop/IFX_S2GL-HW-SW_V1.1.3/Firmware_Software/DAVE project/S2GL_Doppler/Libraries/XMCLib/inc\xmc_usic.h ****  * 				 \b Range: @ref XMC_USIC_CH_INPUT_DX0 to @ref XMC_USIC_CH_INPUT_DX5
 848:C:/Users/±è°æ¹Î/Desktop/IFX_S2GL-HW-SW_V1.1.3/Firmware_Software/DAVE project/S2GL_Doppler/Libraries/XMCLib/inc\xmc_usic.h ****  * @return None
 849:C:/Users/±è°æ¹Î/Desktop/IFX_S2GL-HW-SW_V1.1.3/Firmware_Software/DAVE project/S2GL_Doppler/Libraries/XMCLib/inc\xmc_usic.h ****  *
 850:C:/Users/±è°æ¹Î/Desktop/IFX_S2GL-HW-SW_V1.1.3/Firmware_Software/DAVE project/S2GL_Doppler/Libraries/XMCLib/inc\xmc_usic.h ****  * \par<b>Description</b><br>
 851:C:/Users/±è°æ¹Î/Desktop/IFX_S2GL-HW-SW_V1.1.3/Firmware_Software/DAVE project/S2GL_Doppler/Libraries/XMCLib/inc\xmc_usic.h ****  * Enables input synchronization for the USIC channel input data signal. \n\n
 852:C:/Users/±è°æ¹Î/Desktop/IFX_S2GL-HW-SW_V1.1.3/Firmware_Software/DAVE project/S2GL_Doppler/Libraries/XMCLib/inc\xmc_usic.h ****  * Input data signal from the selected multiplexer will be synchronized with fPERIPH.
 853:C:/Users/±è°æ¹Î/Desktop/IFX_S2GL-HW-SW_V1.1.3/Firmware_Software/DAVE project/S2GL_Doppler/Libraries/XMCLib/inc\xmc_usic.h ****  * A noisy signal can be synchronized and filtered by enabling the digital filter.
 854:C:/Users/±è°æ¹Î/Desktop/IFX_S2GL-HW-SW_V1.1.3/Firmware_Software/DAVE project/S2GL_Doppler/Libraries/XMCLib/inc\xmc_usic.h ****  *
 855:C:/Users/±è°æ¹Î/Desktop/IFX_S2GL-HW-SW_V1.1.3/Firmware_Software/DAVE project/S2GL_Doppler/Libraries/XMCLib/inc\xmc_usic.h ****  * \par<b>Related APIs:</b><BR>
 856:C:/Users/±è°æ¹Î/Desktop/IFX_S2GL-HW-SW_V1.1.3/Firmware_Software/DAVE project/S2GL_Doppler/Libraries/XMCLib/inc\xmc_usic.h ****  * XMC_USIC_CH_DisableInputSync(), XMC_USIC_CH_EnableInputDigitalFilter()\n\n\n
 857:C:/Users/±è°æ¹Î/Desktop/IFX_S2GL-HW-SW_V1.1.3/Firmware_Software/DAVE project/S2GL_Doppler/Libraries/XMCLib/inc\xmc_usic.h ****  */
 858:C:/Users/±è°æ¹Î/Desktop/IFX_S2GL-HW-SW_V1.1.3/Firmware_Software/DAVE project/S2GL_Doppler/Libraries/XMCLib/inc\xmc_usic.h **** __STATIC_INLINE void XMC_USIC_CH_EnableInputSync(XMC_USIC_CH_t *const channel, const XMC_USIC_CH_IN
 859:C:/Users/±è°æ¹Î/Desktop/IFX_S2GL-HW-SW_V1.1.3/Firmware_Software/DAVE project/S2GL_Doppler/Libraries/XMCLib/inc\xmc_usic.h **** {
 860:C:/Users/±è°æ¹Î/Desktop/IFX_S2GL-HW-SW_V1.1.3/Firmware_Software/DAVE project/S2GL_Doppler/Libraries/XMCLib/inc\xmc_usic.h ****   channel->DXCR[input] |=(uint32_t)USIC_CH_DXCR_DSEN_Msk;
 861:C:/Users/±è°æ¹Î/Desktop/IFX_S2GL-HW-SW_V1.1.3/Firmware_Software/DAVE project/S2GL_Doppler/Libraries/XMCLib/inc\xmc_usic.h **** }
 862:C:/Users/±è°æ¹Î/Desktop/IFX_S2GL-HW-SW_V1.1.3/Firmware_Software/DAVE project/S2GL_Doppler/Libraries/XMCLib/inc\xmc_usic.h **** /**
 863:C:/Users/±è°æ¹Î/Desktop/IFX_S2GL-HW-SW_V1.1.3/Firmware_Software/DAVE project/S2GL_Doppler/Libraries/XMCLib/inc\xmc_usic.h ****  * @param  channel Pointer to USIC channel handler of type @ref XMC_USIC_CH_t \n
 864:C:/Users/±è°æ¹Î/Desktop/IFX_S2GL-HW-SW_V1.1.3/Firmware_Software/DAVE project/S2GL_Doppler/Libraries/XMCLib/inc\xmc_usic.h ****  * 				   \b Range: @ref XMC_USIC0_CH0, @ref XMC_USIC0_CH1 to @ref XMC_USIC2_CH1 based on device su
 865:C:/Users/±è°æ¹Î/Desktop/IFX_S2GL-HW-SW_V1.1.3/Firmware_Software/DAVE project/S2GL_Doppler/Libraries/XMCLib/inc\xmc_usic.h ****  * @param  input USIC channel input stage of type @ref XMC_USIC_CH_INPUT_t. \n
 866:C:/Users/±è°æ¹Î/Desktop/IFX_S2GL-HW-SW_V1.1.3/Firmware_Software/DAVE project/S2GL_Doppler/Libraries/XMCLib/inc\xmc_usic.h ****  * 				 \b Range: @ref XMC_USIC_CH_INPUT_DX0 to @ref XMC_USIC_CH_INPUT_DX5
 867:C:/Users/±è°æ¹Î/Desktop/IFX_S2GL-HW-SW_V1.1.3/Firmware_Software/DAVE project/S2GL_Doppler/Libraries/XMCLib/inc\xmc_usic.h ****  * @return None
 868:C:/Users/±è°æ¹Î/Desktop/IFX_S2GL-HW-SW_V1.1.3/Firmware_Software/DAVE project/S2GL_Doppler/Libraries/XMCLib/inc\xmc_usic.h ****  *
 869:C:/Users/±è°æ¹Î/Desktop/IFX_S2GL-HW-SW_V1.1.3/Firmware_Software/DAVE project/S2GL_Doppler/Libraries/XMCLib/inc\xmc_usic.h ****  * \par<b>Description</b><br>
 870:C:/Users/±è°æ¹Î/Desktop/IFX_S2GL-HW-SW_V1.1.3/Firmware_Software/DAVE project/S2GL_Doppler/Libraries/XMCLib/inc\xmc_usic.h ****  * Disables input synchronization for the USIC channel input data signal. \n\n
 871:C:/Users/±è°æ¹Î/Desktop/IFX_S2GL-HW-SW_V1.1.3/Firmware_Software/DAVE project/S2GL_Doppler/Libraries/XMCLib/inc\xmc_usic.h ****  * Input data signal from the selected multiplexer will not be synchronized.
 872:C:/Users/±è°æ¹Î/Desktop/IFX_S2GL-HW-SW_V1.1.3/Firmware_Software/DAVE project/S2GL_Doppler/Libraries/XMCLib/inc\xmc_usic.h ****  *
 873:C:/Users/±è°æ¹Î/Desktop/IFX_S2GL-HW-SW_V1.1.3/Firmware_Software/DAVE project/S2GL_Doppler/Libraries/XMCLib/inc\xmc_usic.h ****  * \par<b>Related APIs:</b><BR>
 874:C:/Users/±è°æ¹Î/Desktop/IFX_S2GL-HW-SW_V1.1.3/Firmware_Software/DAVE project/S2GL_Doppler/Libraries/XMCLib/inc\xmc_usic.h ****  * XMC_USIC_CH_EnableInputSync(), XMC_USIC_CH_DisableInputDigitalFilter() \n\n\n
 875:C:/Users/±è°æ¹Î/Desktop/IFX_S2GL-HW-SW_V1.1.3/Firmware_Software/DAVE project/S2GL_Doppler/Libraries/XMCLib/inc\xmc_usic.h ****  */
 876:C:/Users/±è°æ¹Î/Desktop/IFX_S2GL-HW-SW_V1.1.3/Firmware_Software/DAVE project/S2GL_Doppler/Libraries/XMCLib/inc\xmc_usic.h **** __STATIC_INLINE void XMC_USIC_CH_DisableInputSync(XMC_USIC_CH_t *const channel, const XMC_USIC_CH_I
 877:C:/Users/±è°æ¹Î/Desktop/IFX_S2GL-HW-SW_V1.1.3/Firmware_Software/DAVE project/S2GL_Doppler/Libraries/XMCLib/inc\xmc_usic.h **** {
 878:C:/Users/±è°æ¹Î/Desktop/IFX_S2GL-HW-SW_V1.1.3/Firmware_Software/DAVE project/S2GL_Doppler/Libraries/XMCLib/inc\xmc_usic.h ****   channel->DXCR[input] &=(uint32_t)~USIC_CH_DXCR_DSEN_Msk;
 879:C:/Users/±è°æ¹Î/Desktop/IFX_S2GL-HW-SW_V1.1.3/Firmware_Software/DAVE project/S2GL_Doppler/Libraries/XMCLib/inc\xmc_usic.h **** }
 880:C:/Users/±è°æ¹Î/Desktop/IFX_S2GL-HW-SW_V1.1.3/Firmware_Software/DAVE project/S2GL_Doppler/Libraries/XMCLib/inc\xmc_usic.h **** /**
 881:C:/Users/±è°æ¹Î/Desktop/IFX_S2GL-HW-SW_V1.1.3/Firmware_Software/DAVE project/S2GL_Doppler/Libraries/XMCLib/inc\xmc_usic.h ****  * @param  channel Pointer to USIC channel handler of type @ref XMC_USIC_CH_t \n
 882:C:/Users/±è°æ¹Î/Desktop/IFX_S2GL-HW-SW_V1.1.3/Firmware_Software/DAVE project/S2GL_Doppler/Libraries/XMCLib/inc\xmc_usic.h ****  * 				   \b Range: @ref XMC_USIC0_CH0, @ref XMC_USIC0_CH1 to @ref XMC_USIC2_CH1 based on device su
 883:C:/Users/±è°æ¹Î/Desktop/IFX_S2GL-HW-SW_V1.1.3/Firmware_Software/DAVE project/S2GL_Doppler/Libraries/XMCLib/inc\xmc_usic.h ****  * @param  input USIC channel input stage of type @ref XMC_USIC_CH_INPUT_t. \n
 884:C:/Users/±è°æ¹Î/Desktop/IFX_S2GL-HW-SW_V1.1.3/Firmware_Software/DAVE project/S2GL_Doppler/Libraries/XMCLib/inc\xmc_usic.h ****  * 				 \b Range: @ref XMC_USIC_CH_INPUT_DX0 to @ref XMC_USIC_CH_INPUT_DX5
 885:C:/Users/±è°æ¹Î/Desktop/IFX_S2GL-HW-SW_V1.1.3/Firmware_Software/DAVE project/S2GL_Doppler/Libraries/XMCLib/inc\xmc_usic.h ****  * @param  sampling_freq Sampling frequency value of type \a XMC_USIC_CH_INPUT_SAMPLING_FREQ_t.
 886:C:/Users/±è°æ¹Î/Desktop/IFX_S2GL-HW-SW_V1.1.3/Firmware_Software/DAVE project/S2GL_Doppler/Libraries/XMCLib/inc\xmc_usic.h ****  * @return None
 887:C:/Users/±è°æ¹Î/Desktop/IFX_S2GL-HW-SW_V1.1.3/Firmware_Software/DAVE project/S2GL_Doppler/Libraries/XMCLib/inc\xmc_usic.h ****  *
 888:C:/Users/±è°æ¹Î/Desktop/IFX_S2GL-HW-SW_V1.1.3/Firmware_Software/DAVE project/S2GL_Doppler/Libraries/XMCLib/inc\xmc_usic.h ****  * \par<b>Description</b><br>
 889:C:/Users/±è°æ¹Î/Desktop/IFX_S2GL-HW-SW_V1.1.3/Firmware_Software/DAVE project/S2GL_Doppler/Libraries/XMCLib/inc\xmc_usic.h ****  * Sets sampling frequency for USIC channel input data signal. \n\n
 890:C:/Users/±è°æ¹Î/Desktop/IFX_S2GL-HW-SW_V1.1.3/Firmware_Software/DAVE project/S2GL_Doppler/Libraries/XMCLib/inc\xmc_usic.h ****  *
 891:C:/Users/±è°æ¹Î/Desktop/IFX_S2GL-HW-SW_V1.1.3/Firmware_Software/DAVE project/S2GL_Doppler/Libraries/XMCLib/inc\xmc_usic.h ****  * \par<b>Related APIs:</b><BR>
 892:C:/Users/±è°æ¹Î/Desktop/IFX_S2GL-HW-SW_V1.1.3/Firmware_Software/DAVE project/S2GL_Doppler/Libraries/XMCLib/inc\xmc_usic.h ****  * XMC_USIC_CH_SetInputSource(), XMC_USIC_CH_EnableInputSync(), XMC_USIC_CH_EnableInputDigitalFilte
 893:C:/Users/±è°æ¹Î/Desktop/IFX_S2GL-HW-SW_V1.1.3/Firmware_Software/DAVE project/S2GL_Doppler/Libraries/XMCLib/inc\xmc_usic.h ****  */
 894:C:/Users/±è°æ¹Î/Desktop/IFX_S2GL-HW-SW_V1.1.3/Firmware_Software/DAVE project/S2GL_Doppler/Libraries/XMCLib/inc\xmc_usic.h **** __STATIC_INLINE void XMC_USIC_CH_SetInputSamplingFreq(XMC_USIC_CH_t *const channel,
 895:C:/Users/±è°æ¹Î/Desktop/IFX_S2GL-HW-SW_V1.1.3/Firmware_Software/DAVE project/S2GL_Doppler/Libraries/XMCLib/inc\xmc_usic.h **** 		                                              const XMC_USIC_CH_INPUT_t input,
 896:C:/Users/±è°æ¹Î/Desktop/IFX_S2GL-HW-SW_V1.1.3/Firmware_Software/DAVE project/S2GL_Doppler/Libraries/XMCLib/inc\xmc_usic.h **** 		                                              const XMC_USIC_CH_INPUT_SAMPLING_FREQ_t sampling_fr
 897:C:/Users/±è°æ¹Î/Desktop/IFX_S2GL-HW-SW_V1.1.3/Firmware_Software/DAVE project/S2GL_Doppler/Libraries/XMCLib/inc\xmc_usic.h **** {
 898:C:/Users/±è°æ¹Î/Desktop/IFX_S2GL-HW-SW_V1.1.3/Firmware_Software/DAVE project/S2GL_Doppler/Libraries/XMCLib/inc\xmc_usic.h ****   channel->DXCR[input] = (uint32_t)(channel->DXCR[input] & (~USIC_CH_DXCR_SFSEL_Msk)) |
 899:C:/Users/±è°æ¹Î/Desktop/IFX_S2GL-HW-SW_V1.1.3/Firmware_Software/DAVE project/S2GL_Doppler/Libraries/XMCLib/inc\xmc_usic.h ****                          ((uint32_t)sampling_freq);
 900:C:/Users/±è°æ¹Î/Desktop/IFX_S2GL-HW-SW_V1.1.3/Firmware_Software/DAVE project/S2GL_Doppler/Libraries/XMCLib/inc\xmc_usic.h **** }
 901:C:/Users/±è°æ¹Î/Desktop/IFX_S2GL-HW-SW_V1.1.3/Firmware_Software/DAVE project/S2GL_Doppler/Libraries/XMCLib/inc\xmc_usic.h **** 
 902:C:/Users/±è°æ¹Î/Desktop/IFX_S2GL-HW-SW_V1.1.3/Firmware_Software/DAVE project/S2GL_Doppler/Libraries/XMCLib/inc\xmc_usic.h **** /**
 903:C:/Users/±è°æ¹Î/Desktop/IFX_S2GL-HW-SW_V1.1.3/Firmware_Software/DAVE project/S2GL_Doppler/Libraries/XMCLib/inc\xmc_usic.h ****  * @param  channel Pointer to USIC channel handler of type @ref XMC_USIC_CH_t \n
 904:C:/Users/±è°æ¹Î/Desktop/IFX_S2GL-HW-SW_V1.1.3/Firmware_Software/DAVE project/S2GL_Doppler/Libraries/XMCLib/inc\xmc_usic.h ****  * 				   \b Range: @ref XMC_USIC0_CH0, @ref XMC_USIC0_CH1 to @ref XMC_USIC2_CH1 based on device su
 905:C:/Users/±è°æ¹Î/Desktop/IFX_S2GL-HW-SW_V1.1.3/Firmware_Software/DAVE project/S2GL_Doppler/Libraries/XMCLib/inc\xmc_usic.h ****  * @param  input USIC channel input stage of type @ref XMC_USIC_CH_INPUT_t. \n
 906:C:/Users/±è°æ¹Î/Desktop/IFX_S2GL-HW-SW_V1.1.3/Firmware_Software/DAVE project/S2GL_Doppler/Libraries/XMCLib/inc\xmc_usic.h ****  * 				 \b Range: @ref XMC_USIC_CH_INPUT_DX0 to @ref XMC_USIC_CH_INPUT_DX5
 907:C:/Users/±è°æ¹Î/Desktop/IFX_S2GL-HW-SW_V1.1.3/Firmware_Software/DAVE project/S2GL_Doppler/Libraries/XMCLib/inc\xmc_usic.h ****  * @param  combination_mode Combination mode value of type \a XMC_USIC_CH_INPUT_COMBINATION_MODE_t.
 908:C:/Users/±è°æ¹Î/Desktop/IFX_S2GL-HW-SW_V1.1.3/Firmware_Software/DAVE project/S2GL_Doppler/Libraries/XMCLib/inc\xmc_usic.h ****  * @return None
 909:C:/Users/±è°æ¹Î/Desktop/IFX_S2GL-HW-SW_V1.1.3/Firmware_Software/DAVE project/S2GL_Doppler/Libraries/XMCLib/inc\xmc_usic.h ****  *
 910:C:/Users/±è°æ¹Î/Desktop/IFX_S2GL-HW-SW_V1.1.3/Firmware_Software/DAVE project/S2GL_Doppler/Libraries/XMCLib/inc\xmc_usic.h ****  * \par<b>Description</b><br>
 911:C:/Users/±è°æ¹Î/Desktop/IFX_S2GL-HW-SW_V1.1.3/Firmware_Software/DAVE project/S2GL_Doppler/Libraries/XMCLib/inc\xmc_usic.h ****  * Selects which edge of the synchronized signal DXnS activates the trigger output DXnT of the inpu
 912:C:/Users/±è°æ¹Î/Desktop/IFX_S2GL-HW-SW_V1.1.3/Firmware_Software/DAVE project/S2GL_Doppler/Libraries/XMCLib/inc\xmc_usic.h ****  *
 913:C:/Users/±è°æ¹Î/Desktop/IFX_S2GL-HW-SW_V1.1.3/Firmware_Software/DAVE project/S2GL_Doppler/Libraries/XMCLib/inc\xmc_usic.h ****  * \par<b>Related APIs:</b><BR>
 914:C:/Users/±è°æ¹Î/Desktop/IFX_S2GL-HW-SW_V1.1.3/Firmware_Software/DAVE project/S2GL_Doppler/Libraries/XMCLib/inc\xmc_usic.h ****  * XMC_USIC_CH_SetInputSource(), XMC_USIC_CH_EnableInputSync(), XMC_USIC_CH_EnableInputDigitalFilte
 915:C:/Users/±è°æ¹Î/Desktop/IFX_S2GL-HW-SW_V1.1.3/Firmware_Software/DAVE project/S2GL_Doppler/Libraries/XMCLib/inc\xmc_usic.h ****  */
 916:C:/Users/±è°æ¹Î/Desktop/IFX_S2GL-HW-SW_V1.1.3/Firmware_Software/DAVE project/S2GL_Doppler/Libraries/XMCLib/inc\xmc_usic.h **** __STATIC_INLINE void XMC_USIC_CH_SetInputTriggerCombinationMode(XMC_USIC_CH_t *const channel,
 917:C:/Users/±è°æ¹Î/Desktop/IFX_S2GL-HW-SW_V1.1.3/Firmware_Software/DAVE project/S2GL_Doppler/Libraries/XMCLib/inc\xmc_usic.h **** 		                                                        const XMC_USIC_CH_INPUT_t input,
 918:C:/Users/±è°æ¹Î/Desktop/IFX_S2GL-HW-SW_V1.1.3/Firmware_Software/DAVE project/S2GL_Doppler/Libraries/XMCLib/inc\xmc_usic.h **** 		                                                        const XMC_USIC_CH_INPUT_COMBINATION_MODE_
 919:C:/Users/±è°æ¹Î/Desktop/IFX_S2GL-HW-SW_V1.1.3/Firmware_Software/DAVE project/S2GL_Doppler/Libraries/XMCLib/inc\xmc_usic.h **** {
 920:C:/Users/±è°æ¹Î/Desktop/IFX_S2GL-HW-SW_V1.1.3/Firmware_Software/DAVE project/S2GL_Doppler/Libraries/XMCLib/inc\xmc_usic.h ****   channel->DXCR[input] = (uint32_t)(channel->DXCR[input] & (~USIC_CH_DXCR_CM_Msk)) |
 921:C:/Users/±è°æ¹Î/Desktop/IFX_S2GL-HW-SW_V1.1.3/Firmware_Software/DAVE project/S2GL_Doppler/Libraries/XMCLib/inc\xmc_usic.h ****                          ((uint32_t)combination_mode << USIC_CH_DXCR_CM_Pos);
 922:C:/Users/±è°æ¹Î/Desktop/IFX_S2GL-HW-SW_V1.1.3/Firmware_Software/DAVE project/S2GL_Doppler/Libraries/XMCLib/inc\xmc_usic.h **** }
 923:C:/Users/±è°æ¹Î/Desktop/IFX_S2GL-HW-SW_V1.1.3/Firmware_Software/DAVE project/S2GL_Doppler/Libraries/XMCLib/inc\xmc_usic.h **** 
 924:C:/Users/±è°æ¹Î/Desktop/IFX_S2GL-HW-SW_V1.1.3/Firmware_Software/DAVE project/S2GL_Doppler/Libraries/XMCLib/inc\xmc_usic.h **** /**
 925:C:/Users/±è°æ¹Î/Desktop/IFX_S2GL-HW-SW_V1.1.3/Firmware_Software/DAVE project/S2GL_Doppler/Libraries/XMCLib/inc\xmc_usic.h ****  * @param  channel Pointer to USIC channel handler of type @ref XMC_USIC_CH_t \n
 926:C:/Users/±è°æ¹Î/Desktop/IFX_S2GL-HW-SW_V1.1.3/Firmware_Software/DAVE project/S2GL_Doppler/Libraries/XMCLib/inc\xmc_usic.h ****  * 				   \b Range: @ref XMC_USIC0_CH0, @ref XMC_USIC0_CH1 to @ref XMC_USIC2_CH1 based on device su
 927:C:/Users/±è°æ¹Î/Desktop/IFX_S2GL-HW-SW_V1.1.3/Firmware_Software/DAVE project/S2GL_Doppler/Libraries/XMCLib/inc\xmc_usic.h ****  * @param  clock_source clock source for the BRG.
 928:C:/Users/±è°æ¹Î/Desktop/IFX_S2GL-HW-SW_V1.1.3/Firmware_Software/DAVE project/S2GL_Doppler/Libraries/XMCLib/inc\xmc_usic.h ****  * @return None
 929:C:/Users/±è°æ¹Î/Desktop/IFX_S2GL-HW-SW_V1.1.3/Firmware_Software/DAVE project/S2GL_Doppler/Libraries/XMCLib/inc\xmc_usic.h ****  *
 930:C:/Users/±è°æ¹Î/Desktop/IFX_S2GL-HW-SW_V1.1.3/Firmware_Software/DAVE project/S2GL_Doppler/Libraries/XMCLib/inc\xmc_usic.h ****  * \par<b>Description</b><br>
 931:C:/Users/±è°æ¹Î/Desktop/IFX_S2GL-HW-SW_V1.1.3/Firmware_Software/DAVE project/S2GL_Doppler/Libraries/XMCLib/inc\xmc_usic.h ****  * Sets the clock source for the BRG. \n\n
 932:C:/Users/±è°æ¹Î/Desktop/IFX_S2GL-HW-SW_V1.1.3/Firmware_Software/DAVE project/S2GL_Doppler/Libraries/XMCLib/inc\xmc_usic.h ****  *
 933:C:/Users/±è°æ¹Î/Desktop/IFX_S2GL-HW-SW_V1.1.3/Firmware_Software/DAVE project/S2GL_Doppler/Libraries/XMCLib/inc\xmc_usic.h ****  * \par<b>Related APIs:</b><BR>
 934:C:/Users/±è°æ¹Î/Desktop/IFX_S2GL-HW-SW_V1.1.3/Firmware_Software/DAVE project/S2GL_Doppler/Libraries/XMCLib/inc\xmc_usic.h ****  * XMC_USIC_CH_SetInputTriggerCombinationMode(), XMC_USIC_CH_SetExternalClockBRGDivider()\n\n\n
 935:C:/Users/±è°æ¹Î/Desktop/IFX_S2GL-HW-SW_V1.1.3/Firmware_Software/DAVE project/S2GL_Doppler/Libraries/XMCLib/inc\xmc_usic.h ****  */
 936:C:/Users/±è°æ¹Î/Desktop/IFX_S2GL-HW-SW_V1.1.3/Firmware_Software/DAVE project/S2GL_Doppler/Libraries/XMCLib/inc\xmc_usic.h **** __STATIC_INLINE void XMC_USIC_CH_SetBRGInputClockSource(XMC_USIC_CH_t *const channel, const XMC_USI
 937:C:/Users/±è°æ¹Î/Desktop/IFX_S2GL-HW-SW_V1.1.3/Firmware_Software/DAVE project/S2GL_Doppler/Libraries/XMCLib/inc\xmc_usic.h **** {
 938:C:/Users/±è°æ¹Î/Desktop/IFX_S2GL-HW-SW_V1.1.3/Firmware_Software/DAVE project/S2GL_Doppler/Libraries/XMCLib/inc\xmc_usic.h ****   channel->BRG = (uint32_t)(channel->BRG & (~USIC_CH_BRG_CLKSEL_Msk)) | (uint32_t)(clock_source);
 306              	 .loc 2 938 0
 307 0002 0325     	 mov r5,#3
 308 0004 4469     	 ldr r4,[r0,#20]
 309              	.LBE11:
 310              	.LBE10:
 311              	.LBB13:
 312              	.LBB14:
 921:C:/Users/±è°æ¹Î/Desktop/IFX_S2GL-HW-SW_V1.1.3/Firmware_Software/DAVE project/S2GL_Doppler/Libraries/XMCLib/inc\xmc_usic.h **** }
 313              	 .loc 2 921 0
 314 0006 9B02     	 lsl r3,r3,#10
 315              	.LVL28:
 316              	.LBE14:
 317              	.LBE13:
 318              	.LBB17:
 319              	.LBB12:
 320              	 .loc 2 938 0
 321 0008 AC43     	 bic r4,r5
 322 000a 013D     	 sub r5,r5,#1
 323 000c 2C43     	 orr r4,r5
 324 000e 4461     	 str r4,[r0,#20]
 325              	.LVL29:
 326              	.LBE12:
 327              	.LBE17:
 328              	.LBB18:
 329              	.LBB15:
 920:C:/Users/±è°æ¹Î/Desktop/IFX_S2GL-HW-SW_V1.1.3/Firmware_Software/DAVE project/S2GL_Doppler/Libraries/XMCLib/inc\xmc_usic.h ****                          ((uint32_t)combination_mode << USIC_CH_DXCR_CM_Pos);
 330              	 .loc 2 920 0
 331 0010 056A     	 ldr r5,[r0,#32]
 332 0012 084C     	 ldr r4,.L23
 333              	.LBE15:
 334              	.LBE18:
 200:../Libraries/XMCLib/src/xmc_usic.c **** }
 335              	 .loc 1 200 0
 336 0014 0139     	 sub r1,r1,#1
 337              	.LVL30:
 338              	.LBB19:
 339              	.LBB16:
 920:C:/Users/±è°æ¹Î/Desktop/IFX_S2GL-HW-SW_V1.1.3/Firmware_Software/DAVE project/S2GL_Doppler/Libraries/XMCLib/inc\xmc_usic.h ****                          ((uint32_t)combination_mode << USIC_CH_DXCR_CM_Pos);
 340              	 .loc 2 920 0
 341 0016 2C40     	 and r4,r5
 342 0018 2343     	 orr r3,r4
 343 001a 0362     	 str r3,[r0,#32]
 344              	.LBE16:
 345              	.LBE19:
 195:../Libraries/XMCLib/src/xmc_usic.c ****                                    USIC_CH_BRG_PDIV_Msk |
 346              	 .loc 1 195 0
 347 001c 4469     	 ldr r4,[r0,#20]
 199:../Libraries/XMCLib/src/xmc_usic.c ****                   (((pdiv) - 1U) << USIC_CH_BRG_PDIV_Pos);
 348              	 .loc 1 199 0
 349 001e 531E     	 sub r3,r2,#1
 195:../Libraries/XMCLib/src/xmc_usic.c ****                                    USIC_CH_BRG_PDIV_Msk |
 350              	 .loc 1 195 0
 351 0020 221C     	 mov r2,r4
 352              	.LVL31:
 199:../Libraries/XMCLib/src/xmc_usic.c ****                   (((pdiv) - 1U) << USIC_CH_BRG_PDIV_Pos);
 353              	 .loc 1 199 0
 354 0022 9B02     	 lsl r3,r3,#10
 355              	.LVL32:
 200:../Libraries/XMCLib/src/xmc_usic.c **** }
 356              	 .loc 1 200 0
 357 0024 0904     	 lsl r1,r1,#16
 358 0026 1943     	 orr r1,r3
 195:../Libraries/XMCLib/src/xmc_usic.c ****                                    USIC_CH_BRG_PDIV_Msk |
 359              	 .loc 1 195 0
 360 0028 034B     	 ldr r3,.L23+4
 201:../Libraries/XMCLib/src/xmc_usic.c **** 
 361              	 .loc 1 201 0
 362              	 
 195:../Libraries/XMCLib/src/xmc_usic.c ****                                    USIC_CH_BRG_PDIV_Msk |
 363              	 .loc 1 195 0
 364 002a 1A40     	 and r2,r3
 199:../Libraries/XMCLib/src/xmc_usic.c ****                   (((pdiv) - 1U) << USIC_CH_BRG_PDIV_Pos);
 365              	 .loc 1 199 0
 366 002c 1143     	 orr r1,r2
 195:../Libraries/XMCLib/src/xmc_usic.c ****                                    USIC_CH_BRG_PDIV_Msk |
 367              	 .loc 1 195 0
 368 002e 4161     	 str r1,[r0,#20]
 201:../Libraries/XMCLib/src/xmc_usic.c **** 
 369              	 .loc 1 201 0
 370 0030 30BD     	 pop {r4,r5,pc}
 371              	.L24:
 372 0032 C046     	 .align 2
 373              	.L23:
 374 0034 FFF3FFFF 	 .word -3073
 375 0038 EF8000FC 	 .word -67075857
 376              	 .cfi_endproc
 377              	.LFE111:
 379              	 .section .text.XMC_USIC_CH_TXFIFO_Configure,"ax",%progbits
 380              	 .align 2
 381              	 .global XMC_USIC_CH_TXFIFO_Configure
 382              	 .code 16
 383              	 .thumb_func
 385              	XMC_USIC_CH_TXFIFO_Configure:
 386              	.LFB112:
 207:../Libraries/XMCLib/src/xmc_usic.c ****   /* Disable FIFO */
 387              	 .loc 1 207 0
 388              	 .cfi_startproc
 389              	.LVL33:
 390 0000 70B5     	 push {r4,r5,r6,lr}
 391              	.LCFI5:
 392              	 .cfi_def_cfa_offset 16
 393              	 .cfi_offset 4,-16
 394              	 .cfi_offset 5,-12
 395              	 .cfi_offset 6,-8
 396              	 .cfi_offset 14,-4
 209:../Libraries/XMCLib/src/xmc_usic.c **** 
 397              	 .loc 1 209 0
 398 0002 8425     	 mov r5,#132
 399 0004 6D00     	 lsl r5,r5,#1
 400 0006 4659     	 ldr r6,[r0,r5]
 401 0008 064C     	 ldr r4,.L26
 221:../Libraries/XMCLib/src/xmc_usic.c **** }
 402              	 .loc 1 221 0
 403 000a 1206     	 lsl r2,r2,#24
 404              	.LVL34:
 209:../Libraries/XMCLib/src/xmc_usic.c **** 
 405              	 .loc 1 209 0
 406 000c 3440     	 and r4,r6
 407 000e 4451     	 str r4,[r0,r5]
 216:../Libraries/XMCLib/src/xmc_usic.c ****                                                            USIC_CH_TBCTR_DPTR_Msk |
 408              	 .loc 1 216 0
 409 0010 4659     	 ldr r6,[r0,r5]
 410 0012 054C     	 ldr r4,.L26+4
 219:../Libraries/XMCLib/src/xmc_usic.c ****                    (data_pointer << USIC_CH_TBCTR_DPTR_Pos) |
 411              	 .loc 1 219 0
 412 0014 1B02     	 lsl r3,r3,#8
 413              	.LVL35:
 216:../Libraries/XMCLib/src/xmc_usic.c ****                                                            USIC_CH_TBCTR_DPTR_Msk |
 414              	 .loc 1 216 0
 415 0016 3440     	 and r4,r6
 416 0018 2143     	 orr r1,r4
 417              	.LVL36:
 418 001a 0A43     	 orr r2,r1
 218:../Libraries/XMCLib/src/xmc_usic.c ****                    (uint32_t)((limit << USIC_CH_TBCTR_LIMIT_Pos) |
 419              	 .loc 1 218 0
 420 001c 1343     	 orr r3,r2
 216:../Libraries/XMCLib/src/xmc_usic.c ****                                                            USIC_CH_TBCTR_DPTR_Msk |
 421              	 .loc 1 216 0
 422 001e 4351     	 str r3,[r0,r5]
 222:../Libraries/XMCLib/src/xmc_usic.c **** 
 423              	 .loc 1 222 0
 424              	 
 425 0020 70BD     	 pop {r4,r5,r6,pc}
 426              	.L27:
 427 0022 C046     	 .align 2
 428              	.L26:
 429 0024 FFFFFFF8 	 .word -117440513
 430 0028 C0C0FFF8 	 .word -117456704
 431              	 .cfi_endproc
 432              	.LFE112:
 434              	 .section .text.XMC_USIC_CH_RXFIFO_Configure,"ax",%progbits
 435              	 .align 2
 436              	 .global XMC_USIC_CH_RXFIFO_Configure
 437              	 .code 16
 438              	 .thumb_func
 440              	XMC_USIC_CH_RXFIFO_Configure:
 441              	.LFB113:
 229:../Libraries/XMCLib/src/xmc_usic.c ****   /* Disable FIFO */
 442              	 .loc 1 229 0
 443              	 .cfi_startproc
 444              	.LVL37:
 445 0000 70B5     	 push {r4,r5,r6,lr}
 446              	.LCFI6:
 447              	 .cfi_def_cfa_offset 16
 448              	 .cfi_offset 4,-16
 449              	 .cfi_offset 5,-12
 450              	 .cfi_offset 6,-8
 451              	 .cfi_offset 14,-4
 231:../Libraries/XMCLib/src/xmc_usic.c **** 
 452              	 .loc 1 231 0
 453 0002 8626     	 mov r6,#134
 454 0004 7600     	 lsl r6,r6,#1
 455 0006 8559     	 ldr r5,[r0,r6]
 456 0008 074C     	 ldr r4,.L29
 241:../Libraries/XMCLib/src/xmc_usic.c ****                    (uint32_t)USIC_CH_RBCTR_LOF_Msk));
 457              	 .loc 1 241 0
 458 000a 1206     	 lsl r2,r2,#24
 459              	.LVL38:
 231:../Libraries/XMCLib/src/xmc_usic.c **** 
 460              	 .loc 1 231 0
 461 000c 2C40     	 and r4,r5
 462 000e 8451     	 str r4,[r0,r6]
 236:../Libraries/XMCLib/src/xmc_usic.c ****                                                             USIC_CH_RBCTR_DPTR_Msk |
 463              	 .loc 1 236 0
 464 0010 8459     	 ldr r4,[r0,r6]
 465 0012 064D     	 ldr r5,.L29+4
 239:../Libraries/XMCLib/src/xmc_usic.c ****                    (data_pointer << USIC_CH_RBCTR_DPTR_Pos) |
 466              	 .loc 1 239 0
 467 0014 1B02     	 lsl r3,r3,#8
 468              	.LVL39:
 236:../Libraries/XMCLib/src/xmc_usic.c ****                                                             USIC_CH_RBCTR_DPTR_Msk |
 469              	 .loc 1 236 0
 470 0016 2540     	 and r5,r4
 471 0018 8024     	 mov r4,#128
 472 001a 6405     	 lsl r4,r4,#21
 473 001c 2C43     	 orr r4,r5
 474 001e 2143     	 orr r1,r4
 475              	.LVL40:
 476 0020 0A43     	 orr r2,r1
 477 0022 1343     	 orr r3,r2
 478 0024 8351     	 str r3,[r0,r6]
 243:../Libraries/XMCLib/src/xmc_usic.c **** 
 479              	 .loc 1 243 0
 480              	 
 481 0026 70BD     	 pop {r4,r5,r6,pc}
 482              	.L30:
 483              	 .align 2
 484              	.L29:
 485 0028 FFFFFFF8 	 .word -117440513
 486 002c C0C0FFEF 	 .word -268451648
 487              	 .cfi_endproc
 488              	.LFE113:
 490              	 .section .text.XMC_USIC_CH_TXFIFO_SetSizeTriggerLimit,"ax",%progbits
 491              	 .align 2
 492              	 .global XMC_USIC_CH_TXFIFO_SetSizeTriggerLimit
 493              	 .code 16
 494              	 .thumb_func
 496              	XMC_USIC_CH_TXFIFO_SetSizeTriggerLimit:
 497              	.LFB114:
 248:../Libraries/XMCLib/src/xmc_usic.c ****   /* Disable FIFO */
 498              	 .loc 1 248 0
 499              	 .cfi_startproc
 500              	.LVL41:
 501 0000 30B5     	 push {r4,r5,lr}
 502              	.LCFI7:
 503              	 .cfi_def_cfa_offset 12
 504              	 .cfi_offset 4,-12
 505              	 .cfi_offset 5,-8
 506              	 .cfi_offset 14,-4
 250:../Libraries/XMCLib/src/xmc_usic.c **** 
 507              	 .loc 1 250 0
 508 0002 8424     	 mov r4,#132
 256:../Libraries/XMCLib/src/xmc_usic.c ****                    ((uint32_t)size << USIC_CH_TBCTR_SIZE_Pos));
 509              	 .loc 1 256 0
 510 0004 1202     	 lsl r2,r2,#8
 511              	.LVL42:
 257:../Libraries/XMCLib/src/xmc_usic.c **** }
 512              	 .loc 1 257 0
 513 0006 0906     	 lsl r1,r1,#24
 514              	.LVL43:
 515 0008 1143     	 orr r1,r2
 255:../Libraries/XMCLib/src/xmc_usic.c ****                    (limit << USIC_CH_TBCTR_LIMIT_Pos) |
 516              	 .loc 1 255 0
 517 000a 0A1C     	 mov r2,r1
 250:../Libraries/XMCLib/src/xmc_usic.c **** 
 518              	 .loc 1 250 0
 519 000c 6400     	 lsl r4,r4,#1
 520 000e 0559     	 ldr r5,[r0,r4]
 521 0010 044B     	 ldr r3,.L32
 258:../Libraries/XMCLib/src/xmc_usic.c **** 
 522              	 .loc 1 258 0
 523              	 
 250:../Libraries/XMCLib/src/xmc_usic.c **** 
 524              	 .loc 1 250 0
 525 0012 2B40     	 and r3,r5
 526 0014 0351     	 str r3,[r0,r4]
 255:../Libraries/XMCLib/src/xmc_usic.c ****                    (limit << USIC_CH_TBCTR_LIMIT_Pos) |
 527              	 .loc 1 255 0
 528 0016 0559     	 ldr r5,[r0,r4]
 529 0018 034B     	 ldr r3,.L32+4
 530 001a 2B40     	 and r3,r5
 531 001c 1A43     	 orr r2,r3
 532 001e 0251     	 str r2,[r0,r4]
 258:../Libraries/XMCLib/src/xmc_usic.c **** 
 533              	 .loc 1 258 0
 534 0020 30BD     	 pop {r4,r5,pc}
 535              	.L33:
 536 0022 C046     	 .align 2
 537              	.L32:
 538 0024 FFFFFFF8 	 .word -117440513
 539 0028 FFC0FFFF 	 .word -16129
 540              	 .cfi_endproc
 541              	.LFE114:
 543              	 .section .text.XMC_USIC_CH_RXFIFO_SetSizeTriggerLimit,"ax",%progbits
 544              	 .align 2
 545              	 .global XMC_USIC_CH_RXFIFO_SetSizeTriggerLimit
 546              	 .code 16
 547              	 .thumb_func
 549              	XMC_USIC_CH_RXFIFO_SetSizeTriggerLimit:
 550              	.LFB115:
 263:../Libraries/XMCLib/src/xmc_usic.c ****   /* Disable FIFO */
 551              	 .loc 1 263 0
 552              	 .cfi_startproc
 553              	.LVL44:
 554 0000 30B5     	 push {r4,r5,lr}
 555              	.LCFI8:
 556              	 .cfi_def_cfa_offset 12
 557              	 .cfi_offset 4,-12
 558              	 .cfi_offset 5,-8
 559              	 .cfi_offset 14,-4
 265:../Libraries/XMCLib/src/xmc_usic.c **** 
 560              	 .loc 1 265 0
 561 0002 8624     	 mov r4,#134
 268:../Libraries/XMCLib/src/xmc_usic.c ****                    ((uint32_t)size << USIC_CH_RBCTR_SIZE_Pos));
 562              	 .loc 1 268 0
 563 0004 1202     	 lsl r2,r2,#8
 564              	.LVL45:
 269:../Libraries/XMCLib/src/xmc_usic.c **** }
 565              	 .loc 1 269 0
 566 0006 0906     	 lsl r1,r1,#24
 567              	.LVL46:
 568 0008 1143     	 orr r1,r2
 267:../Libraries/XMCLib/src/xmc_usic.c ****                    (limit << USIC_CH_RBCTR_LIMIT_Pos) |
 569              	 .loc 1 267 0
 570 000a 0A1C     	 mov r2,r1
 265:../Libraries/XMCLib/src/xmc_usic.c **** 
 571              	 .loc 1 265 0
 572 000c 6400     	 lsl r4,r4,#1
 573 000e 0559     	 ldr r5,[r0,r4]
 574 0010 044B     	 ldr r3,.L35
 270:../Libraries/XMCLib/src/xmc_usic.c **** 
 575              	 .loc 1 270 0
 576              	 
 265:../Libraries/XMCLib/src/xmc_usic.c **** 
 577              	 .loc 1 265 0
 578 0012 2B40     	 and r3,r5
 579 0014 0351     	 str r3,[r0,r4]
 267:../Libraries/XMCLib/src/xmc_usic.c ****                    (limit << USIC_CH_RBCTR_LIMIT_Pos) |
 580              	 .loc 1 267 0
 581 0016 0559     	 ldr r5,[r0,r4]
 582 0018 034B     	 ldr r3,.L35+4
 583 001a 2B40     	 and r3,r5
 584 001c 1A43     	 orr r2,r3
 585 001e 0251     	 str r2,[r0,r4]
 270:../Libraries/XMCLib/src/xmc_usic.c **** 
 586              	 .loc 1 270 0
 587 0020 30BD     	 pop {r4,r5,pc}
 588              	.L36:
 589 0022 C046     	 .align 2
 590              	.L35:
 591 0024 FFFFFFF8 	 .word -117440513
 592 0028 FFC0FFFF 	 .word -16129
 593              	 .cfi_endproc
 594              	.LFE115:
 596              	 .section .text.XMC_USIC_CH_SetInterruptNodePointer,"ax",%progbits
 597              	 .align 2
 598              	 .global XMC_USIC_CH_SetInterruptNodePointer
 599              	 .code 16
 600              	 .thumb_func
 602              	XMC_USIC_CH_SetInterruptNodePointer:
 603              	.LFB116:
 275:../Libraries/XMCLib/src/xmc_usic.c ****   channel->INPR = (uint32_t)((channel->INPR & (~(uint32_t)(USIC_CH_INPR_Msk << (uint32_t)interrupt_
 604              	 .loc 1 275 0
 605              	 .cfi_startproc
 606              	.LVL47:
 607 0000 10B5     	 push {r4,lr}
 608              	.LCFI9:
 609              	 .cfi_def_cfa_offset 8
 610              	 .cfi_offset 4,-8
 611              	 .cfi_offset 14,-4
 276:../Libraries/XMCLib/src/xmc_usic.c ****                   (service_request << (uint32_t)interrupt_node));
 612              	 .loc 1 276 0
 613 0002 0724     	 mov r4,#7
 614 0004 8C40     	 lsl r4,r4,r1
 277:../Libraries/XMCLib/src/xmc_usic.c **** }
 615              	 .loc 1 277 0
 616 0006 8A40     	 lsl r2,r2,r1
 617              	.LVL48:
 276:../Libraries/XMCLib/src/xmc_usic.c ****                   (service_request << (uint32_t)interrupt_node));
 618              	 .loc 1 276 0
 619 0008 8369     	 ldr r3,[r0,#24]
 278:../Libraries/XMCLib/src/xmc_usic.c **** 
 620              	 .loc 1 278 0
 621              	 
 276:../Libraries/XMCLib/src/xmc_usic.c ****                   (service_request << (uint32_t)interrupt_node));
 622              	 .loc 1 276 0
 623 000a A343     	 bic r3,r4
 624 000c 1343     	 orr r3,r2
 625 000e 8361     	 str r3,[r0,#24]
 278:../Libraries/XMCLib/src/xmc_usic.c **** 
 626              	 .loc 1 278 0
 627 0010 10BD     	 pop {r4,pc}
 628              	 .cfi_endproc
 629              	.LFE116:
 631 0012 C046     	 .section .text.XMC_USIC_CH_TXFIFO_SetInterruptNodePointer,"ax",%progbits
 632              	 .align 2
 633              	 .global XMC_USIC_CH_TXFIFO_SetInterruptNodePointer
 634              	 .code 16
 635              	 .thumb_func
 637              	XMC_USIC_CH_TXFIFO_SetInterruptNodePointer:
 638              	.LFB117:
 283:../Libraries/XMCLib/src/xmc_usic.c ****   channel->TBCTR = (uint32_t)((channel->TBCTR & (~(uint32_t)(USIC_CH_INPR_Msk << (uint32_t)interrup
 639              	 .loc 1 283 0
 640              	 .cfi_startproc
 641              	.LVL49:
 642 0000 30B5     	 push {r4,r5,lr}
 643              	.LCFI10:
 644              	 .cfi_def_cfa_offset 12
 645              	 .cfi_offset 4,-12
 646              	 .cfi_offset 5,-8
 647              	 .cfi_offset 14,-4
 284:../Libraries/XMCLib/src/xmc_usic.c ****                    (service_request << (uint32_t)interrupt_node));
 648              	 .loc 1 284 0
 649 0002 0724     	 mov r4,#7
 650 0004 8425     	 mov r5,#132
 651 0006 8C40     	 lsl r4,r4,r1
 285:../Libraries/XMCLib/src/xmc_usic.c **** }
 652              	 .loc 1 285 0
 653 0008 8A40     	 lsl r2,r2,r1
 654              	.LVL50:
 284:../Libraries/XMCLib/src/xmc_usic.c ****                    (service_request << (uint32_t)interrupt_node));
 655              	 .loc 1 284 0
 656 000a 6D00     	 lsl r5,r5,#1
 657 000c 4359     	 ldr r3,[r0,r5]
 286:../Libraries/XMCLib/src/xmc_usic.c **** 
 658              	 .loc 1 286 0
 659              	 
 284:../Libraries/XMCLib/src/xmc_usic.c ****                    (service_request << (uint32_t)interrupt_node));
 660              	 .loc 1 284 0
 661 000e A343     	 bic r3,r4
 662 0010 1343     	 orr r3,r2
 663 0012 4351     	 str r3,[r0,r5]
 286:../Libraries/XMCLib/src/xmc_usic.c **** 
 664              	 .loc 1 286 0
 665 0014 30BD     	 pop {r4,r5,pc}
 666              	 .cfi_endproc
 667              	.LFE117:
 669 0016 C046     	 .section .text.XMC_USIC_CH_RXFIFO_SetInterruptNodePointer,"ax",%progbits
 670              	 .align 2
 671              	 .global XMC_USIC_CH_RXFIFO_SetInterruptNodePointer
 672              	 .code 16
 673              	 .thumb_func
 675              	XMC_USIC_CH_RXFIFO_SetInterruptNodePointer:
 676              	.LFB118:
 291:../Libraries/XMCLib/src/xmc_usic.c ****   channel->RBCTR = (uint32_t)((channel->RBCTR & (~(uint32_t)(USIC_CH_INPR_Msk << (uint32_t)interrup
 677              	 .loc 1 291 0
 678              	 .cfi_startproc
 679              	.LVL51:
 680 0000 30B5     	 push {r4,r5,lr}
 681              	.LCFI11:
 682              	 .cfi_def_cfa_offset 12
 683              	 .cfi_offset 4,-12
 684              	 .cfi_offset 5,-8
 685              	 .cfi_offset 14,-4
 292:../Libraries/XMCLib/src/xmc_usic.c ****                    (service_request << (uint32_t)interrupt_node));
 686              	 .loc 1 292 0
 687 0002 0724     	 mov r4,#7
 688 0004 8625     	 mov r5,#134
 689 0006 8C40     	 lsl r4,r4,r1
 293:../Libraries/XMCLib/src/xmc_usic.c **** }
 690              	 .loc 1 293 0
 691 0008 8A40     	 lsl r2,r2,r1
 692              	.LVL52:
 292:../Libraries/XMCLib/src/xmc_usic.c ****                    (service_request << (uint32_t)interrupt_node));
 693              	 .loc 1 292 0
 694 000a 6D00     	 lsl r5,r5,#1
 695 000c 4359     	 ldr r3,[r0,r5]
 294:../Libraries/XMCLib/src/xmc_usic.c **** 
 696              	 .loc 1 294 0
 697              	 
 292:../Libraries/XMCLib/src/xmc_usic.c ****                    (service_request << (uint32_t)interrupt_node));
 698              	 .loc 1 292 0
 699 000e A343     	 bic r3,r4
 700 0010 1343     	 orr r3,r2
 701 0012 4351     	 str r3,[r0,r5]
 294:../Libraries/XMCLib/src/xmc_usic.c **** 
 702              	 .loc 1 294 0
 703 0014 30BD     	 pop {r4,r5,pc}
 704              	 .cfi_endproc
 705              	.LFE118:
 707 0016 C046     	 .section .text.XMC_USIC_Enable,"ax",%progbits
 708              	 .align 2
 709              	 .global XMC_USIC_Enable
 710              	 .code 16
 711              	 .thumb_func
 713              	XMC_USIC_Enable:
 714              	.LFB119:
 297:../Libraries/XMCLib/src/xmc_usic.c ****   if (usic == USIC0)
 715              	 .loc 1 297 0
 716              	 .cfi_startproc
 717              	.LVL53:
 718 0000 08B5     	 push {r3,lr}
 719              	.LCFI12:
 720              	 .cfi_def_cfa_offset 8
 721              	 .cfi_offset 3,-8
 722              	 .cfi_offset 14,-4
 298:../Libraries/XMCLib/src/xmc_usic.c ****   {
 723              	 .loc 1 298 0
 724 0002 044B     	 ldr r3,.L43
 725 0004 9842     	 cmp r0,r3
 726 0006 00D0     	 beq .L42
 727              	.LVL54:
 728              	.L40:
 302:../Libraries/XMCLib/src/xmc_usic.c **** #endif
 303:../Libraries/XMCLib/src/xmc_usic.c **** #if defined(PERIPHERAL_RESET_SUPPORTED)
 304:../Libraries/XMCLib/src/xmc_usic.c ****     XMC_SCU_RESET_DeassertPeripheralReset(XMC_SCU_PERIPHERAL_RESET_USIC0);
 305:../Libraries/XMCLib/src/xmc_usic.c **** #endif	
 306:../Libraries/XMCLib/src/xmc_usic.c ****   }
 307:../Libraries/XMCLib/src/xmc_usic.c **** #if defined(USIC1)  
 308:../Libraries/XMCLib/src/xmc_usic.c ****   else if (usic == USIC1)
 309:../Libraries/XMCLib/src/xmc_usic.c ****   {
 310:../Libraries/XMCLib/src/xmc_usic.c **** #if defined(CLOCK_GATING_SUPPORTED)
 311:../Libraries/XMCLib/src/xmc_usic.c ****     XMC_SCU_CLOCK_UngatePeripheralClock(XMC_SCU_PERIPHERAL_CLOCK_USIC1);
 312:../Libraries/XMCLib/src/xmc_usic.c **** #endif	
 313:../Libraries/XMCLib/src/xmc_usic.c **** #if defined(PERIPHERAL_RESET_SUPPORTED)
 314:../Libraries/XMCLib/src/xmc_usic.c ****     XMC_SCU_RESET_DeassertPeripheralReset(XMC_SCU_PERIPHERAL_RESET_USIC1);
 315:../Libraries/XMCLib/src/xmc_usic.c **** #endif	
 316:../Libraries/XMCLib/src/xmc_usic.c ****   }
 317:../Libraries/XMCLib/src/xmc_usic.c **** #endif  
 318:../Libraries/XMCLib/src/xmc_usic.c **** #if defined(USIC2)  
 319:../Libraries/XMCLib/src/xmc_usic.c ****   else if (usic == USIC2)
 320:../Libraries/XMCLib/src/xmc_usic.c ****   {
 321:../Libraries/XMCLib/src/xmc_usic.c **** #if defined(CLOCK_GATING_SUPPORTED) 
 322:../Libraries/XMCLib/src/xmc_usic.c ****     XMC_SCU_CLOCK_UngatePeripheralClock(XMC_SCU_PERIPHERAL_CLOCK_USIC2);
 323:../Libraries/XMCLib/src/xmc_usic.c **** #endif
 324:../Libraries/XMCLib/src/xmc_usic.c **** #if defined(PERIPHERAL_RESET_SUPPORTED)
 325:../Libraries/XMCLib/src/xmc_usic.c ****     XMC_SCU_RESET_DeassertPeripheralReset(XMC_SCU_PERIPHERAL_RESET_USIC2);
 326:../Libraries/XMCLib/src/xmc_usic.c **** #endif	
 327:../Libraries/XMCLib/src/xmc_usic.c ****   }
 328:../Libraries/XMCLib/src/xmc_usic.c **** #endif  
 329:../Libraries/XMCLib/src/xmc_usic.c ****   else
 330:../Libraries/XMCLib/src/xmc_usic.c ****   {
 331:../Libraries/XMCLib/src/xmc_usic.c ****     XMC_ASSERT("USIC module not available", 0/*Always*/);
 332:../Libraries/XMCLib/src/xmc_usic.c ****   }
 333:../Libraries/XMCLib/src/xmc_usic.c **** }
 729              	 .loc 1 333 0
 730              	 
 731 0008 08BD     	 pop {r3,pc}
 732              	.LVL55:
 733              	.L42:
 301:../Libraries/XMCLib/src/xmc_usic.c **** #endif
 734              	 .loc 1 301 0
 735 000a 0820     	 mov r0,#8
 736              	.LVL56:
 737 000c FFF7FEFF 	 bl XMC_SCU_CLOCK_UngatePeripheralClock
 738              	.LVL57:
 739 0010 FAE7     	 b .L40
 740              	.L44:
 741 0012 C046     	 .align 2
 742              	.L43:
 743 0014 08000048 	 .word 1207959560
 744              	 .cfi_endproc
 745              	.LFE119:
 747              	 .section .text.XMC_USIC_Disable,"ax",%progbits
 748              	 .align 2
 749              	 .global XMC_USIC_Disable
 750              	 .code 16
 751              	 .thumb_func
 753              	XMC_USIC_Disable:
 754              	.LFB120:
 334:../Libraries/XMCLib/src/xmc_usic.c **** 
 335:../Libraries/XMCLib/src/xmc_usic.c **** void XMC_USIC_Disable(XMC_USIC_t *const usic)
 336:../Libraries/XMCLib/src/xmc_usic.c **** {
 755              	 .loc 1 336 0
 756              	 .cfi_startproc
 757              	.LVL58:
 758 0000 08B5     	 push {r3,lr}
 759              	.LCFI13:
 760              	 .cfi_def_cfa_offset 8
 761              	 .cfi_offset 3,-8
 762              	 .cfi_offset 14,-4
 337:../Libraries/XMCLib/src/xmc_usic.c ****   if (usic == (XMC_USIC_t *)USIC0)
 763              	 .loc 1 337 0
 764 0002 044B     	 ldr r3,.L48
 765 0004 9842     	 cmp r0,r3
 766 0006 00D0     	 beq .L47
 767              	.LVL59:
 768              	.L45:
 338:../Libraries/XMCLib/src/xmc_usic.c ****   {
 339:../Libraries/XMCLib/src/xmc_usic.c **** #if defined(PERIPHERAL_RESET_SUPPORTED)  
 340:../Libraries/XMCLib/src/xmc_usic.c ****     XMC_SCU_RESET_AssertPeripheralReset(XMC_SCU_PERIPHERAL_RESET_USIC0);
 341:../Libraries/XMCLib/src/xmc_usic.c **** #endif	
 342:../Libraries/XMCLib/src/xmc_usic.c **** #if defined(CLOCK_GATING_SUPPORTED) 
 343:../Libraries/XMCLib/src/xmc_usic.c ****     XMC_SCU_CLOCK_GatePeripheralClock(XMC_SCU_PERIPHERAL_CLOCK_USIC0);
 344:../Libraries/XMCLib/src/xmc_usic.c **** #endif
 345:../Libraries/XMCLib/src/xmc_usic.c ****   }
 346:../Libraries/XMCLib/src/xmc_usic.c **** #if defined(USIC1)  
 347:../Libraries/XMCLib/src/xmc_usic.c ****   else if (usic == (XMC_USIC_t *)USIC1)
 348:../Libraries/XMCLib/src/xmc_usic.c ****   {
 349:../Libraries/XMCLib/src/xmc_usic.c **** #if defined(PERIPHERAL_RESET_SUPPORTED)  
 350:../Libraries/XMCLib/src/xmc_usic.c ****     XMC_SCU_RESET_AssertPeripheralReset(XMC_SCU_PERIPHERAL_RESET_USIC1);
 351:../Libraries/XMCLib/src/xmc_usic.c **** #endif	
 352:../Libraries/XMCLib/src/xmc_usic.c **** #if defined(CLOCK_GATING_SUPPORTED) 
 353:../Libraries/XMCLib/src/xmc_usic.c ****     XMC_SCU_CLOCK_GatePeripheralClock(XMC_SCU_PERIPHERAL_CLOCK_USIC1);
 354:../Libraries/XMCLib/src/xmc_usic.c **** #endif
 355:../Libraries/XMCLib/src/xmc_usic.c ****   }
 356:../Libraries/XMCLib/src/xmc_usic.c **** #endif  
 357:../Libraries/XMCLib/src/xmc_usic.c **** #if defined(USIC2)  
 358:../Libraries/XMCLib/src/xmc_usic.c ****   else if (usic == (XMC_USIC_t *)USIC2)
 359:../Libraries/XMCLib/src/xmc_usic.c ****   {
 360:../Libraries/XMCLib/src/xmc_usic.c **** #if defined(PERIPHERAL_RESET_SUPPORTED)  
 361:../Libraries/XMCLib/src/xmc_usic.c ****     XMC_SCU_RESET_AssertPeripheralReset(XMC_SCU_PERIPHERAL_RESET_USIC2);
 362:../Libraries/XMCLib/src/xmc_usic.c **** #endif	
 363:../Libraries/XMCLib/src/xmc_usic.c **** #if defined(CLOCK_GATING_SUPPORTED) 
 364:../Libraries/XMCLib/src/xmc_usic.c ****     XMC_SCU_CLOCK_GatePeripheralClock(XMC_SCU_PERIPHERAL_CLOCK_USIC2);
 365:../Libraries/XMCLib/src/xmc_usic.c **** #endif
 366:../Libraries/XMCLib/src/xmc_usic.c ****   }
 367:../Libraries/XMCLib/src/xmc_usic.c **** #endif  
 368:../Libraries/XMCLib/src/xmc_usic.c ****   else
 369:../Libraries/XMCLib/src/xmc_usic.c ****   {
 370:../Libraries/XMCLib/src/xmc_usic.c **** 	  XMC_ASSERT("USIC module not available", 0/*Always*/);
 371:../Libraries/XMCLib/src/xmc_usic.c ****   }
 372:../Libraries/XMCLib/src/xmc_usic.c ****   
 373:../Libraries/XMCLib/src/xmc_usic.c **** }
 769              	 .loc 1 373 0
 770              	 
 771 0008 08BD     	 pop {r3,pc}
 772              	.LVL60:
 773              	.L47:
 343:../Libraries/XMCLib/src/xmc_usic.c **** #endif
 774              	 .loc 1 343 0
 775 000a 0820     	 mov r0,#8
 776              	.LVL61:
 777 000c FFF7FEFF 	 bl XMC_SCU_CLOCK_GatePeripheralClock
 778              	.LVL62:
 779 0010 FAE7     	 b .L45
 780              	.L49:
 781 0012 C046     	 .align 2
 782              	.L48:
 783 0014 08000048 	 .word 1207959560
 784              	 .cfi_endproc
 785              	.LFE120:
 787              	 .text
 788              	.Letext0:
 789              	 .file 3 "c:\\infineon\\tools\\dave ide\\4.5.0.202105191637\\eclipse\\arm-gcc-49\\arm-none-eabi\\include\\machine\\_default_types.h"
 790              	 .file 4 "c:\\infineon\\tools\\dave ide\\4.5.0.202105191637\\eclipse\\arm-gcc-49\\arm-none-eabi\\include\\stdint.h"
 791              	 .file 5 "C:/Users/\261\350\260\346\271\316/Desktop/IFX_S2GL-HW-SW_V1.1.3/Firmware_Software/DAVE project/S2GL_Doppler/Libraries/CMSIS/Infineon/XMC1300_series/Include/XMC1300.h"
 792              	 .file 6 "C:/Users/\261\350\260\346\271\316/Desktop/IFX_S2GL-HW-SW_V1.1.3/Firmware_Software/DAVE project/S2GL_Doppler/Libraries/XMCLib/inc/xmc1_scu.h"
 793              	 .file 7 "C:/Users/\261\350\260\346\271\316/Desktop/IFX_S2GL-HW-SW_V1.1.3/Firmware_Software/DAVE project/S2GL_Doppler/Libraries/XMCLib/inc/xmc_scu.h"
 794              	 .file 8 "C:/Users/\261\350\260\346\271\316/Desktop/IFX_S2GL-HW-SW_V1.1.3/Firmware_Software/DAVE project/S2GL_Doppler/Libraries/CMSIS/Infineon/XMC1300_series/Include/system_XMC1300.h"