   1              	 .cpu cortex-m0
   2              	 .fpu softvfp
   3              	 .eabi_attribute 20,1
   4              	 .eabi_attribute 21,1
   5              	 .eabi_attribute 23,3
   6              	 .eabi_attribute 24,1
   7              	 .eabi_attribute 25,1
   8              	 .eabi_attribute 26,1
   9              	 .eabi_attribute 30,2
  10              	 .eabi_attribute 34,0
  11              	 .eabi_attribute 18,4
  12              	 .code 16
  13              	 .file "global_scu_xmc1.c"
  14              	 .text
  15              	.Ltext0:
  16              	 .cfi_sections .debug_frame
  17              	 .section .text.GLOBAL_SCU_XMC1_GetAppVersion,"ax",%progbits
  18              	 .align 2
  19              	 .global GLOBAL_SCU_XMC1_GetAppVersion
  20              	 .code 16
  21              	 .thumb_func
  23              	GLOBAL_SCU_XMC1_GetAppVersion:
  24              	.LFB54:
  25              	 .file 1 "../Dave/Generated/GLOBAL_SCU_XMC1/global_scu_xmc1.c"
   1:../Dave/Generated/GLOBAL_SCU_XMC1/global_scu_xmc1.c **** /**
   2:../Dave/Generated/GLOBAL_SCU_XMC1/global_scu_xmc1.c ****  * @file global_scu_xmc1.c
   3:../Dave/Generated/GLOBAL_SCU_XMC1/global_scu_xmc1.c ****  * @date 2015-10-09
   4:../Dave/Generated/GLOBAL_SCU_XMC1/global_scu_xmc1.c ****  *
   5:../Dave/Generated/GLOBAL_SCU_XMC1/global_scu_xmc1.c ****  * NOTE:
   6:../Dave/Generated/GLOBAL_SCU_XMC1/global_scu_xmc1.c ****  * This file is generated by DAVE. Any manual modification done to this file will be lost when the 
   7:../Dave/Generated/GLOBAL_SCU_XMC1/global_scu_xmc1.c ****  */
   8:../Dave/Generated/GLOBAL_SCU_XMC1/global_scu_xmc1.c **** /**
   9:../Dave/Generated/GLOBAL_SCU_XMC1/global_scu_xmc1.c ****  * @cond
  10:../Dave/Generated/GLOBAL_SCU_XMC1/global_scu_xmc1.c ****  **************************************************************************************************
  11:../Dave/Generated/GLOBAL_SCU_XMC1/global_scu_xmc1.c ****  * GLOBAL_SCU_XMC1 v4.1.6 - Registers the callback for SCU Interrupt
  12:../Dave/Generated/GLOBAL_SCU_XMC1/global_scu_xmc1.c ****  *
  13:../Dave/Generated/GLOBAL_SCU_XMC1/global_scu_xmc1.c ****  * Copyright (C) 2015-2019 Infineon Technologies AG
  14:../Dave/Generated/GLOBAL_SCU_XMC1/global_scu_xmc1.c ****  * All rights reserved.
  15:../Dave/Generated/GLOBAL_SCU_XMC1/global_scu_xmc1.c ****  *
  16:../Dave/Generated/GLOBAL_SCU_XMC1/global_scu_xmc1.c ****  * Redistribution and use in source and binary forms, with or without modification,are permitted pr
  17:../Dave/Generated/GLOBAL_SCU_XMC1/global_scu_xmc1.c ****  * following conditions are met:
  18:../Dave/Generated/GLOBAL_SCU_XMC1/global_scu_xmc1.c ****  *
  19:../Dave/Generated/GLOBAL_SCU_XMC1/global_scu_xmc1.c ****  *   Redistributions of source code must retain the above copyright notice, this list of conditions
  20:../Dave/Generated/GLOBAL_SCU_XMC1/global_scu_xmc1.c ****  *   disclaimer.
  21:../Dave/Generated/GLOBAL_SCU_XMC1/global_scu_xmc1.c ****  *
  22:../Dave/Generated/GLOBAL_SCU_XMC1/global_scu_xmc1.c ****  *   Redistributions in binary form must reproduce the above copyright notice, this list of conditi
  23:../Dave/Generated/GLOBAL_SCU_XMC1/global_scu_xmc1.c ****  *   following disclaimer in the documentation and/or other materials provided with the distributio
  24:../Dave/Generated/GLOBAL_SCU_XMC1/global_scu_xmc1.c ****  *
  25:../Dave/Generated/GLOBAL_SCU_XMC1/global_scu_xmc1.c ****  *   Neither the name of the copyright holders nor the names of its contributors may be used to end
  26:../Dave/Generated/GLOBAL_SCU_XMC1/global_scu_xmc1.c ****  *   products derived from this software without specific prior written permission.
  27:../Dave/Generated/GLOBAL_SCU_XMC1/global_scu_xmc1.c ****  *
  28:../Dave/Generated/GLOBAL_SCU_XMC1/global_scu_xmc1.c ****  * THIS SOFTWARE IS PROVIDED BY THE COPYRIGHT HOLDERS AND CONTRIBUTORS "AS IS" AND ANY EXPRESS OR I
  29:../Dave/Generated/GLOBAL_SCU_XMC1/global_scu_xmc1.c ****  * INCLUDING, BUT NOT LIMITED TO, THE IMPLIED WARRANTIES OF MERCHANTABILITY AND FITNESS FOR A PARTI
  30:../Dave/Generated/GLOBAL_SCU_XMC1/global_scu_xmc1.c ****  * DISCLAIMED. IN NO EVENT SHALL THE COPYRIGHT HOLDER OR CONTRIBUTORS BE LIABLE  FOR ANY DIRECT, IN
  31:../Dave/Generated/GLOBAL_SCU_XMC1/global_scu_xmc1.c ****  * SPECIAL, EXEMPLARY, OR CONSEQUENTIAL DAMAGES (INCLUDING, BUT NOT LIMITED TO, PROCUREMENT OF SUBS
  32:../Dave/Generated/GLOBAL_SCU_XMC1/global_scu_xmc1.c ****  * SERVICES; LOSS OF USE, DATA, OR PROFITS; OR BUSINESS INTERRUPTION) HOWEVER CAUSED AND ON ANY THE
  33:../Dave/Generated/GLOBAL_SCU_XMC1/global_scu_xmc1.c ****  * WHETHER IN CONTRACT, STRICT LIABILITY,OR TORT (INCLUDING NEGLIGENCE OR OTHERWISE) ARISING IN ANY
  34:../Dave/Generated/GLOBAL_SCU_XMC1/global_scu_xmc1.c ****  * USE OF THIS SOFTWARE, EVEN IF ADVISED OF THE POSSIBILITY OF SUCH DAMAGE.
  35:../Dave/Generated/GLOBAL_SCU_XMC1/global_scu_xmc1.c ****  *
  36:../Dave/Generated/GLOBAL_SCU_XMC1/global_scu_xmc1.c ****  * To improve the quality of the software, users are encouraged to share modifications, enhancement
  37:../Dave/Generated/GLOBAL_SCU_XMC1/global_scu_xmc1.c ****  * with Infineon Technologies AG (dave@infineon.com).
  38:../Dave/Generated/GLOBAL_SCU_XMC1/global_scu_xmc1.c ****  **************************************************************************************************
  39:../Dave/Generated/GLOBAL_SCU_XMC1/global_scu_xmc1.c ****  *
  40:../Dave/Generated/GLOBAL_SCU_XMC1/global_scu_xmc1.c ****  * Change History
  41:../Dave/Generated/GLOBAL_SCU_XMC1/global_scu_xmc1.c ****  * --------------
  42:../Dave/Generated/GLOBAL_SCU_XMC1/global_scu_xmc1.c ****  *
  43:../Dave/Generated/GLOBAL_SCU_XMC1/global_scu_xmc1.c ****  * 2015-02-16:
  44:../Dave/Generated/GLOBAL_SCU_XMC1/global_scu_xmc1.c ****  *     - Initial version<br>
  45:../Dave/Generated/GLOBAL_SCU_XMC1/global_scu_xmc1.c ****  *
  46:../Dave/Generated/GLOBAL_SCU_XMC1/global_scu_xmc1.c ****  * 2015-06-01:
  47:../Dave/Generated/GLOBAL_SCU_XMC1/global_scu_xmc1.c ****  *     - GLOBAL_SCU_XMC4_CHECK_EVENT static inline API added
  48:../Dave/Generated/GLOBAL_SCU_XMC1/global_scu_xmc1.c ****  *     - GLOBAL_SCU_XMC4_RegisterCallback API signature modified <br>
  49:../Dave/Generated/GLOBAL_SCU_XMC1/global_scu_xmc1.c ****  * 2015-07-30:
  50:../Dave/Generated/GLOBAL_SCU_XMC1/global_scu_xmc1.c ****  *     - Added new IRQ handlers for XMC14
  51:../Dave/Generated/GLOBAL_SCU_XMC1/global_scu_xmc1.c ****  * 2015-10-09:
  52:../Dave/Generated/GLOBAL_SCU_XMC1/global_scu_xmc1.c ****  *     - Added XMC_SCU_SetInterruptControl() before enabling IRQ for XMC14 
  53:../Dave/Generated/GLOBAL_SCU_XMC1/global_scu_xmc1.c ****  * @endcond
  54:../Dave/Generated/GLOBAL_SCU_XMC1/global_scu_xmc1.c ****  *
  55:../Dave/Generated/GLOBAL_SCU_XMC1/global_scu_xmc1.c ****  */
  56:../Dave/Generated/GLOBAL_SCU_XMC1/global_scu_xmc1.c **** /**************************************************************************************************
  57:../Dave/Generated/GLOBAL_SCU_XMC1/global_scu_xmc1.c ****  * HEADER FILES
  58:../Dave/Generated/GLOBAL_SCU_XMC1/global_scu_xmc1.c ****  **************************************************************************************************
  59:../Dave/Generated/GLOBAL_SCU_XMC1/global_scu_xmc1.c **** #include "global_scu_xmc1.h"
  60:../Dave/Generated/GLOBAL_SCU_XMC1/global_scu_xmc1.c **** /**************************************************************************************************
  61:../Dave/Generated/GLOBAL_SCU_XMC1/global_scu_xmc1.c ****  * MACROS
  62:../Dave/Generated/GLOBAL_SCU_XMC1/global_scu_xmc1.c ****  **************************************************************************************************
  63:../Dave/Generated/GLOBAL_SCU_XMC1/global_scu_xmc1.c **** #if defined(XMC_ASSERT_ENABLE)
  64:../Dave/Generated/GLOBAL_SCU_XMC1/global_scu_xmc1.c **** #define GLOBAL_SCU_XMC1_CHECK_EVENT(event) ((event == GLOBAL_SCU_XMC1_EVENT_WDT_WARNING) || \
  65:../Dave/Generated/GLOBAL_SCU_XMC1/global_scu_xmc1.c **** 		                                    (event == GLOBAL_SCU_XMC1_EVENT_RTC_PERIODIC) || \
  66:../Dave/Generated/GLOBAL_SCU_XMC1/global_scu_xmc1.c **** 		                                    (event == GLOBAL_SCU_XMC1_EVENT_RTC_ALARM) || \
  67:../Dave/Generated/GLOBAL_SCU_XMC1/global_scu_xmc1.c **** 											(event == GLOBAL_SCU_XMC1_EVENT_LOSS_EXT_CLOCK) || \
  68:../Dave/Generated/GLOBAL_SCU_XMC1/global_scu_xmc1.c **** 											(event == GLOBAL_SCU_XMC1_EVENT_DCO1_OUT_SYNC))
  69:../Dave/Generated/GLOBAL_SCU_XMC1/global_scu_xmc1.c **** #endif
  70:../Dave/Generated/GLOBAL_SCU_XMC1/global_scu_xmc1.c **** /**************************************************************************************************
  71:../Dave/Generated/GLOBAL_SCU_XMC1/global_scu_xmc1.c ****  * LOCAL DATA
  72:../Dave/Generated/GLOBAL_SCU_XMC1/global_scu_xmc1.c ****  **************************************************************************************************
  73:../Dave/Generated/GLOBAL_SCU_XMC1/global_scu_xmc1.c **** 
  74:../Dave/Generated/GLOBAL_SCU_XMC1/global_scu_xmc1.c **** /**************************************************************************************************
  75:../Dave/Generated/GLOBAL_SCU_XMC1/global_scu_xmc1.c ****  * LOCAL ROUTINES
  76:../Dave/Generated/GLOBAL_SCU_XMC1/global_scu_xmc1.c ****  **************************************************************************************************
  77:../Dave/Generated/GLOBAL_SCU_XMC1/global_scu_xmc1.c **** #if (UC_SERIES != XMC14)
  78:../Dave/Generated/GLOBAL_SCU_XMC1/global_scu_xmc1.c **** void SCU_0_IRQHandler(void);
  79:../Dave/Generated/GLOBAL_SCU_XMC1/global_scu_xmc1.c **** void SCU_1_IRQHandler(void);
  80:../Dave/Generated/GLOBAL_SCU_XMC1/global_scu_xmc1.c **** void SCU_2_IRQHandler(void);
  81:../Dave/Generated/GLOBAL_SCU_XMC1/global_scu_xmc1.c **** #else
  82:../Dave/Generated/GLOBAL_SCU_XMC1/global_scu_xmc1.c **** void IRQ0_Handler(void);
  83:../Dave/Generated/GLOBAL_SCU_XMC1/global_scu_xmc1.c **** void IRQ1_Handler(void);
  84:../Dave/Generated/GLOBAL_SCU_XMC1/global_scu_xmc1.c **** void IRQ2_Handler(void);
  85:../Dave/Generated/GLOBAL_SCU_XMC1/global_scu_xmc1.c **** #endif
  86:../Dave/Generated/GLOBAL_SCU_XMC1/global_scu_xmc1.c **** /**************************************************************************************************
  87:../Dave/Generated/GLOBAL_SCU_XMC1/global_scu_xmc1.c **** * API IMPLEMENTATION
  88:../Dave/Generated/GLOBAL_SCU_XMC1/global_scu_xmc1.c **** ***************************************************************************************************
  89:../Dave/Generated/GLOBAL_SCU_XMC1/global_scu_xmc1.c **** 
  90:../Dave/Generated/GLOBAL_SCU_XMC1/global_scu_xmc1.c **** /*
  91:../Dave/Generated/GLOBAL_SCU_XMC1/global_scu_xmc1.c ****  * API to retrieve the version of the GLOBAL_SCU_XMC1 APP
  92:../Dave/Generated/GLOBAL_SCU_XMC1/global_scu_xmc1.c ****  */
  93:../Dave/Generated/GLOBAL_SCU_XMC1/global_scu_xmc1.c **** DAVE_APP_VERSION_t GLOBAL_SCU_XMC1_GetAppVersion(void)
  94:../Dave/Generated/GLOBAL_SCU_XMC1/global_scu_xmc1.c **** {
  26              	 .loc 1 94 0
  27              	 .cfi_startproc
  28              	.LVL0:
  95:../Dave/Generated/GLOBAL_SCU_XMC1/global_scu_xmc1.c ****   DAVE_APP_VERSION_t version;
  96:../Dave/Generated/GLOBAL_SCU_XMC1/global_scu_xmc1.c **** 
  97:../Dave/Generated/GLOBAL_SCU_XMC1/global_scu_xmc1.c ****   version.major = GLOBAL_SCU_XMC1_MAJOR_VERSION;
  98:../Dave/Generated/GLOBAL_SCU_XMC1/global_scu_xmc1.c ****   version.minor = GLOBAL_SCU_XMC1_MINOR_VERSION;
  99:../Dave/Generated/GLOBAL_SCU_XMC1/global_scu_xmc1.c ****   version.patch = GLOBAL_SCU_XMC1_PATCH_VERSION;
 100:../Dave/Generated/GLOBAL_SCU_XMC1/global_scu_xmc1.c **** 
 101:../Dave/Generated/GLOBAL_SCU_XMC1/global_scu_xmc1.c ****   return (version);
 102:../Dave/Generated/GLOBAL_SCU_XMC1/global_scu_xmc1.c **** }
  29              	 .loc 1 102 0
  30 0000 0148     	 ldr r0,.L2
  94:../Dave/Generated/GLOBAL_SCU_XMC1/global_scu_xmc1.c ****   DAVE_APP_VERSION_t version;
  31              	 .loc 1 94 0
  32 0002 82B0     	 sub sp,sp,#8
  33              	.LCFI0:
  34              	 .cfi_def_cfa_offset 8
  35              	 .loc 1 102 0
  36 0004 02B0     	 add sp,sp,#8
  37              	 
  38 0006 7047     	 bx lr
  39              	.L3:
  40              	 .align 2
  41              	.L2:
  42 0008 04010600 	 .word 393476
  43              	 .cfi_endproc
  44              	.LFE54:
  46              	 .section .text.GLOBAL_SCU_XMC1_Init,"ax",%progbits
  47              	 .align 2
  48              	 .global GLOBAL_SCU_XMC1_Init
  49              	 .code 16
  50              	 .thumb_func
  52              	GLOBAL_SCU_XMC1_Init:
  53              	.LFB55:
 103:../Dave/Generated/GLOBAL_SCU_XMC1/global_scu_xmc1.c **** 
 104:../Dave/Generated/GLOBAL_SCU_XMC1/global_scu_xmc1.c **** /*  Function to configure SCU Interrupts based on  user configuration.
 105:../Dave/Generated/GLOBAL_SCU_XMC1/global_scu_xmc1.c ****  * 
 106:../Dave/Generated/GLOBAL_SCU_XMC1/global_scu_xmc1.c ****  */
 107:../Dave/Generated/GLOBAL_SCU_XMC1/global_scu_xmc1.c **** GLOBAL_SCU_XMC1_STATUS_t GLOBAL_SCU_XMC1_Init(GLOBAL_SCU_XMC1_t*const handle)
 108:../Dave/Generated/GLOBAL_SCU_XMC1/global_scu_xmc1.c **** {
  54              	 .loc 1 108 0
  55              	 .cfi_startproc
  56              	.LVL1:
  57 0000 F0B5     	 push {r4,r5,r6,r7,lr}
  58              	.LCFI1:
  59              	 .cfi_def_cfa_offset 20
  60              	 .cfi_offset 4,-20
  61              	 .cfi_offset 5,-16
  62              	 .cfi_offset 6,-12
  63              	 .cfi_offset 7,-8
  64              	 .cfi_offset 14,-4
  65 0002 4746     	 mov r7,r8
  66 0004 80B4     	 push {r7}
  67              	.LCFI2:
  68              	 .cfi_def_cfa_offset 24
  69              	 .cfi_offset 8,-24
 109:../Dave/Generated/GLOBAL_SCU_XMC1/global_scu_xmc1.c ****   GLOBAL_SCU_XMC1_STATUS_t initstatus;
 110:../Dave/Generated/GLOBAL_SCU_XMC1/global_scu_xmc1.c **** 
 111:../Dave/Generated/GLOBAL_SCU_XMC1/global_scu_xmc1.c ****   XMC_ASSERT("GLOBAL_SCU_XMC1_Init: NULL handle", (handle != NULL));
 112:../Dave/Generated/GLOBAL_SCU_XMC1/global_scu_xmc1.c **** 
 113:../Dave/Generated/GLOBAL_SCU_XMC1/global_scu_xmc1.c ****   if (handle->initialized == false)
  70              	 .loc 1 113 0
  71 0006 0379     	 ldrb r3,[r0,#4]
 114:../Dave/Generated/GLOBAL_SCU_XMC1/global_scu_xmc1.c ****   {
 115:../Dave/Generated/GLOBAL_SCU_XMC1/global_scu_xmc1.c ****     NVIC_SetPriority((IRQn_Type)0U,(uint32_t)handle->config->priority[0]);
 116:../Dave/Generated/GLOBAL_SCU_XMC1/global_scu_xmc1.c ****   	NVIC_SetPriority((IRQn_Type)1U,(uint32_t)handle->config->priority[1]);
 117:../Dave/Generated/GLOBAL_SCU_XMC1/global_scu_xmc1.c ****   	NVIC_SetPriority((IRQn_Type)2U,(uint32_t)handle->config->priority[2]);
 118:../Dave/Generated/GLOBAL_SCU_XMC1/global_scu_xmc1.c **** 
 119:../Dave/Generated/GLOBAL_SCU_XMC1/global_scu_xmc1.c ****   	/* enable the IRQ0 */
 120:../Dave/Generated/GLOBAL_SCU_XMC1/global_scu_xmc1.c ****   	if (handle->config->enable_at_init[0] == true)
 121:../Dave/Generated/GLOBAL_SCU_XMC1/global_scu_xmc1.c ****   	{
 122:../Dave/Generated/GLOBAL_SCU_XMC1/global_scu_xmc1.c **** #if (UC_SERIES == XMC14)
 123:../Dave/Generated/GLOBAL_SCU_XMC1/global_scu_xmc1.c ****   	  XMC_SCU_SetInterruptControl(0, XMC_SCU_IRQCTRL_SCU_SR0_IRQ0);
 124:../Dave/Generated/GLOBAL_SCU_XMC1/global_scu_xmc1.c **** #endif
 125:../Dave/Generated/GLOBAL_SCU_XMC1/global_scu_xmc1.c ****   	  NVIC_EnableIRQ((IRQn_Type)0U);
 126:../Dave/Generated/GLOBAL_SCU_XMC1/global_scu_xmc1.c ****   	}
 127:../Dave/Generated/GLOBAL_SCU_XMC1/global_scu_xmc1.c ****   	/* enable the IRQ1 */
 128:../Dave/Generated/GLOBAL_SCU_XMC1/global_scu_xmc1.c ****   	if (handle->config->enable_at_init[1] == true)
 129:../Dave/Generated/GLOBAL_SCU_XMC1/global_scu_xmc1.c ****   	{
 130:../Dave/Generated/GLOBAL_SCU_XMC1/global_scu_xmc1.c **** #if (UC_SERIES == XMC14)
 131:../Dave/Generated/GLOBAL_SCU_XMC1/global_scu_xmc1.c ****   	  XMC_SCU_SetInterruptControl(1, XMC_SCU_IRQCTRL_SCU_SR1_IRQ1);
 132:../Dave/Generated/GLOBAL_SCU_XMC1/global_scu_xmc1.c **** #endif
 133:../Dave/Generated/GLOBAL_SCU_XMC1/global_scu_xmc1.c ****   	  NVIC_EnableIRQ((IRQn_Type)1U);
 134:../Dave/Generated/GLOBAL_SCU_XMC1/global_scu_xmc1.c ****   	}
 135:../Dave/Generated/GLOBAL_SCU_XMC1/global_scu_xmc1.c ****   	/* enable the IRQ2 */
 136:../Dave/Generated/GLOBAL_SCU_XMC1/global_scu_xmc1.c ****   	if (handle->config->enable_at_init[2] == true)
 137:../Dave/Generated/GLOBAL_SCU_XMC1/global_scu_xmc1.c ****   	{
 138:../Dave/Generated/GLOBAL_SCU_XMC1/global_scu_xmc1.c **** #if (UC_SERIES == XMC14)
 139:../Dave/Generated/GLOBAL_SCU_XMC1/global_scu_xmc1.c ****   	  XMC_SCU_SetInterruptControl(2, XMC_SCU_IRQCTRL_SCU_SR2_IRQ2);
 140:../Dave/Generated/GLOBAL_SCU_XMC1/global_scu_xmc1.c **** #endif
 141:../Dave/Generated/GLOBAL_SCU_XMC1/global_scu_xmc1.c ****       NVIC_EnableIRQ((IRQn_Type)2U);
 142:../Dave/Generated/GLOBAL_SCU_XMC1/global_scu_xmc1.c ****   	}
 143:../Dave/Generated/GLOBAL_SCU_XMC1/global_scu_xmc1.c **** 	handle->initialized = true;
 144:../Dave/Generated/GLOBAL_SCU_XMC1/global_scu_xmc1.c ****     initstatus = GLOBAL_SCU_XMC1_STATUS_SUCCESS;
 145:../Dave/Generated/GLOBAL_SCU_XMC1/global_scu_xmc1.c ****   }
 146:../Dave/Generated/GLOBAL_SCU_XMC1/global_scu_xmc1.c ****   else
 147:../Dave/Generated/GLOBAL_SCU_XMC1/global_scu_xmc1.c ****   {
 148:../Dave/Generated/GLOBAL_SCU_XMC1/global_scu_xmc1.c ****     initstatus = GLOBAL_SCU_XMC1_STATUS_FAILURE;
  72              	 .loc 1 148 0
  73 0008 0126     	 mov r6,#1
 113:../Dave/Generated/GLOBAL_SCU_XMC1/global_scu_xmc1.c ****   {
  74              	 .loc 1 113 0
  75 000a 002B     	 cmp r3,#0
  76 000c 03D0     	 beq .L20
  77              	.L5:
  78              	.LVL2:
 149:../Dave/Generated/GLOBAL_SCU_XMC1/global_scu_xmc1.c ****   }
 150:../Dave/Generated/GLOBAL_SCU_XMC1/global_scu_xmc1.c ****   	
 151:../Dave/Generated/GLOBAL_SCU_XMC1/global_scu_xmc1.c ****   return (initstatus);
 152:../Dave/Generated/GLOBAL_SCU_XMC1/global_scu_xmc1.c **** }
  79              	 .loc 1 152 0
  80 000e 301C     	 mov r0,r6
  81              	.LVL3:
  82              	 
  83              	.LVL4:
  84 0010 04BC     	 pop {r2}
  85 0012 9046     	 mov r8,r2
  86 0014 F0BD     	 pop {r4,r5,r6,r7,pc}
  87              	.LVL5:
  88              	.L20:
  89              	.LBB22:
  90              	.LBB23:
  91              	 .file 2 "C:/Users/\261\350\260\346\271\316/Desktop/IFX_S2GL-HW-SW_V1.1.3/Firmware_Software/DAVE project/S2GL_Doppler/Libraries/CMSIS/Include/core_cm0.h"
   1:C:/Users/±è°æ¹Î/Desktop/IFX_S2GL-HW-SW_V1.1.3/Firmware_Software/DAVE project/S2GL_Doppler/Libraries/CMSIS/Include\core_cm0.h **** /**************************************************************************//**
   2:C:/Users/±è°æ¹Î/Desktop/IFX_S2GL-HW-SW_V1.1.3/Firmware_Software/DAVE project/S2GL_Doppler/Libraries/CMSIS/Include\core_cm0.h ****  * @file     core_cm0.h
   3:C:/Users/±è°æ¹Î/Desktop/IFX_S2GL-HW-SW_V1.1.3/Firmware_Software/DAVE project/S2GL_Doppler/Libraries/CMSIS/Include\core_cm0.h ****  * @brief    CMSIS Cortex-M0 Core Peripheral Access Layer Header File
   4:C:/Users/±è°æ¹Î/Desktop/IFX_S2GL-HW-SW_V1.1.3/Firmware_Software/DAVE project/S2GL_Doppler/Libraries/CMSIS/Include\core_cm0.h ****  * @version  V4.30
   5:C:/Users/±è°æ¹Î/Desktop/IFX_S2GL-HW-SW_V1.1.3/Firmware_Software/DAVE project/S2GL_Doppler/Libraries/CMSIS/Include\core_cm0.h ****  * @date     20. October 2015
   6:C:/Users/±è°æ¹Î/Desktop/IFX_S2GL-HW-SW_V1.1.3/Firmware_Software/DAVE project/S2GL_Doppler/Libraries/CMSIS/Include\core_cm0.h ****  ******************************************************************************/
   7:C:/Users/±è°æ¹Î/Desktop/IFX_S2GL-HW-SW_V1.1.3/Firmware_Software/DAVE project/S2GL_Doppler/Libraries/CMSIS/Include\core_cm0.h **** /* Copyright (c) 2009 - 2015 ARM LIMITED
   8:C:/Users/±è°æ¹Î/Desktop/IFX_S2GL-HW-SW_V1.1.3/Firmware_Software/DAVE project/S2GL_Doppler/Libraries/CMSIS/Include\core_cm0.h **** 
   9:C:/Users/±è°æ¹Î/Desktop/IFX_S2GL-HW-SW_V1.1.3/Firmware_Software/DAVE project/S2GL_Doppler/Libraries/CMSIS/Include\core_cm0.h ****    All rights reserved.
  10:C:/Users/±è°æ¹Î/Desktop/IFX_S2GL-HW-SW_V1.1.3/Firmware_Software/DAVE project/S2GL_Doppler/Libraries/CMSIS/Include\core_cm0.h ****    Redistribution and use in source and binary forms, with or without
  11:C:/Users/±è°æ¹Î/Desktop/IFX_S2GL-HW-SW_V1.1.3/Firmware_Software/DAVE project/S2GL_Doppler/Libraries/CMSIS/Include\core_cm0.h ****    modification, are permitted provided that the following conditions are met:
  12:C:/Users/±è°æ¹Î/Desktop/IFX_S2GL-HW-SW_V1.1.3/Firmware_Software/DAVE project/S2GL_Doppler/Libraries/CMSIS/Include\core_cm0.h ****    - Redistributions of source code must retain the above copyright
  13:C:/Users/±è°æ¹Î/Desktop/IFX_S2GL-HW-SW_V1.1.3/Firmware_Software/DAVE project/S2GL_Doppler/Libraries/CMSIS/Include\core_cm0.h ****      notice, this list of conditions and the following disclaimer.
  14:C:/Users/±è°æ¹Î/Desktop/IFX_S2GL-HW-SW_V1.1.3/Firmware_Software/DAVE project/S2GL_Doppler/Libraries/CMSIS/Include\core_cm0.h ****    - Redistributions in binary form must reproduce the above copyright
  15:C:/Users/±è°æ¹Î/Desktop/IFX_S2GL-HW-SW_V1.1.3/Firmware_Software/DAVE project/S2GL_Doppler/Libraries/CMSIS/Include\core_cm0.h ****      notice, this list of conditions and the following disclaimer in the
  16:C:/Users/±è°æ¹Î/Desktop/IFX_S2GL-HW-SW_V1.1.3/Firmware_Software/DAVE project/S2GL_Doppler/Libraries/CMSIS/Include\core_cm0.h ****      documentation and/or other materials provided with the distribution.
  17:C:/Users/±è°æ¹Î/Desktop/IFX_S2GL-HW-SW_V1.1.3/Firmware_Software/DAVE project/S2GL_Doppler/Libraries/CMSIS/Include\core_cm0.h ****    - Neither the name of ARM nor the names of its contributors may be used
  18:C:/Users/±è°æ¹Î/Desktop/IFX_S2GL-HW-SW_V1.1.3/Firmware_Software/DAVE project/S2GL_Doppler/Libraries/CMSIS/Include\core_cm0.h ****      to endorse or promote products derived from this software without
  19:C:/Users/±è°æ¹Î/Desktop/IFX_S2GL-HW-SW_V1.1.3/Firmware_Software/DAVE project/S2GL_Doppler/Libraries/CMSIS/Include\core_cm0.h ****      specific prior written permission.
  20:C:/Users/±è°æ¹Î/Desktop/IFX_S2GL-HW-SW_V1.1.3/Firmware_Software/DAVE project/S2GL_Doppler/Libraries/CMSIS/Include\core_cm0.h ****    *
  21:C:/Users/±è°æ¹Î/Desktop/IFX_S2GL-HW-SW_V1.1.3/Firmware_Software/DAVE project/S2GL_Doppler/Libraries/CMSIS/Include\core_cm0.h ****    THIS SOFTWARE IS PROVIDED BY THE COPYRIGHT HOLDERS AND CONTRIBUTORS "AS IS"
  22:C:/Users/±è°æ¹Î/Desktop/IFX_S2GL-HW-SW_V1.1.3/Firmware_Software/DAVE project/S2GL_Doppler/Libraries/CMSIS/Include\core_cm0.h ****    AND ANY EXPRESS OR IMPLIED WARRANTIES, INCLUDING, BUT NOT LIMITED TO, THE
  23:C:/Users/±è°æ¹Î/Desktop/IFX_S2GL-HW-SW_V1.1.3/Firmware_Software/DAVE project/S2GL_Doppler/Libraries/CMSIS/Include\core_cm0.h ****    IMPLIED WARRANTIES OF MERCHANTABILITY AND FITNESS FOR A PARTICULAR PURPOSE
  24:C:/Users/±è°æ¹Î/Desktop/IFX_S2GL-HW-SW_V1.1.3/Firmware_Software/DAVE project/S2GL_Doppler/Libraries/CMSIS/Include\core_cm0.h ****    ARE DISCLAIMED. IN NO EVENT SHALL COPYRIGHT HOLDERS AND CONTRIBUTORS BE
  25:C:/Users/±è°æ¹Î/Desktop/IFX_S2GL-HW-SW_V1.1.3/Firmware_Software/DAVE project/S2GL_Doppler/Libraries/CMSIS/Include\core_cm0.h ****    LIABLE FOR ANY DIRECT, INDIRECT, INCIDENTAL, SPECIAL, EXEMPLARY, OR
  26:C:/Users/±è°æ¹Î/Desktop/IFX_S2GL-HW-SW_V1.1.3/Firmware_Software/DAVE project/S2GL_Doppler/Libraries/CMSIS/Include\core_cm0.h ****    CONSEQUENTIAL DAMAGES (INCLUDING, BUT NOT LIMITED TO, PROCUREMENT OF
  27:C:/Users/±è°æ¹Î/Desktop/IFX_S2GL-HW-SW_V1.1.3/Firmware_Software/DAVE project/S2GL_Doppler/Libraries/CMSIS/Include\core_cm0.h ****    SUBSTITUTE GOODS OR SERVICES; LOSS OF USE, DATA, OR PROFITS; OR BUSINESS
  28:C:/Users/±è°æ¹Î/Desktop/IFX_S2GL-HW-SW_V1.1.3/Firmware_Software/DAVE project/S2GL_Doppler/Libraries/CMSIS/Include\core_cm0.h ****    INTERRUPTION) HOWEVER CAUSED AND ON ANY THEORY OF LIABILITY, WHETHER IN
  29:C:/Users/±è°æ¹Î/Desktop/IFX_S2GL-HW-SW_V1.1.3/Firmware_Software/DAVE project/S2GL_Doppler/Libraries/CMSIS/Include\core_cm0.h ****    CONTRACT, STRICT LIABILITY, OR TORT (INCLUDING NEGLIGENCE OR OTHERWISE)
  30:C:/Users/±è°æ¹Î/Desktop/IFX_S2GL-HW-SW_V1.1.3/Firmware_Software/DAVE project/S2GL_Doppler/Libraries/CMSIS/Include\core_cm0.h ****    ARISING IN ANY WAY OUT OF THE USE OF THIS SOFTWARE, EVEN IF ADVISED OF THE
  31:C:/Users/±è°æ¹Î/Desktop/IFX_S2GL-HW-SW_V1.1.3/Firmware_Software/DAVE project/S2GL_Doppler/Libraries/CMSIS/Include\core_cm0.h ****    POSSIBILITY OF SUCH DAMAGE.
  32:C:/Users/±è°æ¹Î/Desktop/IFX_S2GL-HW-SW_V1.1.3/Firmware_Software/DAVE project/S2GL_Doppler/Libraries/CMSIS/Include\core_cm0.h ****    ---------------------------------------------------------------------------*/
  33:C:/Users/±è°æ¹Î/Desktop/IFX_S2GL-HW-SW_V1.1.3/Firmware_Software/DAVE project/S2GL_Doppler/Libraries/CMSIS/Include\core_cm0.h **** 
  34:C:/Users/±è°æ¹Î/Desktop/IFX_S2GL-HW-SW_V1.1.3/Firmware_Software/DAVE project/S2GL_Doppler/Libraries/CMSIS/Include\core_cm0.h **** 
  35:C:/Users/±è°æ¹Î/Desktop/IFX_S2GL-HW-SW_V1.1.3/Firmware_Software/DAVE project/S2GL_Doppler/Libraries/CMSIS/Include\core_cm0.h **** #if   defined ( __ICCARM__ )
  36:C:/Users/±è°æ¹Î/Desktop/IFX_S2GL-HW-SW_V1.1.3/Firmware_Software/DAVE project/S2GL_Doppler/Libraries/CMSIS/Include\core_cm0.h ****  #pragma system_include         /* treat file as system include file for MISRA check */
  37:C:/Users/±è°æ¹Î/Desktop/IFX_S2GL-HW-SW_V1.1.3/Firmware_Software/DAVE project/S2GL_Doppler/Libraries/CMSIS/Include\core_cm0.h **** #elif defined(__ARMCC_VERSION) && (__ARMCC_VERSION >= 6010050)
  38:C:/Users/±è°æ¹Î/Desktop/IFX_S2GL-HW-SW_V1.1.3/Firmware_Software/DAVE project/S2GL_Doppler/Libraries/CMSIS/Include\core_cm0.h ****   #pragma clang system_header   /* treat file as system include file */
  39:C:/Users/±è°æ¹Î/Desktop/IFX_S2GL-HW-SW_V1.1.3/Firmware_Software/DAVE project/S2GL_Doppler/Libraries/CMSIS/Include\core_cm0.h **** #endif
  40:C:/Users/±è°æ¹Î/Desktop/IFX_S2GL-HW-SW_V1.1.3/Firmware_Software/DAVE project/S2GL_Doppler/Libraries/CMSIS/Include\core_cm0.h **** 
  41:C:/Users/±è°æ¹Î/Desktop/IFX_S2GL-HW-SW_V1.1.3/Firmware_Software/DAVE project/S2GL_Doppler/Libraries/CMSIS/Include\core_cm0.h **** #ifndef __CORE_CM0_H_GENERIC
  42:C:/Users/±è°æ¹Î/Desktop/IFX_S2GL-HW-SW_V1.1.3/Firmware_Software/DAVE project/S2GL_Doppler/Libraries/CMSIS/Include\core_cm0.h **** #define __CORE_CM0_H_GENERIC
  43:C:/Users/±è°æ¹Î/Desktop/IFX_S2GL-HW-SW_V1.1.3/Firmware_Software/DAVE project/S2GL_Doppler/Libraries/CMSIS/Include\core_cm0.h **** 
  44:C:/Users/±è°æ¹Î/Desktop/IFX_S2GL-HW-SW_V1.1.3/Firmware_Software/DAVE project/S2GL_Doppler/Libraries/CMSIS/Include\core_cm0.h **** #include <stdint.h>
  45:C:/Users/±è°æ¹Î/Desktop/IFX_S2GL-HW-SW_V1.1.3/Firmware_Software/DAVE project/S2GL_Doppler/Libraries/CMSIS/Include\core_cm0.h **** 
  46:C:/Users/±è°æ¹Î/Desktop/IFX_S2GL-HW-SW_V1.1.3/Firmware_Software/DAVE project/S2GL_Doppler/Libraries/CMSIS/Include\core_cm0.h **** #ifdef __cplusplus
  47:C:/Users/±è°æ¹Î/Desktop/IFX_S2GL-HW-SW_V1.1.3/Firmware_Software/DAVE project/S2GL_Doppler/Libraries/CMSIS/Include\core_cm0.h ****  extern "C" {
  48:C:/Users/±è°æ¹Î/Desktop/IFX_S2GL-HW-SW_V1.1.3/Firmware_Software/DAVE project/S2GL_Doppler/Libraries/CMSIS/Include\core_cm0.h **** #endif
  49:C:/Users/±è°æ¹Î/Desktop/IFX_S2GL-HW-SW_V1.1.3/Firmware_Software/DAVE project/S2GL_Doppler/Libraries/CMSIS/Include\core_cm0.h **** 
  50:C:/Users/±è°æ¹Î/Desktop/IFX_S2GL-HW-SW_V1.1.3/Firmware_Software/DAVE project/S2GL_Doppler/Libraries/CMSIS/Include\core_cm0.h **** /**
  51:C:/Users/±è°æ¹Î/Desktop/IFX_S2GL-HW-SW_V1.1.3/Firmware_Software/DAVE project/S2GL_Doppler/Libraries/CMSIS/Include\core_cm0.h ****   \page CMSIS_MISRA_Exceptions  MISRA-C:2004 Compliance Exceptions
  52:C:/Users/±è°æ¹Î/Desktop/IFX_S2GL-HW-SW_V1.1.3/Firmware_Software/DAVE project/S2GL_Doppler/Libraries/CMSIS/Include\core_cm0.h ****   CMSIS violates the following MISRA-C:2004 rules:
  53:C:/Users/±è°æ¹Î/Desktop/IFX_S2GL-HW-SW_V1.1.3/Firmware_Software/DAVE project/S2GL_Doppler/Libraries/CMSIS/Include\core_cm0.h **** 
  54:C:/Users/±è°æ¹Î/Desktop/IFX_S2GL-HW-SW_V1.1.3/Firmware_Software/DAVE project/S2GL_Doppler/Libraries/CMSIS/Include\core_cm0.h ****    \li Required Rule 8.5, object/function definition in header file.<br>
  55:C:/Users/±è°æ¹Î/Desktop/IFX_S2GL-HW-SW_V1.1.3/Firmware_Software/DAVE project/S2GL_Doppler/Libraries/CMSIS/Include\core_cm0.h ****      Function definitions in header files are used to allow 'inlining'.
  56:C:/Users/±è°æ¹Î/Desktop/IFX_S2GL-HW-SW_V1.1.3/Firmware_Software/DAVE project/S2GL_Doppler/Libraries/CMSIS/Include\core_cm0.h **** 
  57:C:/Users/±è°æ¹Î/Desktop/IFX_S2GL-HW-SW_V1.1.3/Firmware_Software/DAVE project/S2GL_Doppler/Libraries/CMSIS/Include\core_cm0.h ****    \li Required Rule 18.4, declaration of union type or object of union type: '{...}'.<br>
  58:C:/Users/±è°æ¹Î/Desktop/IFX_S2GL-HW-SW_V1.1.3/Firmware_Software/DAVE project/S2GL_Doppler/Libraries/CMSIS/Include\core_cm0.h ****      Unions are used for effective representation of core registers.
  59:C:/Users/±è°æ¹Î/Desktop/IFX_S2GL-HW-SW_V1.1.3/Firmware_Software/DAVE project/S2GL_Doppler/Libraries/CMSIS/Include\core_cm0.h **** 
  60:C:/Users/±è°æ¹Î/Desktop/IFX_S2GL-HW-SW_V1.1.3/Firmware_Software/DAVE project/S2GL_Doppler/Libraries/CMSIS/Include\core_cm0.h ****    \li Advisory Rule 19.7, Function-like macro defined.<br>
  61:C:/Users/±è°æ¹Î/Desktop/IFX_S2GL-HW-SW_V1.1.3/Firmware_Software/DAVE project/S2GL_Doppler/Libraries/CMSIS/Include\core_cm0.h ****      Function-like macros are used to allow more efficient code.
  62:C:/Users/±è°æ¹Î/Desktop/IFX_S2GL-HW-SW_V1.1.3/Firmware_Software/DAVE project/S2GL_Doppler/Libraries/CMSIS/Include\core_cm0.h ****  */
  63:C:/Users/±è°æ¹Î/Desktop/IFX_S2GL-HW-SW_V1.1.3/Firmware_Software/DAVE project/S2GL_Doppler/Libraries/CMSIS/Include\core_cm0.h **** 
  64:C:/Users/±è°æ¹Î/Desktop/IFX_S2GL-HW-SW_V1.1.3/Firmware_Software/DAVE project/S2GL_Doppler/Libraries/CMSIS/Include\core_cm0.h **** 
  65:C:/Users/±è°æ¹Î/Desktop/IFX_S2GL-HW-SW_V1.1.3/Firmware_Software/DAVE project/S2GL_Doppler/Libraries/CMSIS/Include\core_cm0.h **** /*******************************************************************************
  66:C:/Users/±è°æ¹Î/Desktop/IFX_S2GL-HW-SW_V1.1.3/Firmware_Software/DAVE project/S2GL_Doppler/Libraries/CMSIS/Include\core_cm0.h ****  *                 CMSIS definitions
  67:C:/Users/±è°æ¹Î/Desktop/IFX_S2GL-HW-SW_V1.1.3/Firmware_Software/DAVE project/S2GL_Doppler/Libraries/CMSIS/Include\core_cm0.h ****  ******************************************************************************/
  68:C:/Users/±è°æ¹Î/Desktop/IFX_S2GL-HW-SW_V1.1.3/Firmware_Software/DAVE project/S2GL_Doppler/Libraries/CMSIS/Include\core_cm0.h **** /**
  69:C:/Users/±è°æ¹Î/Desktop/IFX_S2GL-HW-SW_V1.1.3/Firmware_Software/DAVE project/S2GL_Doppler/Libraries/CMSIS/Include\core_cm0.h ****   \ingroup Cortex_M0
  70:C:/Users/±è°æ¹Î/Desktop/IFX_S2GL-HW-SW_V1.1.3/Firmware_Software/DAVE project/S2GL_Doppler/Libraries/CMSIS/Include\core_cm0.h ****   @{
  71:C:/Users/±è°æ¹Î/Desktop/IFX_S2GL-HW-SW_V1.1.3/Firmware_Software/DAVE project/S2GL_Doppler/Libraries/CMSIS/Include\core_cm0.h ****  */
  72:C:/Users/±è°æ¹Î/Desktop/IFX_S2GL-HW-SW_V1.1.3/Firmware_Software/DAVE project/S2GL_Doppler/Libraries/CMSIS/Include\core_cm0.h **** 
  73:C:/Users/±è°æ¹Î/Desktop/IFX_S2GL-HW-SW_V1.1.3/Firmware_Software/DAVE project/S2GL_Doppler/Libraries/CMSIS/Include\core_cm0.h **** /*  CMSIS CM0 definitions */
  74:C:/Users/±è°æ¹Î/Desktop/IFX_S2GL-HW-SW_V1.1.3/Firmware_Software/DAVE project/S2GL_Doppler/Libraries/CMSIS/Include\core_cm0.h **** #define __CM0_CMSIS_VERSION_MAIN  (0x04U)                                      /*!< [31:16] CMSIS H
  75:C:/Users/±è°æ¹Î/Desktop/IFX_S2GL-HW-SW_V1.1.3/Firmware_Software/DAVE project/S2GL_Doppler/Libraries/CMSIS/Include\core_cm0.h **** #define __CM0_CMSIS_VERSION_SUB   (0x1EU)                                      /*!< [15:0]  CMSIS H
  76:C:/Users/±è°æ¹Î/Desktop/IFX_S2GL-HW-SW_V1.1.3/Firmware_Software/DAVE project/S2GL_Doppler/Libraries/CMSIS/Include\core_cm0.h **** #define __CM0_CMSIS_VERSION       ((__CM0_CMSIS_VERSION_MAIN << 16U) | \
  77:C:/Users/±è°æ¹Î/Desktop/IFX_S2GL-HW-SW_V1.1.3/Firmware_Software/DAVE project/S2GL_Doppler/Libraries/CMSIS/Include\core_cm0.h ****                                     __CM0_CMSIS_VERSION_SUB           )        /*!< CMSIS HAL versi
  78:C:/Users/±è°æ¹Î/Desktop/IFX_S2GL-HW-SW_V1.1.3/Firmware_Software/DAVE project/S2GL_Doppler/Libraries/CMSIS/Include\core_cm0.h **** 
  79:C:/Users/±è°æ¹Î/Desktop/IFX_S2GL-HW-SW_V1.1.3/Firmware_Software/DAVE project/S2GL_Doppler/Libraries/CMSIS/Include\core_cm0.h **** #define __CORTEX_M                (0x00U)                                      /*!< Cortex-M Core *
  80:C:/Users/±è°æ¹Î/Desktop/IFX_S2GL-HW-SW_V1.1.3/Firmware_Software/DAVE project/S2GL_Doppler/Libraries/CMSIS/Include\core_cm0.h **** 
  81:C:/Users/±è°æ¹Î/Desktop/IFX_S2GL-HW-SW_V1.1.3/Firmware_Software/DAVE project/S2GL_Doppler/Libraries/CMSIS/Include\core_cm0.h **** 
  82:C:/Users/±è°æ¹Î/Desktop/IFX_S2GL-HW-SW_V1.1.3/Firmware_Software/DAVE project/S2GL_Doppler/Libraries/CMSIS/Include\core_cm0.h **** #if   defined ( __CC_ARM )
  83:C:/Users/±è°æ¹Î/Desktop/IFX_S2GL-HW-SW_V1.1.3/Firmware_Software/DAVE project/S2GL_Doppler/Libraries/CMSIS/Include\core_cm0.h ****   #define __ASM            __asm                                      /*!< asm keyword for ARM Comp
  84:C:/Users/±è°æ¹Î/Desktop/IFX_S2GL-HW-SW_V1.1.3/Firmware_Software/DAVE project/S2GL_Doppler/Libraries/CMSIS/Include\core_cm0.h ****   #define __INLINE         __inline                                   /*!< inline keyword for ARM C
  85:C:/Users/±è°æ¹Î/Desktop/IFX_S2GL-HW-SW_V1.1.3/Firmware_Software/DAVE project/S2GL_Doppler/Libraries/CMSIS/Include\core_cm0.h ****   #define __STATIC_INLINE  static __inline
  86:C:/Users/±è°æ¹Î/Desktop/IFX_S2GL-HW-SW_V1.1.3/Firmware_Software/DAVE project/S2GL_Doppler/Libraries/CMSIS/Include\core_cm0.h **** 
  87:C:/Users/±è°æ¹Î/Desktop/IFX_S2GL-HW-SW_V1.1.3/Firmware_Software/DAVE project/S2GL_Doppler/Libraries/CMSIS/Include\core_cm0.h **** #elif defined(__ARMCC_VERSION) && (__ARMCC_VERSION >= 6010050)
  88:C:/Users/±è°æ¹Î/Desktop/IFX_S2GL-HW-SW_V1.1.3/Firmware_Software/DAVE project/S2GL_Doppler/Libraries/CMSIS/Include\core_cm0.h ****   #define __ASM            __asm                                      /*!< asm keyword for ARM Comp
  89:C:/Users/±è°æ¹Î/Desktop/IFX_S2GL-HW-SW_V1.1.3/Firmware_Software/DAVE project/S2GL_Doppler/Libraries/CMSIS/Include\core_cm0.h ****   #define __INLINE         __inline                                   /*!< inline keyword for ARM C
  90:C:/Users/±è°æ¹Î/Desktop/IFX_S2GL-HW-SW_V1.1.3/Firmware_Software/DAVE project/S2GL_Doppler/Libraries/CMSIS/Include\core_cm0.h ****   #define __STATIC_INLINE  static __inline
  91:C:/Users/±è°æ¹Î/Desktop/IFX_S2GL-HW-SW_V1.1.3/Firmware_Software/DAVE project/S2GL_Doppler/Libraries/CMSIS/Include\core_cm0.h **** 
  92:C:/Users/±è°æ¹Î/Desktop/IFX_S2GL-HW-SW_V1.1.3/Firmware_Software/DAVE project/S2GL_Doppler/Libraries/CMSIS/Include\core_cm0.h **** #elif defined ( __GNUC__ )
  93:C:/Users/±è°æ¹Î/Desktop/IFX_S2GL-HW-SW_V1.1.3/Firmware_Software/DAVE project/S2GL_Doppler/Libraries/CMSIS/Include\core_cm0.h ****   #define __ASM            __asm                                      /*!< asm keyword for GNU Comp
  94:C:/Users/±è°æ¹Î/Desktop/IFX_S2GL-HW-SW_V1.1.3/Firmware_Software/DAVE project/S2GL_Doppler/Libraries/CMSIS/Include\core_cm0.h ****   #define __INLINE         inline                                     /*!< inline keyword for GNU C
  95:C:/Users/±è°æ¹Î/Desktop/IFX_S2GL-HW-SW_V1.1.3/Firmware_Software/DAVE project/S2GL_Doppler/Libraries/CMSIS/Include\core_cm0.h ****   #define __STATIC_INLINE  static inline
  96:C:/Users/±è°æ¹Î/Desktop/IFX_S2GL-HW-SW_V1.1.3/Firmware_Software/DAVE project/S2GL_Doppler/Libraries/CMSIS/Include\core_cm0.h **** 
  97:C:/Users/±è°æ¹Î/Desktop/IFX_S2GL-HW-SW_V1.1.3/Firmware_Software/DAVE project/S2GL_Doppler/Libraries/CMSIS/Include\core_cm0.h **** #elif defined ( __ICCARM__ )
  98:C:/Users/±è°æ¹Î/Desktop/IFX_S2GL-HW-SW_V1.1.3/Firmware_Software/DAVE project/S2GL_Doppler/Libraries/CMSIS/Include\core_cm0.h ****   #define __ASM            __asm                                      /*!< asm keyword for IAR Comp
  99:C:/Users/±è°æ¹Î/Desktop/IFX_S2GL-HW-SW_V1.1.3/Firmware_Software/DAVE project/S2GL_Doppler/Libraries/CMSIS/Include\core_cm0.h ****   #define __INLINE         inline                                     /*!< inline keyword for IAR C
 100:C:/Users/±è°æ¹Î/Desktop/IFX_S2GL-HW-SW_V1.1.3/Firmware_Software/DAVE project/S2GL_Doppler/Libraries/CMSIS/Include\core_cm0.h ****   #define __STATIC_INLINE  static inline
 101:C:/Users/±è°æ¹Î/Desktop/IFX_S2GL-HW-SW_V1.1.3/Firmware_Software/DAVE project/S2GL_Doppler/Libraries/CMSIS/Include\core_cm0.h **** 
 102:C:/Users/±è°æ¹Î/Desktop/IFX_S2GL-HW-SW_V1.1.3/Firmware_Software/DAVE project/S2GL_Doppler/Libraries/CMSIS/Include\core_cm0.h **** #elif defined ( __TMS470__ )
 103:C:/Users/±è°æ¹Î/Desktop/IFX_S2GL-HW-SW_V1.1.3/Firmware_Software/DAVE project/S2GL_Doppler/Libraries/CMSIS/Include\core_cm0.h ****   #define __ASM            __asm                                      /*!< asm keyword for TI CCS C
 104:C:/Users/±è°æ¹Î/Desktop/IFX_S2GL-HW-SW_V1.1.3/Firmware_Software/DAVE project/S2GL_Doppler/Libraries/CMSIS/Include\core_cm0.h ****   #define __STATIC_INLINE  static inline
 105:C:/Users/±è°æ¹Î/Desktop/IFX_S2GL-HW-SW_V1.1.3/Firmware_Software/DAVE project/S2GL_Doppler/Libraries/CMSIS/Include\core_cm0.h **** 
 106:C:/Users/±è°æ¹Î/Desktop/IFX_S2GL-HW-SW_V1.1.3/Firmware_Software/DAVE project/S2GL_Doppler/Libraries/CMSIS/Include\core_cm0.h **** #elif defined ( __TASKING__ )
 107:C:/Users/±è°æ¹Î/Desktop/IFX_S2GL-HW-SW_V1.1.3/Firmware_Software/DAVE project/S2GL_Doppler/Libraries/CMSIS/Include\core_cm0.h ****   #define __ASM            __asm                                      /*!< asm keyword for TASKING 
 108:C:/Users/±è°æ¹Î/Desktop/IFX_S2GL-HW-SW_V1.1.3/Firmware_Software/DAVE project/S2GL_Doppler/Libraries/CMSIS/Include\core_cm0.h ****   #define __INLINE         inline                                     /*!< inline keyword for TASKI
 109:C:/Users/±è°æ¹Î/Desktop/IFX_S2GL-HW-SW_V1.1.3/Firmware_Software/DAVE project/S2GL_Doppler/Libraries/CMSIS/Include\core_cm0.h ****   #define __STATIC_INLINE  static inline
 110:C:/Users/±è°æ¹Î/Desktop/IFX_S2GL-HW-SW_V1.1.3/Firmware_Software/DAVE project/S2GL_Doppler/Libraries/CMSIS/Include\core_cm0.h **** 
 111:C:/Users/±è°æ¹Î/Desktop/IFX_S2GL-HW-SW_V1.1.3/Firmware_Software/DAVE project/S2GL_Doppler/Libraries/CMSIS/Include\core_cm0.h **** #elif defined ( __CSMC__ )
 112:C:/Users/±è°æ¹Î/Desktop/IFX_S2GL-HW-SW_V1.1.3/Firmware_Software/DAVE project/S2GL_Doppler/Libraries/CMSIS/Include\core_cm0.h ****   #define __packed
 113:C:/Users/±è°æ¹Î/Desktop/IFX_S2GL-HW-SW_V1.1.3/Firmware_Software/DAVE project/S2GL_Doppler/Libraries/CMSIS/Include\core_cm0.h ****   #define __ASM            _asm                                      /*!< asm keyword for COSMIC Co
 114:C:/Users/±è°æ¹Î/Desktop/IFX_S2GL-HW-SW_V1.1.3/Firmware_Software/DAVE project/S2GL_Doppler/Libraries/CMSIS/Include\core_cm0.h ****   #define __INLINE         inline                                    /*!< inline keyword for COSMIC
 115:C:/Users/±è°æ¹Î/Desktop/IFX_S2GL-HW-SW_V1.1.3/Firmware_Software/DAVE project/S2GL_Doppler/Libraries/CMSIS/Include\core_cm0.h ****   #define __STATIC_INLINE  static inline
 116:C:/Users/±è°æ¹Î/Desktop/IFX_S2GL-HW-SW_V1.1.3/Firmware_Software/DAVE project/S2GL_Doppler/Libraries/CMSIS/Include\core_cm0.h **** 
 117:C:/Users/±è°æ¹Î/Desktop/IFX_S2GL-HW-SW_V1.1.3/Firmware_Software/DAVE project/S2GL_Doppler/Libraries/CMSIS/Include\core_cm0.h **** #else
 118:C:/Users/±è°æ¹Î/Desktop/IFX_S2GL-HW-SW_V1.1.3/Firmware_Software/DAVE project/S2GL_Doppler/Libraries/CMSIS/Include\core_cm0.h ****   #error Unknown compiler
 119:C:/Users/±è°æ¹Î/Desktop/IFX_S2GL-HW-SW_V1.1.3/Firmware_Software/DAVE project/S2GL_Doppler/Libraries/CMSIS/Include\core_cm0.h **** #endif
 120:C:/Users/±è°æ¹Î/Desktop/IFX_S2GL-HW-SW_V1.1.3/Firmware_Software/DAVE project/S2GL_Doppler/Libraries/CMSIS/Include\core_cm0.h **** 
 121:C:/Users/±è°æ¹Î/Desktop/IFX_S2GL-HW-SW_V1.1.3/Firmware_Software/DAVE project/S2GL_Doppler/Libraries/CMSIS/Include\core_cm0.h **** /** __FPU_USED indicates whether an FPU is used or not.
 122:C:/Users/±è°æ¹Î/Desktop/IFX_S2GL-HW-SW_V1.1.3/Firmware_Software/DAVE project/S2GL_Doppler/Libraries/CMSIS/Include\core_cm0.h ****     This core does not support an FPU at all
 123:C:/Users/±è°æ¹Î/Desktop/IFX_S2GL-HW-SW_V1.1.3/Firmware_Software/DAVE project/S2GL_Doppler/Libraries/CMSIS/Include\core_cm0.h **** */
 124:C:/Users/±è°æ¹Î/Desktop/IFX_S2GL-HW-SW_V1.1.3/Firmware_Software/DAVE project/S2GL_Doppler/Libraries/CMSIS/Include\core_cm0.h **** #define __FPU_USED       0U
 125:C:/Users/±è°æ¹Î/Desktop/IFX_S2GL-HW-SW_V1.1.3/Firmware_Software/DAVE project/S2GL_Doppler/Libraries/CMSIS/Include\core_cm0.h **** 
 126:C:/Users/±è°æ¹Î/Desktop/IFX_S2GL-HW-SW_V1.1.3/Firmware_Software/DAVE project/S2GL_Doppler/Libraries/CMSIS/Include\core_cm0.h **** #if defined ( __CC_ARM )
 127:C:/Users/±è°æ¹Î/Desktop/IFX_S2GL-HW-SW_V1.1.3/Firmware_Software/DAVE project/S2GL_Doppler/Libraries/CMSIS/Include\core_cm0.h ****   #if defined __TARGET_FPU_VFP
 128:C:/Users/±è°æ¹Î/Desktop/IFX_S2GL-HW-SW_V1.1.3/Firmware_Software/DAVE project/S2GL_Doppler/Libraries/CMSIS/Include\core_cm0.h ****     #error "Compiler generates FPU instructions for a device without an FPU (check __FPU_PRESENT)"
 129:C:/Users/±è°æ¹Î/Desktop/IFX_S2GL-HW-SW_V1.1.3/Firmware_Software/DAVE project/S2GL_Doppler/Libraries/CMSIS/Include\core_cm0.h ****   #endif
 130:C:/Users/±è°æ¹Î/Desktop/IFX_S2GL-HW-SW_V1.1.3/Firmware_Software/DAVE project/S2GL_Doppler/Libraries/CMSIS/Include\core_cm0.h **** 
 131:C:/Users/±è°æ¹Î/Desktop/IFX_S2GL-HW-SW_V1.1.3/Firmware_Software/DAVE project/S2GL_Doppler/Libraries/CMSIS/Include\core_cm0.h **** #elif defined(__ARMCC_VERSION) && (__ARMCC_VERSION >= 6010050)
 132:C:/Users/±è°æ¹Î/Desktop/IFX_S2GL-HW-SW_V1.1.3/Firmware_Software/DAVE project/S2GL_Doppler/Libraries/CMSIS/Include\core_cm0.h ****   #if defined __ARM_PCS_VFP
 133:C:/Users/±è°æ¹Î/Desktop/IFX_S2GL-HW-SW_V1.1.3/Firmware_Software/DAVE project/S2GL_Doppler/Libraries/CMSIS/Include\core_cm0.h ****     #error "Compiler generates FPU instructions for a device without an FPU (check __FPU_PRESENT)"
 134:C:/Users/±è°æ¹Î/Desktop/IFX_S2GL-HW-SW_V1.1.3/Firmware_Software/DAVE project/S2GL_Doppler/Libraries/CMSIS/Include\core_cm0.h ****   #endif
 135:C:/Users/±è°æ¹Î/Desktop/IFX_S2GL-HW-SW_V1.1.3/Firmware_Software/DAVE project/S2GL_Doppler/Libraries/CMSIS/Include\core_cm0.h **** 
 136:C:/Users/±è°æ¹Î/Desktop/IFX_S2GL-HW-SW_V1.1.3/Firmware_Software/DAVE project/S2GL_Doppler/Libraries/CMSIS/Include\core_cm0.h **** #elif defined ( __GNUC__ )
 137:C:/Users/±è°æ¹Î/Desktop/IFX_S2GL-HW-SW_V1.1.3/Firmware_Software/DAVE project/S2GL_Doppler/Libraries/CMSIS/Include\core_cm0.h ****   #if defined (__VFP_FP__) && !defined(__SOFTFP__)
 138:C:/Users/±è°æ¹Î/Desktop/IFX_S2GL-HW-SW_V1.1.3/Firmware_Software/DAVE project/S2GL_Doppler/Libraries/CMSIS/Include\core_cm0.h ****     #error "Compiler generates FPU instructions for a device without an FPU (check __FPU_PRESENT)"
 139:C:/Users/±è°æ¹Î/Desktop/IFX_S2GL-HW-SW_V1.1.3/Firmware_Software/DAVE project/S2GL_Doppler/Libraries/CMSIS/Include\core_cm0.h ****   #endif
 140:C:/Users/±è°æ¹Î/Desktop/IFX_S2GL-HW-SW_V1.1.3/Firmware_Software/DAVE project/S2GL_Doppler/Libraries/CMSIS/Include\core_cm0.h **** 
 141:C:/Users/±è°æ¹Î/Desktop/IFX_S2GL-HW-SW_V1.1.3/Firmware_Software/DAVE project/S2GL_Doppler/Libraries/CMSIS/Include\core_cm0.h **** #elif defined ( __ICCARM__ )
 142:C:/Users/±è°æ¹Î/Desktop/IFX_S2GL-HW-SW_V1.1.3/Firmware_Software/DAVE project/S2GL_Doppler/Libraries/CMSIS/Include\core_cm0.h ****   #if defined __ARMVFP__
 143:C:/Users/±è°æ¹Î/Desktop/IFX_S2GL-HW-SW_V1.1.3/Firmware_Software/DAVE project/S2GL_Doppler/Libraries/CMSIS/Include\core_cm0.h ****     #error "Compiler generates FPU instructions for a device without an FPU (check __FPU_PRESENT)"
 144:C:/Users/±è°æ¹Î/Desktop/IFX_S2GL-HW-SW_V1.1.3/Firmware_Software/DAVE project/S2GL_Doppler/Libraries/CMSIS/Include\core_cm0.h ****   #endif
 145:C:/Users/±è°æ¹Î/Desktop/IFX_S2GL-HW-SW_V1.1.3/Firmware_Software/DAVE project/S2GL_Doppler/Libraries/CMSIS/Include\core_cm0.h **** 
 146:C:/Users/±è°æ¹Î/Desktop/IFX_S2GL-HW-SW_V1.1.3/Firmware_Software/DAVE project/S2GL_Doppler/Libraries/CMSIS/Include\core_cm0.h **** #elif defined ( __TMS470__ )
 147:C:/Users/±è°æ¹Î/Desktop/IFX_S2GL-HW-SW_V1.1.3/Firmware_Software/DAVE project/S2GL_Doppler/Libraries/CMSIS/Include\core_cm0.h ****   #if defined __TI_VFP_SUPPORT__
 148:C:/Users/±è°æ¹Î/Desktop/IFX_S2GL-HW-SW_V1.1.3/Firmware_Software/DAVE project/S2GL_Doppler/Libraries/CMSIS/Include\core_cm0.h ****     #error "Compiler generates FPU instructions for a device without an FPU (check __FPU_PRESENT)"
 149:C:/Users/±è°æ¹Î/Desktop/IFX_S2GL-HW-SW_V1.1.3/Firmware_Software/DAVE project/S2GL_Doppler/Libraries/CMSIS/Include\core_cm0.h ****   #endif
 150:C:/Users/±è°æ¹Î/Desktop/IFX_S2GL-HW-SW_V1.1.3/Firmware_Software/DAVE project/S2GL_Doppler/Libraries/CMSIS/Include\core_cm0.h **** 
 151:C:/Users/±è°æ¹Î/Desktop/IFX_S2GL-HW-SW_V1.1.3/Firmware_Software/DAVE project/S2GL_Doppler/Libraries/CMSIS/Include\core_cm0.h **** #elif defined ( __TASKING__ )
 152:C:/Users/±è°æ¹Î/Desktop/IFX_S2GL-HW-SW_V1.1.3/Firmware_Software/DAVE project/S2GL_Doppler/Libraries/CMSIS/Include\core_cm0.h ****   #if defined __FPU_VFP__
 153:C:/Users/±è°æ¹Î/Desktop/IFX_S2GL-HW-SW_V1.1.3/Firmware_Software/DAVE project/S2GL_Doppler/Libraries/CMSIS/Include\core_cm0.h ****     #error "Compiler generates FPU instructions for a device without an FPU (check __FPU_PRESENT)"
 154:C:/Users/±è°æ¹Î/Desktop/IFX_S2GL-HW-SW_V1.1.3/Firmware_Software/DAVE project/S2GL_Doppler/Libraries/CMSIS/Include\core_cm0.h ****   #endif
 155:C:/Users/±è°æ¹Î/Desktop/IFX_S2GL-HW-SW_V1.1.3/Firmware_Software/DAVE project/S2GL_Doppler/Libraries/CMSIS/Include\core_cm0.h **** 
 156:C:/Users/±è°æ¹Î/Desktop/IFX_S2GL-HW-SW_V1.1.3/Firmware_Software/DAVE project/S2GL_Doppler/Libraries/CMSIS/Include\core_cm0.h **** #elif defined ( __CSMC__ )
 157:C:/Users/±è°æ¹Î/Desktop/IFX_S2GL-HW-SW_V1.1.3/Firmware_Software/DAVE project/S2GL_Doppler/Libraries/CMSIS/Include\core_cm0.h ****   #if ( __CSMC__ & 0x400U)
 158:C:/Users/±è°æ¹Î/Desktop/IFX_S2GL-HW-SW_V1.1.3/Firmware_Software/DAVE project/S2GL_Doppler/Libraries/CMSIS/Include\core_cm0.h ****     #error "Compiler generates FPU instructions for a device without an FPU (check __FPU_PRESENT)"
 159:C:/Users/±è°æ¹Î/Desktop/IFX_S2GL-HW-SW_V1.1.3/Firmware_Software/DAVE project/S2GL_Doppler/Libraries/CMSIS/Include\core_cm0.h ****   #endif
 160:C:/Users/±è°æ¹Î/Desktop/IFX_S2GL-HW-SW_V1.1.3/Firmware_Software/DAVE project/S2GL_Doppler/Libraries/CMSIS/Include\core_cm0.h **** 
 161:C:/Users/±è°æ¹Î/Desktop/IFX_S2GL-HW-SW_V1.1.3/Firmware_Software/DAVE project/S2GL_Doppler/Libraries/CMSIS/Include\core_cm0.h **** #endif
 162:C:/Users/±è°æ¹Î/Desktop/IFX_S2GL-HW-SW_V1.1.3/Firmware_Software/DAVE project/S2GL_Doppler/Libraries/CMSIS/Include\core_cm0.h **** 
 163:C:/Users/±è°æ¹Î/Desktop/IFX_S2GL-HW-SW_V1.1.3/Firmware_Software/DAVE project/S2GL_Doppler/Libraries/CMSIS/Include\core_cm0.h **** #include "core_cmInstr.h"                /* Core Instruction Access */
 164:C:/Users/±è°æ¹Î/Desktop/IFX_S2GL-HW-SW_V1.1.3/Firmware_Software/DAVE project/S2GL_Doppler/Libraries/CMSIS/Include\core_cm0.h **** #include "core_cmFunc.h"                 /* Core Function Access */
 165:C:/Users/±è°æ¹Î/Desktop/IFX_S2GL-HW-SW_V1.1.3/Firmware_Software/DAVE project/S2GL_Doppler/Libraries/CMSIS/Include\core_cm0.h **** 
 166:C:/Users/±è°æ¹Î/Desktop/IFX_S2GL-HW-SW_V1.1.3/Firmware_Software/DAVE project/S2GL_Doppler/Libraries/CMSIS/Include\core_cm0.h **** #ifdef __cplusplus
 167:C:/Users/±è°æ¹Î/Desktop/IFX_S2GL-HW-SW_V1.1.3/Firmware_Software/DAVE project/S2GL_Doppler/Libraries/CMSIS/Include\core_cm0.h **** }
 168:C:/Users/±è°æ¹Î/Desktop/IFX_S2GL-HW-SW_V1.1.3/Firmware_Software/DAVE project/S2GL_Doppler/Libraries/CMSIS/Include\core_cm0.h **** #endif
 169:C:/Users/±è°æ¹Î/Desktop/IFX_S2GL-HW-SW_V1.1.3/Firmware_Software/DAVE project/S2GL_Doppler/Libraries/CMSIS/Include\core_cm0.h **** 
 170:C:/Users/±è°æ¹Î/Desktop/IFX_S2GL-HW-SW_V1.1.3/Firmware_Software/DAVE project/S2GL_Doppler/Libraries/CMSIS/Include\core_cm0.h **** #endif /* __CORE_CM0_H_GENERIC */
 171:C:/Users/±è°æ¹Î/Desktop/IFX_S2GL-HW-SW_V1.1.3/Firmware_Software/DAVE project/S2GL_Doppler/Libraries/CMSIS/Include\core_cm0.h **** 
 172:C:/Users/±è°æ¹Î/Desktop/IFX_S2GL-HW-SW_V1.1.3/Firmware_Software/DAVE project/S2GL_Doppler/Libraries/CMSIS/Include\core_cm0.h **** #ifndef __CMSIS_GENERIC
 173:C:/Users/±è°æ¹Î/Desktop/IFX_S2GL-HW-SW_V1.1.3/Firmware_Software/DAVE project/S2GL_Doppler/Libraries/CMSIS/Include\core_cm0.h **** 
 174:C:/Users/±è°æ¹Î/Desktop/IFX_S2GL-HW-SW_V1.1.3/Firmware_Software/DAVE project/S2GL_Doppler/Libraries/CMSIS/Include\core_cm0.h **** #ifndef __CORE_CM0_H_DEPENDANT
 175:C:/Users/±è°æ¹Î/Desktop/IFX_S2GL-HW-SW_V1.1.3/Firmware_Software/DAVE project/S2GL_Doppler/Libraries/CMSIS/Include\core_cm0.h **** #define __CORE_CM0_H_DEPENDANT
 176:C:/Users/±è°æ¹Î/Desktop/IFX_S2GL-HW-SW_V1.1.3/Firmware_Software/DAVE project/S2GL_Doppler/Libraries/CMSIS/Include\core_cm0.h **** 
 177:C:/Users/±è°æ¹Î/Desktop/IFX_S2GL-HW-SW_V1.1.3/Firmware_Software/DAVE project/S2GL_Doppler/Libraries/CMSIS/Include\core_cm0.h **** #ifdef __cplusplus
 178:C:/Users/±è°æ¹Î/Desktop/IFX_S2GL-HW-SW_V1.1.3/Firmware_Software/DAVE project/S2GL_Doppler/Libraries/CMSIS/Include\core_cm0.h ****  extern "C" {
 179:C:/Users/±è°æ¹Î/Desktop/IFX_S2GL-HW-SW_V1.1.3/Firmware_Software/DAVE project/S2GL_Doppler/Libraries/CMSIS/Include\core_cm0.h **** #endif
 180:C:/Users/±è°æ¹Î/Desktop/IFX_S2GL-HW-SW_V1.1.3/Firmware_Software/DAVE project/S2GL_Doppler/Libraries/CMSIS/Include\core_cm0.h **** 
 181:C:/Users/±è°æ¹Î/Desktop/IFX_S2GL-HW-SW_V1.1.3/Firmware_Software/DAVE project/S2GL_Doppler/Libraries/CMSIS/Include\core_cm0.h **** /* check device defines and use defaults */
 182:C:/Users/±è°æ¹Î/Desktop/IFX_S2GL-HW-SW_V1.1.3/Firmware_Software/DAVE project/S2GL_Doppler/Libraries/CMSIS/Include\core_cm0.h **** #if defined __CHECK_DEVICE_DEFINES
 183:C:/Users/±è°æ¹Î/Desktop/IFX_S2GL-HW-SW_V1.1.3/Firmware_Software/DAVE project/S2GL_Doppler/Libraries/CMSIS/Include\core_cm0.h ****   #ifndef __CM0_REV
 184:C:/Users/±è°æ¹Î/Desktop/IFX_S2GL-HW-SW_V1.1.3/Firmware_Software/DAVE project/S2GL_Doppler/Libraries/CMSIS/Include\core_cm0.h ****     #define __CM0_REV               0x0000U
 185:C:/Users/±è°æ¹Î/Desktop/IFX_S2GL-HW-SW_V1.1.3/Firmware_Software/DAVE project/S2GL_Doppler/Libraries/CMSIS/Include\core_cm0.h ****     #warning "__CM0_REV not defined in device header file; using default!"
 186:C:/Users/±è°æ¹Î/Desktop/IFX_S2GL-HW-SW_V1.1.3/Firmware_Software/DAVE project/S2GL_Doppler/Libraries/CMSIS/Include\core_cm0.h ****   #endif
 187:C:/Users/±è°æ¹Î/Desktop/IFX_S2GL-HW-SW_V1.1.3/Firmware_Software/DAVE project/S2GL_Doppler/Libraries/CMSIS/Include\core_cm0.h **** 
 188:C:/Users/±è°æ¹Î/Desktop/IFX_S2GL-HW-SW_V1.1.3/Firmware_Software/DAVE project/S2GL_Doppler/Libraries/CMSIS/Include\core_cm0.h ****   #ifndef __NVIC_PRIO_BITS
 189:C:/Users/±è°æ¹Î/Desktop/IFX_S2GL-HW-SW_V1.1.3/Firmware_Software/DAVE project/S2GL_Doppler/Libraries/CMSIS/Include\core_cm0.h ****     #define __NVIC_PRIO_BITS          2U
 190:C:/Users/±è°æ¹Î/Desktop/IFX_S2GL-HW-SW_V1.1.3/Firmware_Software/DAVE project/S2GL_Doppler/Libraries/CMSIS/Include\core_cm0.h ****     #warning "__NVIC_PRIO_BITS not defined in device header file; using default!"
 191:C:/Users/±è°æ¹Î/Desktop/IFX_S2GL-HW-SW_V1.1.3/Firmware_Software/DAVE project/S2GL_Doppler/Libraries/CMSIS/Include\core_cm0.h ****   #endif
 192:C:/Users/±è°æ¹Î/Desktop/IFX_S2GL-HW-SW_V1.1.3/Firmware_Software/DAVE project/S2GL_Doppler/Libraries/CMSIS/Include\core_cm0.h **** 
 193:C:/Users/±è°æ¹Î/Desktop/IFX_S2GL-HW-SW_V1.1.3/Firmware_Software/DAVE project/S2GL_Doppler/Libraries/CMSIS/Include\core_cm0.h ****   #ifndef __Vendor_SysTickConfig
 194:C:/Users/±è°æ¹Î/Desktop/IFX_S2GL-HW-SW_V1.1.3/Firmware_Software/DAVE project/S2GL_Doppler/Libraries/CMSIS/Include\core_cm0.h ****     #define __Vendor_SysTickConfig    0U
 195:C:/Users/±è°æ¹Î/Desktop/IFX_S2GL-HW-SW_V1.1.3/Firmware_Software/DAVE project/S2GL_Doppler/Libraries/CMSIS/Include\core_cm0.h ****     #warning "__Vendor_SysTickConfig not defined in device header file; using default!"
 196:C:/Users/±è°æ¹Î/Desktop/IFX_S2GL-HW-SW_V1.1.3/Firmware_Software/DAVE project/S2GL_Doppler/Libraries/CMSIS/Include\core_cm0.h ****   #endif
 197:C:/Users/±è°æ¹Î/Desktop/IFX_S2GL-HW-SW_V1.1.3/Firmware_Software/DAVE project/S2GL_Doppler/Libraries/CMSIS/Include\core_cm0.h **** #endif
 198:C:/Users/±è°æ¹Î/Desktop/IFX_S2GL-HW-SW_V1.1.3/Firmware_Software/DAVE project/S2GL_Doppler/Libraries/CMSIS/Include\core_cm0.h **** 
 199:C:/Users/±è°æ¹Î/Desktop/IFX_S2GL-HW-SW_V1.1.3/Firmware_Software/DAVE project/S2GL_Doppler/Libraries/CMSIS/Include\core_cm0.h **** /* IO definitions (access restrictions to peripheral registers) */
 200:C:/Users/±è°æ¹Î/Desktop/IFX_S2GL-HW-SW_V1.1.3/Firmware_Software/DAVE project/S2GL_Doppler/Libraries/CMSIS/Include\core_cm0.h **** /**
 201:C:/Users/±è°æ¹Î/Desktop/IFX_S2GL-HW-SW_V1.1.3/Firmware_Software/DAVE project/S2GL_Doppler/Libraries/CMSIS/Include\core_cm0.h ****     \defgroup CMSIS_glob_defs CMSIS Global Defines
 202:C:/Users/±è°æ¹Î/Desktop/IFX_S2GL-HW-SW_V1.1.3/Firmware_Software/DAVE project/S2GL_Doppler/Libraries/CMSIS/Include\core_cm0.h **** 
 203:C:/Users/±è°æ¹Î/Desktop/IFX_S2GL-HW-SW_V1.1.3/Firmware_Software/DAVE project/S2GL_Doppler/Libraries/CMSIS/Include\core_cm0.h ****     <strong>IO Type Qualifiers</strong> are used
 204:C:/Users/±è°æ¹Î/Desktop/IFX_S2GL-HW-SW_V1.1.3/Firmware_Software/DAVE project/S2GL_Doppler/Libraries/CMSIS/Include\core_cm0.h ****     \li to specify the access to peripheral variables.
 205:C:/Users/±è°æ¹Î/Desktop/IFX_S2GL-HW-SW_V1.1.3/Firmware_Software/DAVE project/S2GL_Doppler/Libraries/CMSIS/Include\core_cm0.h ****     \li for automatic generation of peripheral register debug information.
 206:C:/Users/±è°æ¹Î/Desktop/IFX_S2GL-HW-SW_V1.1.3/Firmware_Software/DAVE project/S2GL_Doppler/Libraries/CMSIS/Include\core_cm0.h **** */
 207:C:/Users/±è°æ¹Î/Desktop/IFX_S2GL-HW-SW_V1.1.3/Firmware_Software/DAVE project/S2GL_Doppler/Libraries/CMSIS/Include\core_cm0.h **** #ifdef __cplusplus
 208:C:/Users/±è°æ¹Î/Desktop/IFX_S2GL-HW-SW_V1.1.3/Firmware_Software/DAVE project/S2GL_Doppler/Libraries/CMSIS/Include\core_cm0.h ****   #define   __I     volatile             /*!< Defines 'read only' permissions */
 209:C:/Users/±è°æ¹Î/Desktop/IFX_S2GL-HW-SW_V1.1.3/Firmware_Software/DAVE project/S2GL_Doppler/Libraries/CMSIS/Include\core_cm0.h **** #else
 210:C:/Users/±è°æ¹Î/Desktop/IFX_S2GL-HW-SW_V1.1.3/Firmware_Software/DAVE project/S2GL_Doppler/Libraries/CMSIS/Include\core_cm0.h ****   #define   __I     volatile const       /*!< Defines 'read only' permissions */
 211:C:/Users/±è°æ¹Î/Desktop/IFX_S2GL-HW-SW_V1.1.3/Firmware_Software/DAVE project/S2GL_Doppler/Libraries/CMSIS/Include\core_cm0.h **** #endif
 212:C:/Users/±è°æ¹Î/Desktop/IFX_S2GL-HW-SW_V1.1.3/Firmware_Software/DAVE project/S2GL_Doppler/Libraries/CMSIS/Include\core_cm0.h **** #define     __O     volatile             /*!< Defines 'write only' permissions */
 213:C:/Users/±è°æ¹Î/Desktop/IFX_S2GL-HW-SW_V1.1.3/Firmware_Software/DAVE project/S2GL_Doppler/Libraries/CMSIS/Include\core_cm0.h **** #define     __IO    volatile             /*!< Defines 'read / write' permissions */
 214:C:/Users/±è°æ¹Î/Desktop/IFX_S2GL-HW-SW_V1.1.3/Firmware_Software/DAVE project/S2GL_Doppler/Libraries/CMSIS/Include\core_cm0.h **** 
 215:C:/Users/±è°æ¹Î/Desktop/IFX_S2GL-HW-SW_V1.1.3/Firmware_Software/DAVE project/S2GL_Doppler/Libraries/CMSIS/Include\core_cm0.h **** /* following defines should be used for structure members */
 216:C:/Users/±è°æ¹Î/Desktop/IFX_S2GL-HW-SW_V1.1.3/Firmware_Software/DAVE project/S2GL_Doppler/Libraries/CMSIS/Include\core_cm0.h **** #define     __IM     volatile const      /*! Defines 'read only' structure member permissions */
 217:C:/Users/±è°æ¹Î/Desktop/IFX_S2GL-HW-SW_V1.1.3/Firmware_Software/DAVE project/S2GL_Doppler/Libraries/CMSIS/Include\core_cm0.h **** #define     __OM     volatile            /*! Defines 'write only' structure member permissions */
 218:C:/Users/±è°æ¹Î/Desktop/IFX_S2GL-HW-SW_V1.1.3/Firmware_Software/DAVE project/S2GL_Doppler/Libraries/CMSIS/Include\core_cm0.h **** #define     __IOM    volatile            /*! Defines 'read / write' structure member permissions */
 219:C:/Users/±è°æ¹Î/Desktop/IFX_S2GL-HW-SW_V1.1.3/Firmware_Software/DAVE project/S2GL_Doppler/Libraries/CMSIS/Include\core_cm0.h **** 
 220:C:/Users/±è°æ¹Î/Desktop/IFX_S2GL-HW-SW_V1.1.3/Firmware_Software/DAVE project/S2GL_Doppler/Libraries/CMSIS/Include\core_cm0.h **** /*@} end of group Cortex_M0 */
 221:C:/Users/±è°æ¹Î/Desktop/IFX_S2GL-HW-SW_V1.1.3/Firmware_Software/DAVE project/S2GL_Doppler/Libraries/CMSIS/Include\core_cm0.h **** 
 222:C:/Users/±è°æ¹Î/Desktop/IFX_S2GL-HW-SW_V1.1.3/Firmware_Software/DAVE project/S2GL_Doppler/Libraries/CMSIS/Include\core_cm0.h **** 
 223:C:/Users/±è°æ¹Î/Desktop/IFX_S2GL-HW-SW_V1.1.3/Firmware_Software/DAVE project/S2GL_Doppler/Libraries/CMSIS/Include\core_cm0.h **** 
 224:C:/Users/±è°æ¹Î/Desktop/IFX_S2GL-HW-SW_V1.1.3/Firmware_Software/DAVE project/S2GL_Doppler/Libraries/CMSIS/Include\core_cm0.h **** /*******************************************************************************
 225:C:/Users/±è°æ¹Î/Desktop/IFX_S2GL-HW-SW_V1.1.3/Firmware_Software/DAVE project/S2GL_Doppler/Libraries/CMSIS/Include\core_cm0.h ****  *                 Register Abstraction
 226:C:/Users/±è°æ¹Î/Desktop/IFX_S2GL-HW-SW_V1.1.3/Firmware_Software/DAVE project/S2GL_Doppler/Libraries/CMSIS/Include\core_cm0.h ****   Core Register contain:
 227:C:/Users/±è°æ¹Î/Desktop/IFX_S2GL-HW-SW_V1.1.3/Firmware_Software/DAVE project/S2GL_Doppler/Libraries/CMSIS/Include\core_cm0.h ****   - Core Register
 228:C:/Users/±è°æ¹Î/Desktop/IFX_S2GL-HW-SW_V1.1.3/Firmware_Software/DAVE project/S2GL_Doppler/Libraries/CMSIS/Include\core_cm0.h ****   - Core NVIC Register
 229:C:/Users/±è°æ¹Î/Desktop/IFX_S2GL-HW-SW_V1.1.3/Firmware_Software/DAVE project/S2GL_Doppler/Libraries/CMSIS/Include\core_cm0.h ****   - Core SCB Register
 230:C:/Users/±è°æ¹Î/Desktop/IFX_S2GL-HW-SW_V1.1.3/Firmware_Software/DAVE project/S2GL_Doppler/Libraries/CMSIS/Include\core_cm0.h ****   - Core SysTick Register
 231:C:/Users/±è°æ¹Î/Desktop/IFX_S2GL-HW-SW_V1.1.3/Firmware_Software/DAVE project/S2GL_Doppler/Libraries/CMSIS/Include\core_cm0.h ****  ******************************************************************************/
 232:C:/Users/±è°æ¹Î/Desktop/IFX_S2GL-HW-SW_V1.1.3/Firmware_Software/DAVE project/S2GL_Doppler/Libraries/CMSIS/Include\core_cm0.h **** /**
 233:C:/Users/±è°æ¹Î/Desktop/IFX_S2GL-HW-SW_V1.1.3/Firmware_Software/DAVE project/S2GL_Doppler/Libraries/CMSIS/Include\core_cm0.h ****   \defgroup CMSIS_core_register Defines and Type Definitions
 234:C:/Users/±è°æ¹Î/Desktop/IFX_S2GL-HW-SW_V1.1.3/Firmware_Software/DAVE project/S2GL_Doppler/Libraries/CMSIS/Include\core_cm0.h ****   \brief Type definitions and defines for Cortex-M processor based devices.
 235:C:/Users/±è°æ¹Î/Desktop/IFX_S2GL-HW-SW_V1.1.3/Firmware_Software/DAVE project/S2GL_Doppler/Libraries/CMSIS/Include\core_cm0.h **** */
 236:C:/Users/±è°æ¹Î/Desktop/IFX_S2GL-HW-SW_V1.1.3/Firmware_Software/DAVE project/S2GL_Doppler/Libraries/CMSIS/Include\core_cm0.h **** 
 237:C:/Users/±è°æ¹Î/Desktop/IFX_S2GL-HW-SW_V1.1.3/Firmware_Software/DAVE project/S2GL_Doppler/Libraries/CMSIS/Include\core_cm0.h **** /**
 238:C:/Users/±è°æ¹Î/Desktop/IFX_S2GL-HW-SW_V1.1.3/Firmware_Software/DAVE project/S2GL_Doppler/Libraries/CMSIS/Include\core_cm0.h ****   \ingroup    CMSIS_core_register
 239:C:/Users/±è°æ¹Î/Desktop/IFX_S2GL-HW-SW_V1.1.3/Firmware_Software/DAVE project/S2GL_Doppler/Libraries/CMSIS/Include\core_cm0.h ****   \defgroup   CMSIS_CORE  Status and Control Registers
 240:C:/Users/±è°æ¹Î/Desktop/IFX_S2GL-HW-SW_V1.1.3/Firmware_Software/DAVE project/S2GL_Doppler/Libraries/CMSIS/Include\core_cm0.h ****   \brief      Core Register type definitions.
 241:C:/Users/±è°æ¹Î/Desktop/IFX_S2GL-HW-SW_V1.1.3/Firmware_Software/DAVE project/S2GL_Doppler/Libraries/CMSIS/Include\core_cm0.h ****   @{
 242:C:/Users/±è°æ¹Î/Desktop/IFX_S2GL-HW-SW_V1.1.3/Firmware_Software/DAVE project/S2GL_Doppler/Libraries/CMSIS/Include\core_cm0.h ****  */
 243:C:/Users/±è°æ¹Î/Desktop/IFX_S2GL-HW-SW_V1.1.3/Firmware_Software/DAVE project/S2GL_Doppler/Libraries/CMSIS/Include\core_cm0.h **** 
 244:C:/Users/±è°æ¹Î/Desktop/IFX_S2GL-HW-SW_V1.1.3/Firmware_Software/DAVE project/S2GL_Doppler/Libraries/CMSIS/Include\core_cm0.h **** /**
 245:C:/Users/±è°æ¹Î/Desktop/IFX_S2GL-HW-SW_V1.1.3/Firmware_Software/DAVE project/S2GL_Doppler/Libraries/CMSIS/Include\core_cm0.h ****   \brief  Union type to access the Application Program Status Register (APSR).
 246:C:/Users/±è°æ¹Î/Desktop/IFX_S2GL-HW-SW_V1.1.3/Firmware_Software/DAVE project/S2GL_Doppler/Libraries/CMSIS/Include\core_cm0.h ****  */
 247:C:/Users/±è°æ¹Î/Desktop/IFX_S2GL-HW-SW_V1.1.3/Firmware_Software/DAVE project/S2GL_Doppler/Libraries/CMSIS/Include\core_cm0.h **** typedef union
 248:C:/Users/±è°æ¹Î/Desktop/IFX_S2GL-HW-SW_V1.1.3/Firmware_Software/DAVE project/S2GL_Doppler/Libraries/CMSIS/Include\core_cm0.h **** {
 249:C:/Users/±è°æ¹Î/Desktop/IFX_S2GL-HW-SW_V1.1.3/Firmware_Software/DAVE project/S2GL_Doppler/Libraries/CMSIS/Include\core_cm0.h ****   struct
 250:C:/Users/±è°æ¹Î/Desktop/IFX_S2GL-HW-SW_V1.1.3/Firmware_Software/DAVE project/S2GL_Doppler/Libraries/CMSIS/Include\core_cm0.h ****   {
 251:C:/Users/±è°æ¹Î/Desktop/IFX_S2GL-HW-SW_V1.1.3/Firmware_Software/DAVE project/S2GL_Doppler/Libraries/CMSIS/Include\core_cm0.h ****     uint32_t _reserved0:28;              /*!< bit:  0..27  Reserved */
 252:C:/Users/±è°æ¹Î/Desktop/IFX_S2GL-HW-SW_V1.1.3/Firmware_Software/DAVE project/S2GL_Doppler/Libraries/CMSIS/Include\core_cm0.h ****     uint32_t V:1;                        /*!< bit:     28  Overflow condition code flag */
 253:C:/Users/±è°æ¹Î/Desktop/IFX_S2GL-HW-SW_V1.1.3/Firmware_Software/DAVE project/S2GL_Doppler/Libraries/CMSIS/Include\core_cm0.h ****     uint32_t C:1;                        /*!< bit:     29  Carry condition code flag */
 254:C:/Users/±è°æ¹Î/Desktop/IFX_S2GL-HW-SW_V1.1.3/Firmware_Software/DAVE project/S2GL_Doppler/Libraries/CMSIS/Include\core_cm0.h ****     uint32_t Z:1;                        /*!< bit:     30  Zero condition code flag */
 255:C:/Users/±è°æ¹Î/Desktop/IFX_S2GL-HW-SW_V1.1.3/Firmware_Software/DAVE project/S2GL_Doppler/Libraries/CMSIS/Include\core_cm0.h ****     uint32_t N:1;                        /*!< bit:     31  Negative condition code flag */
 256:C:/Users/±è°æ¹Î/Desktop/IFX_S2GL-HW-SW_V1.1.3/Firmware_Software/DAVE project/S2GL_Doppler/Libraries/CMSIS/Include\core_cm0.h ****   } b;                                   /*!< Structure used for bit  access */
 257:C:/Users/±è°æ¹Î/Desktop/IFX_S2GL-HW-SW_V1.1.3/Firmware_Software/DAVE project/S2GL_Doppler/Libraries/CMSIS/Include\core_cm0.h ****   uint32_t w;                            /*!< Type      used for word access */
 258:C:/Users/±è°æ¹Î/Desktop/IFX_S2GL-HW-SW_V1.1.3/Firmware_Software/DAVE project/S2GL_Doppler/Libraries/CMSIS/Include\core_cm0.h **** } APSR_Type;
 259:C:/Users/±è°æ¹Î/Desktop/IFX_S2GL-HW-SW_V1.1.3/Firmware_Software/DAVE project/S2GL_Doppler/Libraries/CMSIS/Include\core_cm0.h **** 
 260:C:/Users/±è°æ¹Î/Desktop/IFX_S2GL-HW-SW_V1.1.3/Firmware_Software/DAVE project/S2GL_Doppler/Libraries/CMSIS/Include\core_cm0.h **** /* APSR Register Definitions */
 261:C:/Users/±è°æ¹Î/Desktop/IFX_S2GL-HW-SW_V1.1.3/Firmware_Software/DAVE project/S2GL_Doppler/Libraries/CMSIS/Include\core_cm0.h **** #define APSR_N_Pos                         31U                                            /*!< APSR
 262:C:/Users/±è°æ¹Î/Desktop/IFX_S2GL-HW-SW_V1.1.3/Firmware_Software/DAVE project/S2GL_Doppler/Libraries/CMSIS/Include\core_cm0.h **** #define APSR_N_Msk                         (1UL << APSR_N_Pos)                            /*!< APSR
 263:C:/Users/±è°æ¹Î/Desktop/IFX_S2GL-HW-SW_V1.1.3/Firmware_Software/DAVE project/S2GL_Doppler/Libraries/CMSIS/Include\core_cm0.h **** 
 264:C:/Users/±è°æ¹Î/Desktop/IFX_S2GL-HW-SW_V1.1.3/Firmware_Software/DAVE project/S2GL_Doppler/Libraries/CMSIS/Include\core_cm0.h **** #define APSR_Z_Pos                         30U                                            /*!< APSR
 265:C:/Users/±è°æ¹Î/Desktop/IFX_S2GL-HW-SW_V1.1.3/Firmware_Software/DAVE project/S2GL_Doppler/Libraries/CMSIS/Include\core_cm0.h **** #define APSR_Z_Msk                         (1UL << APSR_Z_Pos)                            /*!< APSR
 266:C:/Users/±è°æ¹Î/Desktop/IFX_S2GL-HW-SW_V1.1.3/Firmware_Software/DAVE project/S2GL_Doppler/Libraries/CMSIS/Include\core_cm0.h **** 
 267:C:/Users/±è°æ¹Î/Desktop/IFX_S2GL-HW-SW_V1.1.3/Firmware_Software/DAVE project/S2GL_Doppler/Libraries/CMSIS/Include\core_cm0.h **** #define APSR_C_Pos                         29U                                            /*!< APSR
 268:C:/Users/±è°æ¹Î/Desktop/IFX_S2GL-HW-SW_V1.1.3/Firmware_Software/DAVE project/S2GL_Doppler/Libraries/CMSIS/Include\core_cm0.h **** #define APSR_C_Msk                         (1UL << APSR_C_Pos)                            /*!< APSR
 269:C:/Users/±è°æ¹Î/Desktop/IFX_S2GL-HW-SW_V1.1.3/Firmware_Software/DAVE project/S2GL_Doppler/Libraries/CMSIS/Include\core_cm0.h **** 
 270:C:/Users/±è°æ¹Î/Desktop/IFX_S2GL-HW-SW_V1.1.3/Firmware_Software/DAVE project/S2GL_Doppler/Libraries/CMSIS/Include\core_cm0.h **** #define APSR_V_Pos                         28U                                            /*!< APSR
 271:C:/Users/±è°æ¹Î/Desktop/IFX_S2GL-HW-SW_V1.1.3/Firmware_Software/DAVE project/S2GL_Doppler/Libraries/CMSIS/Include\core_cm0.h **** #define APSR_V_Msk                         (1UL << APSR_V_Pos)                            /*!< APSR
 272:C:/Users/±è°æ¹Î/Desktop/IFX_S2GL-HW-SW_V1.1.3/Firmware_Software/DAVE project/S2GL_Doppler/Libraries/CMSIS/Include\core_cm0.h **** 
 273:C:/Users/±è°æ¹Î/Desktop/IFX_S2GL-HW-SW_V1.1.3/Firmware_Software/DAVE project/S2GL_Doppler/Libraries/CMSIS/Include\core_cm0.h **** 
 274:C:/Users/±è°æ¹Î/Desktop/IFX_S2GL-HW-SW_V1.1.3/Firmware_Software/DAVE project/S2GL_Doppler/Libraries/CMSIS/Include\core_cm0.h **** /**
 275:C:/Users/±è°æ¹Î/Desktop/IFX_S2GL-HW-SW_V1.1.3/Firmware_Software/DAVE project/S2GL_Doppler/Libraries/CMSIS/Include\core_cm0.h ****   \brief  Union type to access the Interrupt Program Status Register (IPSR).
 276:C:/Users/±è°æ¹Î/Desktop/IFX_S2GL-HW-SW_V1.1.3/Firmware_Software/DAVE project/S2GL_Doppler/Libraries/CMSIS/Include\core_cm0.h ****  */
 277:C:/Users/±è°æ¹Î/Desktop/IFX_S2GL-HW-SW_V1.1.3/Firmware_Software/DAVE project/S2GL_Doppler/Libraries/CMSIS/Include\core_cm0.h **** typedef union
 278:C:/Users/±è°æ¹Î/Desktop/IFX_S2GL-HW-SW_V1.1.3/Firmware_Software/DAVE project/S2GL_Doppler/Libraries/CMSIS/Include\core_cm0.h **** {
 279:C:/Users/±è°æ¹Î/Desktop/IFX_S2GL-HW-SW_V1.1.3/Firmware_Software/DAVE project/S2GL_Doppler/Libraries/CMSIS/Include\core_cm0.h ****   struct
 280:C:/Users/±è°æ¹Î/Desktop/IFX_S2GL-HW-SW_V1.1.3/Firmware_Software/DAVE project/S2GL_Doppler/Libraries/CMSIS/Include\core_cm0.h ****   {
 281:C:/Users/±è°æ¹Î/Desktop/IFX_S2GL-HW-SW_V1.1.3/Firmware_Software/DAVE project/S2GL_Doppler/Libraries/CMSIS/Include\core_cm0.h ****     uint32_t ISR:9;                      /*!< bit:  0.. 8  Exception number */
 282:C:/Users/±è°æ¹Î/Desktop/IFX_S2GL-HW-SW_V1.1.3/Firmware_Software/DAVE project/S2GL_Doppler/Libraries/CMSIS/Include\core_cm0.h ****     uint32_t _reserved0:23;              /*!< bit:  9..31  Reserved */
 283:C:/Users/±è°æ¹Î/Desktop/IFX_S2GL-HW-SW_V1.1.3/Firmware_Software/DAVE project/S2GL_Doppler/Libraries/CMSIS/Include\core_cm0.h ****   } b;                                   /*!< Structure used for bit  access */
 284:C:/Users/±è°æ¹Î/Desktop/IFX_S2GL-HW-SW_V1.1.3/Firmware_Software/DAVE project/S2GL_Doppler/Libraries/CMSIS/Include\core_cm0.h ****   uint32_t w;                            /*!< Type      used for word access */
 285:C:/Users/±è°æ¹Î/Desktop/IFX_S2GL-HW-SW_V1.1.3/Firmware_Software/DAVE project/S2GL_Doppler/Libraries/CMSIS/Include\core_cm0.h **** } IPSR_Type;
 286:C:/Users/±è°æ¹Î/Desktop/IFX_S2GL-HW-SW_V1.1.3/Firmware_Software/DAVE project/S2GL_Doppler/Libraries/CMSIS/Include\core_cm0.h **** 
 287:C:/Users/±è°æ¹Î/Desktop/IFX_S2GL-HW-SW_V1.1.3/Firmware_Software/DAVE project/S2GL_Doppler/Libraries/CMSIS/Include\core_cm0.h **** /* IPSR Register Definitions */
 288:C:/Users/±è°æ¹Î/Desktop/IFX_S2GL-HW-SW_V1.1.3/Firmware_Software/DAVE project/S2GL_Doppler/Libraries/CMSIS/Include\core_cm0.h **** #define IPSR_ISR_Pos                        0U                                            /*!< IPSR
 289:C:/Users/±è°æ¹Î/Desktop/IFX_S2GL-HW-SW_V1.1.3/Firmware_Software/DAVE project/S2GL_Doppler/Libraries/CMSIS/Include\core_cm0.h **** #define IPSR_ISR_Msk                       (0x1FFUL /*<< IPSR_ISR_Pos*/)                  /*!< IPSR
 290:C:/Users/±è°æ¹Î/Desktop/IFX_S2GL-HW-SW_V1.1.3/Firmware_Software/DAVE project/S2GL_Doppler/Libraries/CMSIS/Include\core_cm0.h **** 
 291:C:/Users/±è°æ¹Î/Desktop/IFX_S2GL-HW-SW_V1.1.3/Firmware_Software/DAVE project/S2GL_Doppler/Libraries/CMSIS/Include\core_cm0.h **** 
 292:C:/Users/±è°æ¹Î/Desktop/IFX_S2GL-HW-SW_V1.1.3/Firmware_Software/DAVE project/S2GL_Doppler/Libraries/CMSIS/Include\core_cm0.h **** /**
 293:C:/Users/±è°æ¹Î/Desktop/IFX_S2GL-HW-SW_V1.1.3/Firmware_Software/DAVE project/S2GL_Doppler/Libraries/CMSIS/Include\core_cm0.h ****   \brief  Union type to access the Special-Purpose Program Status Registers (xPSR).
 294:C:/Users/±è°æ¹Î/Desktop/IFX_S2GL-HW-SW_V1.1.3/Firmware_Software/DAVE project/S2GL_Doppler/Libraries/CMSIS/Include\core_cm0.h ****  */
 295:C:/Users/±è°æ¹Î/Desktop/IFX_S2GL-HW-SW_V1.1.3/Firmware_Software/DAVE project/S2GL_Doppler/Libraries/CMSIS/Include\core_cm0.h **** typedef union
 296:C:/Users/±è°æ¹Î/Desktop/IFX_S2GL-HW-SW_V1.1.3/Firmware_Software/DAVE project/S2GL_Doppler/Libraries/CMSIS/Include\core_cm0.h **** {
 297:C:/Users/±è°æ¹Î/Desktop/IFX_S2GL-HW-SW_V1.1.3/Firmware_Software/DAVE project/S2GL_Doppler/Libraries/CMSIS/Include\core_cm0.h ****   struct
 298:C:/Users/±è°æ¹Î/Desktop/IFX_S2GL-HW-SW_V1.1.3/Firmware_Software/DAVE project/S2GL_Doppler/Libraries/CMSIS/Include\core_cm0.h ****   {
 299:C:/Users/±è°æ¹Î/Desktop/IFX_S2GL-HW-SW_V1.1.3/Firmware_Software/DAVE project/S2GL_Doppler/Libraries/CMSIS/Include\core_cm0.h ****     uint32_t ISR:9;                      /*!< bit:  0.. 8  Exception number */
 300:C:/Users/±è°æ¹Î/Desktop/IFX_S2GL-HW-SW_V1.1.3/Firmware_Software/DAVE project/S2GL_Doppler/Libraries/CMSIS/Include\core_cm0.h ****     uint32_t _reserved0:15;              /*!< bit:  9..23  Reserved */
 301:C:/Users/±è°æ¹Î/Desktop/IFX_S2GL-HW-SW_V1.1.3/Firmware_Software/DAVE project/S2GL_Doppler/Libraries/CMSIS/Include\core_cm0.h ****     uint32_t T:1;                        /*!< bit:     24  Thumb bit        (read 0) */
 302:C:/Users/±è°æ¹Î/Desktop/IFX_S2GL-HW-SW_V1.1.3/Firmware_Software/DAVE project/S2GL_Doppler/Libraries/CMSIS/Include\core_cm0.h ****     uint32_t _reserved1:3;               /*!< bit: 25..27  Reserved */
 303:C:/Users/±è°æ¹Î/Desktop/IFX_S2GL-HW-SW_V1.1.3/Firmware_Software/DAVE project/S2GL_Doppler/Libraries/CMSIS/Include\core_cm0.h ****     uint32_t V:1;                        /*!< bit:     28  Overflow condition code flag */
 304:C:/Users/±è°æ¹Î/Desktop/IFX_S2GL-HW-SW_V1.1.3/Firmware_Software/DAVE project/S2GL_Doppler/Libraries/CMSIS/Include\core_cm0.h ****     uint32_t C:1;                        /*!< bit:     29  Carry condition code flag */
 305:C:/Users/±è°æ¹Î/Desktop/IFX_S2GL-HW-SW_V1.1.3/Firmware_Software/DAVE project/S2GL_Doppler/Libraries/CMSIS/Include\core_cm0.h ****     uint32_t Z:1;                        /*!< bit:     30  Zero condition code flag */
 306:C:/Users/±è°æ¹Î/Desktop/IFX_S2GL-HW-SW_V1.1.3/Firmware_Software/DAVE project/S2GL_Doppler/Libraries/CMSIS/Include\core_cm0.h ****     uint32_t N:1;                        /*!< bit:     31  Negative condition code flag */
 307:C:/Users/±è°æ¹Î/Desktop/IFX_S2GL-HW-SW_V1.1.3/Firmware_Software/DAVE project/S2GL_Doppler/Libraries/CMSIS/Include\core_cm0.h ****   } b;                                   /*!< Structure used for bit  access */
 308:C:/Users/±è°æ¹Î/Desktop/IFX_S2GL-HW-SW_V1.1.3/Firmware_Software/DAVE project/S2GL_Doppler/Libraries/CMSIS/Include\core_cm0.h ****   uint32_t w;                            /*!< Type      used for word access */
 309:C:/Users/±è°æ¹Î/Desktop/IFX_S2GL-HW-SW_V1.1.3/Firmware_Software/DAVE project/S2GL_Doppler/Libraries/CMSIS/Include\core_cm0.h **** } xPSR_Type;
 310:C:/Users/±è°æ¹Î/Desktop/IFX_S2GL-HW-SW_V1.1.3/Firmware_Software/DAVE project/S2GL_Doppler/Libraries/CMSIS/Include\core_cm0.h **** 
 311:C:/Users/±è°æ¹Î/Desktop/IFX_S2GL-HW-SW_V1.1.3/Firmware_Software/DAVE project/S2GL_Doppler/Libraries/CMSIS/Include\core_cm0.h **** /* xPSR Register Definitions */
 312:C:/Users/±è°æ¹Î/Desktop/IFX_S2GL-HW-SW_V1.1.3/Firmware_Software/DAVE project/S2GL_Doppler/Libraries/CMSIS/Include\core_cm0.h **** #define xPSR_N_Pos                         31U                                            /*!< xPSR
 313:C:/Users/±è°æ¹Î/Desktop/IFX_S2GL-HW-SW_V1.1.3/Firmware_Software/DAVE project/S2GL_Doppler/Libraries/CMSIS/Include\core_cm0.h **** #define xPSR_N_Msk                         (1UL << xPSR_N_Pos)                            /*!< xPSR
 314:C:/Users/±è°æ¹Î/Desktop/IFX_S2GL-HW-SW_V1.1.3/Firmware_Software/DAVE project/S2GL_Doppler/Libraries/CMSIS/Include\core_cm0.h **** 
 315:C:/Users/±è°æ¹Î/Desktop/IFX_S2GL-HW-SW_V1.1.3/Firmware_Software/DAVE project/S2GL_Doppler/Libraries/CMSIS/Include\core_cm0.h **** #define xPSR_Z_Pos                         30U                                            /*!< xPSR
 316:C:/Users/±è°æ¹Î/Desktop/IFX_S2GL-HW-SW_V1.1.3/Firmware_Software/DAVE project/S2GL_Doppler/Libraries/CMSIS/Include\core_cm0.h **** #define xPSR_Z_Msk                         (1UL << xPSR_Z_Pos)                            /*!< xPSR
 317:C:/Users/±è°æ¹Î/Desktop/IFX_S2GL-HW-SW_V1.1.3/Firmware_Software/DAVE project/S2GL_Doppler/Libraries/CMSIS/Include\core_cm0.h **** 
 318:C:/Users/±è°æ¹Î/Desktop/IFX_S2GL-HW-SW_V1.1.3/Firmware_Software/DAVE project/S2GL_Doppler/Libraries/CMSIS/Include\core_cm0.h **** #define xPSR_C_Pos                         29U                                            /*!< xPSR
 319:C:/Users/±è°æ¹Î/Desktop/IFX_S2GL-HW-SW_V1.1.3/Firmware_Software/DAVE project/S2GL_Doppler/Libraries/CMSIS/Include\core_cm0.h **** #define xPSR_C_Msk                         (1UL << xPSR_C_Pos)                            /*!< xPSR
 320:C:/Users/±è°æ¹Î/Desktop/IFX_S2GL-HW-SW_V1.1.3/Firmware_Software/DAVE project/S2GL_Doppler/Libraries/CMSIS/Include\core_cm0.h **** 
 321:C:/Users/±è°æ¹Î/Desktop/IFX_S2GL-HW-SW_V1.1.3/Firmware_Software/DAVE project/S2GL_Doppler/Libraries/CMSIS/Include\core_cm0.h **** #define xPSR_V_Pos                         28U                                            /*!< xPSR
 322:C:/Users/±è°æ¹Î/Desktop/IFX_S2GL-HW-SW_V1.1.3/Firmware_Software/DAVE project/S2GL_Doppler/Libraries/CMSIS/Include\core_cm0.h **** #define xPSR_V_Msk                         (1UL << xPSR_V_Pos)                            /*!< xPSR
 323:C:/Users/±è°æ¹Î/Desktop/IFX_S2GL-HW-SW_V1.1.3/Firmware_Software/DAVE project/S2GL_Doppler/Libraries/CMSIS/Include\core_cm0.h **** 
 324:C:/Users/±è°æ¹Î/Desktop/IFX_S2GL-HW-SW_V1.1.3/Firmware_Software/DAVE project/S2GL_Doppler/Libraries/CMSIS/Include\core_cm0.h **** #define xPSR_T_Pos                         24U                                            /*!< xPSR
 325:C:/Users/±è°æ¹Î/Desktop/IFX_S2GL-HW-SW_V1.1.3/Firmware_Software/DAVE project/S2GL_Doppler/Libraries/CMSIS/Include\core_cm0.h **** #define xPSR_T_Msk                         (1UL << xPSR_T_Pos)                            /*!< xPSR
 326:C:/Users/±è°æ¹Î/Desktop/IFX_S2GL-HW-SW_V1.1.3/Firmware_Software/DAVE project/S2GL_Doppler/Libraries/CMSIS/Include\core_cm0.h **** 
 327:C:/Users/±è°æ¹Î/Desktop/IFX_S2GL-HW-SW_V1.1.3/Firmware_Software/DAVE project/S2GL_Doppler/Libraries/CMSIS/Include\core_cm0.h **** #define xPSR_ISR_Pos                        0U                                            /*!< xPSR
 328:C:/Users/±è°æ¹Î/Desktop/IFX_S2GL-HW-SW_V1.1.3/Firmware_Software/DAVE project/S2GL_Doppler/Libraries/CMSIS/Include\core_cm0.h **** #define xPSR_ISR_Msk                       (0x1FFUL /*<< xPSR_ISR_Pos*/)                  /*!< xPSR
 329:C:/Users/±è°æ¹Î/Desktop/IFX_S2GL-HW-SW_V1.1.3/Firmware_Software/DAVE project/S2GL_Doppler/Libraries/CMSIS/Include\core_cm0.h **** 
 330:C:/Users/±è°æ¹Î/Desktop/IFX_S2GL-HW-SW_V1.1.3/Firmware_Software/DAVE project/S2GL_Doppler/Libraries/CMSIS/Include\core_cm0.h **** 
 331:C:/Users/±è°æ¹Î/Desktop/IFX_S2GL-HW-SW_V1.1.3/Firmware_Software/DAVE project/S2GL_Doppler/Libraries/CMSIS/Include\core_cm0.h **** /**
 332:C:/Users/±è°æ¹Î/Desktop/IFX_S2GL-HW-SW_V1.1.3/Firmware_Software/DAVE project/S2GL_Doppler/Libraries/CMSIS/Include\core_cm0.h ****   \brief  Union type to access the Control Registers (CONTROL).
 333:C:/Users/±è°æ¹Î/Desktop/IFX_S2GL-HW-SW_V1.1.3/Firmware_Software/DAVE project/S2GL_Doppler/Libraries/CMSIS/Include\core_cm0.h ****  */
 334:C:/Users/±è°æ¹Î/Desktop/IFX_S2GL-HW-SW_V1.1.3/Firmware_Software/DAVE project/S2GL_Doppler/Libraries/CMSIS/Include\core_cm0.h **** typedef union
 335:C:/Users/±è°æ¹Î/Desktop/IFX_S2GL-HW-SW_V1.1.3/Firmware_Software/DAVE project/S2GL_Doppler/Libraries/CMSIS/Include\core_cm0.h **** {
 336:C:/Users/±è°æ¹Î/Desktop/IFX_S2GL-HW-SW_V1.1.3/Firmware_Software/DAVE project/S2GL_Doppler/Libraries/CMSIS/Include\core_cm0.h ****   struct
 337:C:/Users/±è°æ¹Î/Desktop/IFX_S2GL-HW-SW_V1.1.3/Firmware_Software/DAVE project/S2GL_Doppler/Libraries/CMSIS/Include\core_cm0.h ****   {
 338:C:/Users/±è°æ¹Î/Desktop/IFX_S2GL-HW-SW_V1.1.3/Firmware_Software/DAVE project/S2GL_Doppler/Libraries/CMSIS/Include\core_cm0.h ****     uint32_t _reserved0:1;               /*!< bit:      0  Reserved */
 339:C:/Users/±è°æ¹Î/Desktop/IFX_S2GL-HW-SW_V1.1.3/Firmware_Software/DAVE project/S2GL_Doppler/Libraries/CMSIS/Include\core_cm0.h ****     uint32_t SPSEL:1;                    /*!< bit:      1  Stack to be used */
 340:C:/Users/±è°æ¹Î/Desktop/IFX_S2GL-HW-SW_V1.1.3/Firmware_Software/DAVE project/S2GL_Doppler/Libraries/CMSIS/Include\core_cm0.h ****     uint32_t _reserved1:30;              /*!< bit:  2..31  Reserved */
 341:C:/Users/±è°æ¹Î/Desktop/IFX_S2GL-HW-SW_V1.1.3/Firmware_Software/DAVE project/S2GL_Doppler/Libraries/CMSIS/Include\core_cm0.h ****   } b;                                   /*!< Structure used for bit  access */
 342:C:/Users/±è°æ¹Î/Desktop/IFX_S2GL-HW-SW_V1.1.3/Firmware_Software/DAVE project/S2GL_Doppler/Libraries/CMSIS/Include\core_cm0.h ****   uint32_t w;                            /*!< Type      used for word access */
 343:C:/Users/±è°æ¹Î/Desktop/IFX_S2GL-HW-SW_V1.1.3/Firmware_Software/DAVE project/S2GL_Doppler/Libraries/CMSIS/Include\core_cm0.h **** } CONTROL_Type;
 344:C:/Users/±è°æ¹Î/Desktop/IFX_S2GL-HW-SW_V1.1.3/Firmware_Software/DAVE project/S2GL_Doppler/Libraries/CMSIS/Include\core_cm0.h **** 
 345:C:/Users/±è°æ¹Î/Desktop/IFX_S2GL-HW-SW_V1.1.3/Firmware_Software/DAVE project/S2GL_Doppler/Libraries/CMSIS/Include\core_cm0.h **** /* CONTROL Register Definitions */
 346:C:/Users/±è°æ¹Î/Desktop/IFX_S2GL-HW-SW_V1.1.3/Firmware_Software/DAVE project/S2GL_Doppler/Libraries/CMSIS/Include\core_cm0.h **** #define CONTROL_SPSEL_Pos                   1U                                            /*!< CONT
 347:C:/Users/±è°æ¹Î/Desktop/IFX_S2GL-HW-SW_V1.1.3/Firmware_Software/DAVE project/S2GL_Doppler/Libraries/CMSIS/Include\core_cm0.h **** #define CONTROL_SPSEL_Msk                  (1UL << CONTROL_SPSEL_Pos)                     /*!< CONT
 348:C:/Users/±è°æ¹Î/Desktop/IFX_S2GL-HW-SW_V1.1.3/Firmware_Software/DAVE project/S2GL_Doppler/Libraries/CMSIS/Include\core_cm0.h **** 
 349:C:/Users/±è°æ¹Î/Desktop/IFX_S2GL-HW-SW_V1.1.3/Firmware_Software/DAVE project/S2GL_Doppler/Libraries/CMSIS/Include\core_cm0.h **** /*@} end of group CMSIS_CORE */
 350:C:/Users/±è°æ¹Î/Desktop/IFX_S2GL-HW-SW_V1.1.3/Firmware_Software/DAVE project/S2GL_Doppler/Libraries/CMSIS/Include\core_cm0.h **** 
 351:C:/Users/±è°æ¹Î/Desktop/IFX_S2GL-HW-SW_V1.1.3/Firmware_Software/DAVE project/S2GL_Doppler/Libraries/CMSIS/Include\core_cm0.h **** 
 352:C:/Users/±è°æ¹Î/Desktop/IFX_S2GL-HW-SW_V1.1.3/Firmware_Software/DAVE project/S2GL_Doppler/Libraries/CMSIS/Include\core_cm0.h **** /**
 353:C:/Users/±è°æ¹Î/Desktop/IFX_S2GL-HW-SW_V1.1.3/Firmware_Software/DAVE project/S2GL_Doppler/Libraries/CMSIS/Include\core_cm0.h ****   \ingroup    CMSIS_core_register
 354:C:/Users/±è°æ¹Î/Desktop/IFX_S2GL-HW-SW_V1.1.3/Firmware_Software/DAVE project/S2GL_Doppler/Libraries/CMSIS/Include\core_cm0.h ****   \defgroup   CMSIS_NVIC  Nested Vectored Interrupt Controller (NVIC)
 355:C:/Users/±è°æ¹Î/Desktop/IFX_S2GL-HW-SW_V1.1.3/Firmware_Software/DAVE project/S2GL_Doppler/Libraries/CMSIS/Include\core_cm0.h ****   \brief      Type definitions for the NVIC Registers
 356:C:/Users/±è°æ¹Î/Desktop/IFX_S2GL-HW-SW_V1.1.3/Firmware_Software/DAVE project/S2GL_Doppler/Libraries/CMSIS/Include\core_cm0.h ****   @{
 357:C:/Users/±è°æ¹Î/Desktop/IFX_S2GL-HW-SW_V1.1.3/Firmware_Software/DAVE project/S2GL_Doppler/Libraries/CMSIS/Include\core_cm0.h ****  */
 358:C:/Users/±è°æ¹Î/Desktop/IFX_S2GL-HW-SW_V1.1.3/Firmware_Software/DAVE project/S2GL_Doppler/Libraries/CMSIS/Include\core_cm0.h **** 
 359:C:/Users/±è°æ¹Î/Desktop/IFX_S2GL-HW-SW_V1.1.3/Firmware_Software/DAVE project/S2GL_Doppler/Libraries/CMSIS/Include\core_cm0.h **** /**
 360:C:/Users/±è°æ¹Î/Desktop/IFX_S2GL-HW-SW_V1.1.3/Firmware_Software/DAVE project/S2GL_Doppler/Libraries/CMSIS/Include\core_cm0.h ****   \brief  Structure type to access the Nested Vectored Interrupt Controller (NVIC).
 361:C:/Users/±è°æ¹Î/Desktop/IFX_S2GL-HW-SW_V1.1.3/Firmware_Software/DAVE project/S2GL_Doppler/Libraries/CMSIS/Include\core_cm0.h ****  */
 362:C:/Users/±è°æ¹Î/Desktop/IFX_S2GL-HW-SW_V1.1.3/Firmware_Software/DAVE project/S2GL_Doppler/Libraries/CMSIS/Include\core_cm0.h **** typedef struct
 363:C:/Users/±è°æ¹Î/Desktop/IFX_S2GL-HW-SW_V1.1.3/Firmware_Software/DAVE project/S2GL_Doppler/Libraries/CMSIS/Include\core_cm0.h **** {
 364:C:/Users/±è°æ¹Î/Desktop/IFX_S2GL-HW-SW_V1.1.3/Firmware_Software/DAVE project/S2GL_Doppler/Libraries/CMSIS/Include\core_cm0.h ****   __IOM uint32_t ISER[1U];               /*!< Offset: 0x000 (R/W)  Interrupt Set Enable Register */
 365:C:/Users/±è°æ¹Î/Desktop/IFX_S2GL-HW-SW_V1.1.3/Firmware_Software/DAVE project/S2GL_Doppler/Libraries/CMSIS/Include\core_cm0.h ****         uint32_t RESERVED0[31U];
 366:C:/Users/±è°æ¹Î/Desktop/IFX_S2GL-HW-SW_V1.1.3/Firmware_Software/DAVE project/S2GL_Doppler/Libraries/CMSIS/Include\core_cm0.h ****   __IOM uint32_t ICER[1U];               /*!< Offset: 0x080 (R/W)  Interrupt Clear Enable Register 
 367:C:/Users/±è°æ¹Î/Desktop/IFX_S2GL-HW-SW_V1.1.3/Firmware_Software/DAVE project/S2GL_Doppler/Libraries/CMSIS/Include\core_cm0.h ****         uint32_t RSERVED1[31U];
 368:C:/Users/±è°æ¹Î/Desktop/IFX_S2GL-HW-SW_V1.1.3/Firmware_Software/DAVE project/S2GL_Doppler/Libraries/CMSIS/Include\core_cm0.h ****   __IOM uint32_t ISPR[1U];               /*!< Offset: 0x100 (R/W)  Interrupt Set Pending Register *
 369:C:/Users/±è°æ¹Î/Desktop/IFX_S2GL-HW-SW_V1.1.3/Firmware_Software/DAVE project/S2GL_Doppler/Libraries/CMSIS/Include\core_cm0.h ****         uint32_t RESERVED2[31U];
 370:C:/Users/±è°æ¹Î/Desktop/IFX_S2GL-HW-SW_V1.1.3/Firmware_Software/DAVE project/S2GL_Doppler/Libraries/CMSIS/Include\core_cm0.h ****   __IOM uint32_t ICPR[1U];               /*!< Offset: 0x180 (R/W)  Interrupt Clear Pending Register
 371:C:/Users/±è°æ¹Î/Desktop/IFX_S2GL-HW-SW_V1.1.3/Firmware_Software/DAVE project/S2GL_Doppler/Libraries/CMSIS/Include\core_cm0.h ****         uint32_t RESERVED3[31U];
 372:C:/Users/±è°æ¹Î/Desktop/IFX_S2GL-HW-SW_V1.1.3/Firmware_Software/DAVE project/S2GL_Doppler/Libraries/CMSIS/Include\core_cm0.h ****         uint32_t RESERVED4[64U];
 373:C:/Users/±è°æ¹Î/Desktop/IFX_S2GL-HW-SW_V1.1.3/Firmware_Software/DAVE project/S2GL_Doppler/Libraries/CMSIS/Include\core_cm0.h ****   __IOM uint32_t IP[8U];                 /*!< Offset: 0x300 (R/W)  Interrupt Priority Register */
 374:C:/Users/±è°æ¹Î/Desktop/IFX_S2GL-HW-SW_V1.1.3/Firmware_Software/DAVE project/S2GL_Doppler/Libraries/CMSIS/Include\core_cm0.h **** }  NVIC_Type;
 375:C:/Users/±è°æ¹Î/Desktop/IFX_S2GL-HW-SW_V1.1.3/Firmware_Software/DAVE project/S2GL_Doppler/Libraries/CMSIS/Include\core_cm0.h **** 
 376:C:/Users/±è°æ¹Î/Desktop/IFX_S2GL-HW-SW_V1.1.3/Firmware_Software/DAVE project/S2GL_Doppler/Libraries/CMSIS/Include\core_cm0.h **** /*@} end of group CMSIS_NVIC */
 377:C:/Users/±è°æ¹Î/Desktop/IFX_S2GL-HW-SW_V1.1.3/Firmware_Software/DAVE project/S2GL_Doppler/Libraries/CMSIS/Include\core_cm0.h **** 
 378:C:/Users/±è°æ¹Î/Desktop/IFX_S2GL-HW-SW_V1.1.3/Firmware_Software/DAVE project/S2GL_Doppler/Libraries/CMSIS/Include\core_cm0.h **** 
 379:C:/Users/±è°æ¹Î/Desktop/IFX_S2GL-HW-SW_V1.1.3/Firmware_Software/DAVE project/S2GL_Doppler/Libraries/CMSIS/Include\core_cm0.h **** /**
 380:C:/Users/±è°æ¹Î/Desktop/IFX_S2GL-HW-SW_V1.1.3/Firmware_Software/DAVE project/S2GL_Doppler/Libraries/CMSIS/Include\core_cm0.h ****   \ingroup  CMSIS_core_register
 381:C:/Users/±è°æ¹Î/Desktop/IFX_S2GL-HW-SW_V1.1.3/Firmware_Software/DAVE project/S2GL_Doppler/Libraries/CMSIS/Include\core_cm0.h ****   \defgroup CMSIS_SCB     System Control Block (SCB)
 382:C:/Users/±è°æ¹Î/Desktop/IFX_S2GL-HW-SW_V1.1.3/Firmware_Software/DAVE project/S2GL_Doppler/Libraries/CMSIS/Include\core_cm0.h ****   \brief    Type definitions for the System Control Block Registers
 383:C:/Users/±è°æ¹Î/Desktop/IFX_S2GL-HW-SW_V1.1.3/Firmware_Software/DAVE project/S2GL_Doppler/Libraries/CMSIS/Include\core_cm0.h ****   @{
 384:C:/Users/±è°æ¹Î/Desktop/IFX_S2GL-HW-SW_V1.1.3/Firmware_Software/DAVE project/S2GL_Doppler/Libraries/CMSIS/Include\core_cm0.h ****  */
 385:C:/Users/±è°æ¹Î/Desktop/IFX_S2GL-HW-SW_V1.1.3/Firmware_Software/DAVE project/S2GL_Doppler/Libraries/CMSIS/Include\core_cm0.h **** 
 386:C:/Users/±è°æ¹Î/Desktop/IFX_S2GL-HW-SW_V1.1.3/Firmware_Software/DAVE project/S2GL_Doppler/Libraries/CMSIS/Include\core_cm0.h **** /**
 387:C:/Users/±è°æ¹Î/Desktop/IFX_S2GL-HW-SW_V1.1.3/Firmware_Software/DAVE project/S2GL_Doppler/Libraries/CMSIS/Include\core_cm0.h ****   \brief  Structure type to access the System Control Block (SCB).
 388:C:/Users/±è°æ¹Î/Desktop/IFX_S2GL-HW-SW_V1.1.3/Firmware_Software/DAVE project/S2GL_Doppler/Libraries/CMSIS/Include\core_cm0.h ****  */
 389:C:/Users/±è°æ¹Î/Desktop/IFX_S2GL-HW-SW_V1.1.3/Firmware_Software/DAVE project/S2GL_Doppler/Libraries/CMSIS/Include\core_cm0.h **** typedef struct
 390:C:/Users/±è°æ¹Î/Desktop/IFX_S2GL-HW-SW_V1.1.3/Firmware_Software/DAVE project/S2GL_Doppler/Libraries/CMSIS/Include\core_cm0.h **** {
 391:C:/Users/±è°æ¹Î/Desktop/IFX_S2GL-HW-SW_V1.1.3/Firmware_Software/DAVE project/S2GL_Doppler/Libraries/CMSIS/Include\core_cm0.h ****   __IM  uint32_t CPUID;                  /*!< Offset: 0x000 (R/ )  CPUID Base Register */
 392:C:/Users/±è°æ¹Î/Desktop/IFX_S2GL-HW-SW_V1.1.3/Firmware_Software/DAVE project/S2GL_Doppler/Libraries/CMSIS/Include\core_cm0.h ****   __IOM uint32_t ICSR;                   /*!< Offset: 0x004 (R/W)  Interrupt Control and State Regi
 393:C:/Users/±è°æ¹Î/Desktop/IFX_S2GL-HW-SW_V1.1.3/Firmware_Software/DAVE project/S2GL_Doppler/Libraries/CMSIS/Include\core_cm0.h ****         uint32_t RESERVED0;
 394:C:/Users/±è°æ¹Î/Desktop/IFX_S2GL-HW-SW_V1.1.3/Firmware_Software/DAVE project/S2GL_Doppler/Libraries/CMSIS/Include\core_cm0.h ****   __IOM uint32_t AIRCR;                  /*!< Offset: 0x00C (R/W)  Application Interrupt and Reset 
 395:C:/Users/±è°æ¹Î/Desktop/IFX_S2GL-HW-SW_V1.1.3/Firmware_Software/DAVE project/S2GL_Doppler/Libraries/CMSIS/Include\core_cm0.h ****   __IOM uint32_t SCR;                    /*!< Offset: 0x010 (R/W)  System Control Register */
 396:C:/Users/±è°æ¹Î/Desktop/IFX_S2GL-HW-SW_V1.1.3/Firmware_Software/DAVE project/S2GL_Doppler/Libraries/CMSIS/Include\core_cm0.h ****   __IOM uint32_t CCR;                    /*!< Offset: 0x014 (R/W)  Configuration Control Register *
 397:C:/Users/±è°æ¹Î/Desktop/IFX_S2GL-HW-SW_V1.1.3/Firmware_Software/DAVE project/S2GL_Doppler/Libraries/CMSIS/Include\core_cm0.h ****         uint32_t RESERVED1;
 398:C:/Users/±è°æ¹Î/Desktop/IFX_S2GL-HW-SW_V1.1.3/Firmware_Software/DAVE project/S2GL_Doppler/Libraries/CMSIS/Include\core_cm0.h ****   __IOM uint32_t SHP[2U];                /*!< Offset: 0x01C (R/W)  System Handlers Priority Registe
 399:C:/Users/±è°æ¹Î/Desktop/IFX_S2GL-HW-SW_V1.1.3/Firmware_Software/DAVE project/S2GL_Doppler/Libraries/CMSIS/Include\core_cm0.h ****   __IOM uint32_t SHCSR;                  /*!< Offset: 0x024 (R/W)  System Handler Control and State
 400:C:/Users/±è°æ¹Î/Desktop/IFX_S2GL-HW-SW_V1.1.3/Firmware_Software/DAVE project/S2GL_Doppler/Libraries/CMSIS/Include\core_cm0.h **** } SCB_Type;
 401:C:/Users/±è°æ¹Î/Desktop/IFX_S2GL-HW-SW_V1.1.3/Firmware_Software/DAVE project/S2GL_Doppler/Libraries/CMSIS/Include\core_cm0.h **** 
 402:C:/Users/±è°æ¹Î/Desktop/IFX_S2GL-HW-SW_V1.1.3/Firmware_Software/DAVE project/S2GL_Doppler/Libraries/CMSIS/Include\core_cm0.h **** /* SCB CPUID Register Definitions */
 403:C:/Users/±è°æ¹Î/Desktop/IFX_S2GL-HW-SW_V1.1.3/Firmware_Software/DAVE project/S2GL_Doppler/Libraries/CMSIS/Include\core_cm0.h **** #define SCB_CPUID_IMPLEMENTER_Pos          24U                                            /*!< SCB 
 404:C:/Users/±è°æ¹Î/Desktop/IFX_S2GL-HW-SW_V1.1.3/Firmware_Software/DAVE project/S2GL_Doppler/Libraries/CMSIS/Include\core_cm0.h **** #define SCB_CPUID_IMPLEMENTER_Msk          (0xFFUL << SCB_CPUID_IMPLEMENTER_Pos)          /*!< SCB 
 405:C:/Users/±è°æ¹Î/Desktop/IFX_S2GL-HW-SW_V1.1.3/Firmware_Software/DAVE project/S2GL_Doppler/Libraries/CMSIS/Include\core_cm0.h **** 
 406:C:/Users/±è°æ¹Î/Desktop/IFX_S2GL-HW-SW_V1.1.3/Firmware_Software/DAVE project/S2GL_Doppler/Libraries/CMSIS/Include\core_cm0.h **** #define SCB_CPUID_VARIANT_Pos              20U                                            /*!< SCB 
 407:C:/Users/±è°æ¹Î/Desktop/IFX_S2GL-HW-SW_V1.1.3/Firmware_Software/DAVE project/S2GL_Doppler/Libraries/CMSIS/Include\core_cm0.h **** #define SCB_CPUID_VARIANT_Msk              (0xFUL << SCB_CPUID_VARIANT_Pos)               /*!< SCB 
 408:C:/Users/±è°æ¹Î/Desktop/IFX_S2GL-HW-SW_V1.1.3/Firmware_Software/DAVE project/S2GL_Doppler/Libraries/CMSIS/Include\core_cm0.h **** 
 409:C:/Users/±è°æ¹Î/Desktop/IFX_S2GL-HW-SW_V1.1.3/Firmware_Software/DAVE project/S2GL_Doppler/Libraries/CMSIS/Include\core_cm0.h **** #define SCB_CPUID_ARCHITECTURE_Pos         16U                                            /*!< SCB 
 410:C:/Users/±è°æ¹Î/Desktop/IFX_S2GL-HW-SW_V1.1.3/Firmware_Software/DAVE project/S2GL_Doppler/Libraries/CMSIS/Include\core_cm0.h **** #define SCB_CPUID_ARCHITECTURE_Msk         (0xFUL << SCB_CPUID_ARCHITECTURE_Pos)          /*!< SCB 
 411:C:/Users/±è°æ¹Î/Desktop/IFX_S2GL-HW-SW_V1.1.3/Firmware_Software/DAVE project/S2GL_Doppler/Libraries/CMSIS/Include\core_cm0.h **** 
 412:C:/Users/±è°æ¹Î/Desktop/IFX_S2GL-HW-SW_V1.1.3/Firmware_Software/DAVE project/S2GL_Doppler/Libraries/CMSIS/Include\core_cm0.h **** #define SCB_CPUID_PARTNO_Pos                4U                                            /*!< SCB 
 413:C:/Users/±è°æ¹Î/Desktop/IFX_S2GL-HW-SW_V1.1.3/Firmware_Software/DAVE project/S2GL_Doppler/Libraries/CMSIS/Include\core_cm0.h **** #define SCB_CPUID_PARTNO_Msk               (0xFFFUL << SCB_CPUID_PARTNO_Pos)              /*!< SCB 
 414:C:/Users/±è°æ¹Î/Desktop/IFX_S2GL-HW-SW_V1.1.3/Firmware_Software/DAVE project/S2GL_Doppler/Libraries/CMSIS/Include\core_cm0.h **** 
 415:C:/Users/±è°æ¹Î/Desktop/IFX_S2GL-HW-SW_V1.1.3/Firmware_Software/DAVE project/S2GL_Doppler/Libraries/CMSIS/Include\core_cm0.h **** #define SCB_CPUID_REVISION_Pos              0U                                            /*!< SCB 
 416:C:/Users/±è°æ¹Î/Desktop/IFX_S2GL-HW-SW_V1.1.3/Firmware_Software/DAVE project/S2GL_Doppler/Libraries/CMSIS/Include\core_cm0.h **** #define SCB_CPUID_REVISION_Msk             (0xFUL /*<< SCB_CPUID_REVISION_Pos*/)          /*!< SCB 
 417:C:/Users/±è°æ¹Î/Desktop/IFX_S2GL-HW-SW_V1.1.3/Firmware_Software/DAVE project/S2GL_Doppler/Libraries/CMSIS/Include\core_cm0.h **** 
 418:C:/Users/±è°æ¹Î/Desktop/IFX_S2GL-HW-SW_V1.1.3/Firmware_Software/DAVE project/S2GL_Doppler/Libraries/CMSIS/Include\core_cm0.h **** /* SCB Interrupt Control State Register Definitions */
 419:C:/Users/±è°æ¹Î/Desktop/IFX_S2GL-HW-SW_V1.1.3/Firmware_Software/DAVE project/S2GL_Doppler/Libraries/CMSIS/Include\core_cm0.h **** #define SCB_ICSR_NMIPENDSET_Pos            31U                                            /*!< SCB 
 420:C:/Users/±è°æ¹Î/Desktop/IFX_S2GL-HW-SW_V1.1.3/Firmware_Software/DAVE project/S2GL_Doppler/Libraries/CMSIS/Include\core_cm0.h **** #define SCB_ICSR_NMIPENDSET_Msk            (1UL << SCB_ICSR_NMIPENDSET_Pos)               /*!< SCB 
 421:C:/Users/±è°æ¹Î/Desktop/IFX_S2GL-HW-SW_V1.1.3/Firmware_Software/DAVE project/S2GL_Doppler/Libraries/CMSIS/Include\core_cm0.h **** 
 422:C:/Users/±è°æ¹Î/Desktop/IFX_S2GL-HW-SW_V1.1.3/Firmware_Software/DAVE project/S2GL_Doppler/Libraries/CMSIS/Include\core_cm0.h **** #define SCB_ICSR_PENDSVSET_Pos             28U                                            /*!< SCB 
 423:C:/Users/±è°æ¹Î/Desktop/IFX_S2GL-HW-SW_V1.1.3/Firmware_Software/DAVE project/S2GL_Doppler/Libraries/CMSIS/Include\core_cm0.h **** #define SCB_ICSR_PENDSVSET_Msk             (1UL << SCB_ICSR_PENDSVSET_Pos)                /*!< SCB 
 424:C:/Users/±è°æ¹Î/Desktop/IFX_S2GL-HW-SW_V1.1.3/Firmware_Software/DAVE project/S2GL_Doppler/Libraries/CMSIS/Include\core_cm0.h **** 
 425:C:/Users/±è°æ¹Î/Desktop/IFX_S2GL-HW-SW_V1.1.3/Firmware_Software/DAVE project/S2GL_Doppler/Libraries/CMSIS/Include\core_cm0.h **** #define SCB_ICSR_PENDSVCLR_Pos             27U                                            /*!< SCB 
 426:C:/Users/±è°æ¹Î/Desktop/IFX_S2GL-HW-SW_V1.1.3/Firmware_Software/DAVE project/S2GL_Doppler/Libraries/CMSIS/Include\core_cm0.h **** #define SCB_ICSR_PENDSVCLR_Msk             (1UL << SCB_ICSR_PENDSVCLR_Pos)                /*!< SCB 
 427:C:/Users/±è°æ¹Î/Desktop/IFX_S2GL-HW-SW_V1.1.3/Firmware_Software/DAVE project/S2GL_Doppler/Libraries/CMSIS/Include\core_cm0.h **** 
 428:C:/Users/±è°æ¹Î/Desktop/IFX_S2GL-HW-SW_V1.1.3/Firmware_Software/DAVE project/S2GL_Doppler/Libraries/CMSIS/Include\core_cm0.h **** #define SCB_ICSR_PENDSTSET_Pos             26U                                            /*!< SCB 
 429:C:/Users/±è°æ¹Î/Desktop/IFX_S2GL-HW-SW_V1.1.3/Firmware_Software/DAVE project/S2GL_Doppler/Libraries/CMSIS/Include\core_cm0.h **** #define SCB_ICSR_PENDSTSET_Msk             (1UL << SCB_ICSR_PENDSTSET_Pos)                /*!< SCB 
 430:C:/Users/±è°æ¹Î/Desktop/IFX_S2GL-HW-SW_V1.1.3/Firmware_Software/DAVE project/S2GL_Doppler/Libraries/CMSIS/Include\core_cm0.h **** 
 431:C:/Users/±è°æ¹Î/Desktop/IFX_S2GL-HW-SW_V1.1.3/Firmware_Software/DAVE project/S2GL_Doppler/Libraries/CMSIS/Include\core_cm0.h **** #define SCB_ICSR_PENDSTCLR_Pos             25U                                            /*!< SCB 
 432:C:/Users/±è°æ¹Î/Desktop/IFX_S2GL-HW-SW_V1.1.3/Firmware_Software/DAVE project/S2GL_Doppler/Libraries/CMSIS/Include\core_cm0.h **** #define SCB_ICSR_PENDSTCLR_Msk             (1UL << SCB_ICSR_PENDSTCLR_Pos)                /*!< SCB 
 433:C:/Users/±è°æ¹Î/Desktop/IFX_S2GL-HW-SW_V1.1.3/Firmware_Software/DAVE project/S2GL_Doppler/Libraries/CMSIS/Include\core_cm0.h **** 
 434:C:/Users/±è°æ¹Î/Desktop/IFX_S2GL-HW-SW_V1.1.3/Firmware_Software/DAVE project/S2GL_Doppler/Libraries/CMSIS/Include\core_cm0.h **** #define SCB_ICSR_ISRPREEMPT_Pos            23U                                            /*!< SCB 
 435:C:/Users/±è°æ¹Î/Desktop/IFX_S2GL-HW-SW_V1.1.3/Firmware_Software/DAVE project/S2GL_Doppler/Libraries/CMSIS/Include\core_cm0.h **** #define SCB_ICSR_ISRPREEMPT_Msk            (1UL << SCB_ICSR_ISRPREEMPT_Pos)               /*!< SCB 
 436:C:/Users/±è°æ¹Î/Desktop/IFX_S2GL-HW-SW_V1.1.3/Firmware_Software/DAVE project/S2GL_Doppler/Libraries/CMSIS/Include\core_cm0.h **** 
 437:C:/Users/±è°æ¹Î/Desktop/IFX_S2GL-HW-SW_V1.1.3/Firmware_Software/DAVE project/S2GL_Doppler/Libraries/CMSIS/Include\core_cm0.h **** #define SCB_ICSR_ISRPENDING_Pos            22U                                            /*!< SCB 
 438:C:/Users/±è°æ¹Î/Desktop/IFX_S2GL-HW-SW_V1.1.3/Firmware_Software/DAVE project/S2GL_Doppler/Libraries/CMSIS/Include\core_cm0.h **** #define SCB_ICSR_ISRPENDING_Msk            (1UL << SCB_ICSR_ISRPENDING_Pos)               /*!< SCB 
 439:C:/Users/±è°æ¹Î/Desktop/IFX_S2GL-HW-SW_V1.1.3/Firmware_Software/DAVE project/S2GL_Doppler/Libraries/CMSIS/Include\core_cm0.h **** 
 440:C:/Users/±è°æ¹Î/Desktop/IFX_S2GL-HW-SW_V1.1.3/Firmware_Software/DAVE project/S2GL_Doppler/Libraries/CMSIS/Include\core_cm0.h **** #define SCB_ICSR_VECTPENDING_Pos           12U                                            /*!< SCB 
 441:C:/Users/±è°æ¹Î/Desktop/IFX_S2GL-HW-SW_V1.1.3/Firmware_Software/DAVE project/S2GL_Doppler/Libraries/CMSIS/Include\core_cm0.h **** #define SCB_ICSR_VECTPENDING_Msk           (0x1FFUL << SCB_ICSR_VECTPENDING_Pos)          /*!< SCB 
 442:C:/Users/±è°æ¹Î/Desktop/IFX_S2GL-HW-SW_V1.1.3/Firmware_Software/DAVE project/S2GL_Doppler/Libraries/CMSIS/Include\core_cm0.h **** 
 443:C:/Users/±è°æ¹Î/Desktop/IFX_S2GL-HW-SW_V1.1.3/Firmware_Software/DAVE project/S2GL_Doppler/Libraries/CMSIS/Include\core_cm0.h **** #define SCB_ICSR_VECTACTIVE_Pos             0U                                            /*!< SCB 
 444:C:/Users/±è°æ¹Î/Desktop/IFX_S2GL-HW-SW_V1.1.3/Firmware_Software/DAVE project/S2GL_Doppler/Libraries/CMSIS/Include\core_cm0.h **** #define SCB_ICSR_VECTACTIVE_Msk            (0x1FFUL /*<< SCB_ICSR_VECTACTIVE_Pos*/)       /*!< SCB 
 445:C:/Users/±è°æ¹Î/Desktop/IFX_S2GL-HW-SW_V1.1.3/Firmware_Software/DAVE project/S2GL_Doppler/Libraries/CMSIS/Include\core_cm0.h **** 
 446:C:/Users/±è°æ¹Î/Desktop/IFX_S2GL-HW-SW_V1.1.3/Firmware_Software/DAVE project/S2GL_Doppler/Libraries/CMSIS/Include\core_cm0.h **** /* SCB Application Interrupt and Reset Control Register Definitions */
 447:C:/Users/±è°æ¹Î/Desktop/IFX_S2GL-HW-SW_V1.1.3/Firmware_Software/DAVE project/S2GL_Doppler/Libraries/CMSIS/Include\core_cm0.h **** #define SCB_AIRCR_VECTKEY_Pos              16U                                            /*!< SCB 
 448:C:/Users/±è°æ¹Î/Desktop/IFX_S2GL-HW-SW_V1.1.3/Firmware_Software/DAVE project/S2GL_Doppler/Libraries/CMSIS/Include\core_cm0.h **** #define SCB_AIRCR_VECTKEY_Msk              (0xFFFFUL << SCB_AIRCR_VECTKEY_Pos)            /*!< SCB 
 449:C:/Users/±è°æ¹Î/Desktop/IFX_S2GL-HW-SW_V1.1.3/Firmware_Software/DAVE project/S2GL_Doppler/Libraries/CMSIS/Include\core_cm0.h **** 
 450:C:/Users/±è°æ¹Î/Desktop/IFX_S2GL-HW-SW_V1.1.3/Firmware_Software/DAVE project/S2GL_Doppler/Libraries/CMSIS/Include\core_cm0.h **** #define SCB_AIRCR_VECTKEYSTAT_Pos          16U                                            /*!< SCB 
 451:C:/Users/±è°æ¹Î/Desktop/IFX_S2GL-HW-SW_V1.1.3/Firmware_Software/DAVE project/S2GL_Doppler/Libraries/CMSIS/Include\core_cm0.h **** #define SCB_AIRCR_VECTKEYSTAT_Msk          (0xFFFFUL << SCB_AIRCR_VECTKEYSTAT_Pos)        /*!< SCB 
 452:C:/Users/±è°æ¹Î/Desktop/IFX_S2GL-HW-SW_V1.1.3/Firmware_Software/DAVE project/S2GL_Doppler/Libraries/CMSIS/Include\core_cm0.h **** 
 453:C:/Users/±è°æ¹Î/Desktop/IFX_S2GL-HW-SW_V1.1.3/Firmware_Software/DAVE project/S2GL_Doppler/Libraries/CMSIS/Include\core_cm0.h **** #define SCB_AIRCR_ENDIANESS_Pos            15U                                            /*!< SCB 
 454:C:/Users/±è°æ¹Î/Desktop/IFX_S2GL-HW-SW_V1.1.3/Firmware_Software/DAVE project/S2GL_Doppler/Libraries/CMSIS/Include\core_cm0.h **** #define SCB_AIRCR_ENDIANESS_Msk            (1UL << SCB_AIRCR_ENDIANESS_Pos)               /*!< SCB 
 455:C:/Users/±è°æ¹Î/Desktop/IFX_S2GL-HW-SW_V1.1.3/Firmware_Software/DAVE project/S2GL_Doppler/Libraries/CMSIS/Include\core_cm0.h **** 
 456:C:/Users/±è°æ¹Î/Desktop/IFX_S2GL-HW-SW_V1.1.3/Firmware_Software/DAVE project/S2GL_Doppler/Libraries/CMSIS/Include\core_cm0.h **** #define SCB_AIRCR_SYSRESETREQ_Pos           2U                                            /*!< SCB 
 457:C:/Users/±è°æ¹Î/Desktop/IFX_S2GL-HW-SW_V1.1.3/Firmware_Software/DAVE project/S2GL_Doppler/Libraries/CMSIS/Include\core_cm0.h **** #define SCB_AIRCR_SYSRESETREQ_Msk          (1UL << SCB_AIRCR_SYSRESETREQ_Pos)             /*!< SCB 
 458:C:/Users/±è°æ¹Î/Desktop/IFX_S2GL-HW-SW_V1.1.3/Firmware_Software/DAVE project/S2GL_Doppler/Libraries/CMSIS/Include\core_cm0.h **** 
 459:C:/Users/±è°æ¹Î/Desktop/IFX_S2GL-HW-SW_V1.1.3/Firmware_Software/DAVE project/S2GL_Doppler/Libraries/CMSIS/Include\core_cm0.h **** #define SCB_AIRCR_VECTCLRACTIVE_Pos         1U                                            /*!< SCB 
 460:C:/Users/±è°æ¹Î/Desktop/IFX_S2GL-HW-SW_V1.1.3/Firmware_Software/DAVE project/S2GL_Doppler/Libraries/CMSIS/Include\core_cm0.h **** #define SCB_AIRCR_VECTCLRACTIVE_Msk        (1UL << SCB_AIRCR_VECTCLRACTIVE_Pos)           /*!< SCB 
 461:C:/Users/±è°æ¹Î/Desktop/IFX_S2GL-HW-SW_V1.1.3/Firmware_Software/DAVE project/S2GL_Doppler/Libraries/CMSIS/Include\core_cm0.h **** 
 462:C:/Users/±è°æ¹Î/Desktop/IFX_S2GL-HW-SW_V1.1.3/Firmware_Software/DAVE project/S2GL_Doppler/Libraries/CMSIS/Include\core_cm0.h **** /* SCB System Control Register Definitions */
 463:C:/Users/±è°æ¹Î/Desktop/IFX_S2GL-HW-SW_V1.1.3/Firmware_Software/DAVE project/S2GL_Doppler/Libraries/CMSIS/Include\core_cm0.h **** #define SCB_SCR_SEVONPEND_Pos               4U                                            /*!< SCB 
 464:C:/Users/±è°æ¹Î/Desktop/IFX_S2GL-HW-SW_V1.1.3/Firmware_Software/DAVE project/S2GL_Doppler/Libraries/CMSIS/Include\core_cm0.h **** #define SCB_SCR_SEVONPEND_Msk              (1UL << SCB_SCR_SEVONPEND_Pos)                 /*!< SCB 
 465:C:/Users/±è°æ¹Î/Desktop/IFX_S2GL-HW-SW_V1.1.3/Firmware_Software/DAVE project/S2GL_Doppler/Libraries/CMSIS/Include\core_cm0.h **** 
 466:C:/Users/±è°æ¹Î/Desktop/IFX_S2GL-HW-SW_V1.1.3/Firmware_Software/DAVE project/S2GL_Doppler/Libraries/CMSIS/Include\core_cm0.h **** #define SCB_SCR_SLEEPDEEP_Pos               2U                                            /*!< SCB 
 467:C:/Users/±è°æ¹Î/Desktop/IFX_S2GL-HW-SW_V1.1.3/Firmware_Software/DAVE project/S2GL_Doppler/Libraries/CMSIS/Include\core_cm0.h **** #define SCB_SCR_SLEEPDEEP_Msk              (1UL << SCB_SCR_SLEEPDEEP_Pos)                 /*!< SCB 
 468:C:/Users/±è°æ¹Î/Desktop/IFX_S2GL-HW-SW_V1.1.3/Firmware_Software/DAVE project/S2GL_Doppler/Libraries/CMSIS/Include\core_cm0.h **** 
 469:C:/Users/±è°æ¹Î/Desktop/IFX_S2GL-HW-SW_V1.1.3/Firmware_Software/DAVE project/S2GL_Doppler/Libraries/CMSIS/Include\core_cm0.h **** #define SCB_SCR_SLEEPONEXIT_Pos             1U                                            /*!< SCB 
 470:C:/Users/±è°æ¹Î/Desktop/IFX_S2GL-HW-SW_V1.1.3/Firmware_Software/DAVE project/S2GL_Doppler/Libraries/CMSIS/Include\core_cm0.h **** #define SCB_SCR_SLEEPONEXIT_Msk            (1UL << SCB_SCR_SLEEPONEXIT_Pos)               /*!< SCB 
 471:C:/Users/±è°æ¹Î/Desktop/IFX_S2GL-HW-SW_V1.1.3/Firmware_Software/DAVE project/S2GL_Doppler/Libraries/CMSIS/Include\core_cm0.h **** 
 472:C:/Users/±è°æ¹Î/Desktop/IFX_S2GL-HW-SW_V1.1.3/Firmware_Software/DAVE project/S2GL_Doppler/Libraries/CMSIS/Include\core_cm0.h **** /* SCB Configuration Control Register Definitions */
 473:C:/Users/±è°æ¹Î/Desktop/IFX_S2GL-HW-SW_V1.1.3/Firmware_Software/DAVE project/S2GL_Doppler/Libraries/CMSIS/Include\core_cm0.h **** #define SCB_CCR_STKALIGN_Pos                9U                                            /*!< SCB 
 474:C:/Users/±è°æ¹Î/Desktop/IFX_S2GL-HW-SW_V1.1.3/Firmware_Software/DAVE project/S2GL_Doppler/Libraries/CMSIS/Include\core_cm0.h **** #define SCB_CCR_STKALIGN_Msk               (1UL << SCB_CCR_STKALIGN_Pos)                  /*!< SCB 
 475:C:/Users/±è°æ¹Î/Desktop/IFX_S2GL-HW-SW_V1.1.3/Firmware_Software/DAVE project/S2GL_Doppler/Libraries/CMSIS/Include\core_cm0.h **** 
 476:C:/Users/±è°æ¹Î/Desktop/IFX_S2GL-HW-SW_V1.1.3/Firmware_Software/DAVE project/S2GL_Doppler/Libraries/CMSIS/Include\core_cm0.h **** #define SCB_CCR_UNALIGN_TRP_Pos             3U                                            /*!< SCB 
 477:C:/Users/±è°æ¹Î/Desktop/IFX_S2GL-HW-SW_V1.1.3/Firmware_Software/DAVE project/S2GL_Doppler/Libraries/CMSIS/Include\core_cm0.h **** #define SCB_CCR_UNALIGN_TRP_Msk            (1UL << SCB_CCR_UNALIGN_TRP_Pos)               /*!< SCB 
 478:C:/Users/±è°æ¹Î/Desktop/IFX_S2GL-HW-SW_V1.1.3/Firmware_Software/DAVE project/S2GL_Doppler/Libraries/CMSIS/Include\core_cm0.h **** 
 479:C:/Users/±è°æ¹Î/Desktop/IFX_S2GL-HW-SW_V1.1.3/Firmware_Software/DAVE project/S2GL_Doppler/Libraries/CMSIS/Include\core_cm0.h **** /* SCB System Handler Control and State Register Definitions */
 480:C:/Users/±è°æ¹Î/Desktop/IFX_S2GL-HW-SW_V1.1.3/Firmware_Software/DAVE project/S2GL_Doppler/Libraries/CMSIS/Include\core_cm0.h **** #define SCB_SHCSR_SVCALLPENDED_Pos         15U                                            /*!< SCB 
 481:C:/Users/±è°æ¹Î/Desktop/IFX_S2GL-HW-SW_V1.1.3/Firmware_Software/DAVE project/S2GL_Doppler/Libraries/CMSIS/Include\core_cm0.h **** #define SCB_SHCSR_SVCALLPENDED_Msk         (1UL << SCB_SHCSR_SVCALLPENDED_Pos)            /*!< SCB 
 482:C:/Users/±è°æ¹Î/Desktop/IFX_S2GL-HW-SW_V1.1.3/Firmware_Software/DAVE project/S2GL_Doppler/Libraries/CMSIS/Include\core_cm0.h **** 
 483:C:/Users/±è°æ¹Î/Desktop/IFX_S2GL-HW-SW_V1.1.3/Firmware_Software/DAVE project/S2GL_Doppler/Libraries/CMSIS/Include\core_cm0.h **** /*@} end of group CMSIS_SCB */
 484:C:/Users/±è°æ¹Î/Desktop/IFX_S2GL-HW-SW_V1.1.3/Firmware_Software/DAVE project/S2GL_Doppler/Libraries/CMSIS/Include\core_cm0.h **** 
 485:C:/Users/±è°æ¹Î/Desktop/IFX_S2GL-HW-SW_V1.1.3/Firmware_Software/DAVE project/S2GL_Doppler/Libraries/CMSIS/Include\core_cm0.h **** 
 486:C:/Users/±è°æ¹Î/Desktop/IFX_S2GL-HW-SW_V1.1.3/Firmware_Software/DAVE project/S2GL_Doppler/Libraries/CMSIS/Include\core_cm0.h **** /**
 487:C:/Users/±è°æ¹Î/Desktop/IFX_S2GL-HW-SW_V1.1.3/Firmware_Software/DAVE project/S2GL_Doppler/Libraries/CMSIS/Include\core_cm0.h ****   \ingroup  CMSIS_core_register
 488:C:/Users/±è°æ¹Î/Desktop/IFX_S2GL-HW-SW_V1.1.3/Firmware_Software/DAVE project/S2GL_Doppler/Libraries/CMSIS/Include\core_cm0.h ****   \defgroup CMSIS_SysTick     System Tick Timer (SysTick)
 489:C:/Users/±è°æ¹Î/Desktop/IFX_S2GL-HW-SW_V1.1.3/Firmware_Software/DAVE project/S2GL_Doppler/Libraries/CMSIS/Include\core_cm0.h ****   \brief    Type definitions for the System Timer Registers.
 490:C:/Users/±è°æ¹Î/Desktop/IFX_S2GL-HW-SW_V1.1.3/Firmware_Software/DAVE project/S2GL_Doppler/Libraries/CMSIS/Include\core_cm0.h ****   @{
 491:C:/Users/±è°æ¹Î/Desktop/IFX_S2GL-HW-SW_V1.1.3/Firmware_Software/DAVE project/S2GL_Doppler/Libraries/CMSIS/Include\core_cm0.h ****  */
 492:C:/Users/±è°æ¹Î/Desktop/IFX_S2GL-HW-SW_V1.1.3/Firmware_Software/DAVE project/S2GL_Doppler/Libraries/CMSIS/Include\core_cm0.h **** 
 493:C:/Users/±è°æ¹Î/Desktop/IFX_S2GL-HW-SW_V1.1.3/Firmware_Software/DAVE project/S2GL_Doppler/Libraries/CMSIS/Include\core_cm0.h **** /**
 494:C:/Users/±è°æ¹Î/Desktop/IFX_S2GL-HW-SW_V1.1.3/Firmware_Software/DAVE project/S2GL_Doppler/Libraries/CMSIS/Include\core_cm0.h ****   \brief  Structure type to access the System Timer (SysTick).
 495:C:/Users/±è°æ¹Î/Desktop/IFX_S2GL-HW-SW_V1.1.3/Firmware_Software/DAVE project/S2GL_Doppler/Libraries/CMSIS/Include\core_cm0.h ****  */
 496:C:/Users/±è°æ¹Î/Desktop/IFX_S2GL-HW-SW_V1.1.3/Firmware_Software/DAVE project/S2GL_Doppler/Libraries/CMSIS/Include\core_cm0.h **** typedef struct
 497:C:/Users/±è°æ¹Î/Desktop/IFX_S2GL-HW-SW_V1.1.3/Firmware_Software/DAVE project/S2GL_Doppler/Libraries/CMSIS/Include\core_cm0.h **** {
 498:C:/Users/±è°æ¹Î/Desktop/IFX_S2GL-HW-SW_V1.1.3/Firmware_Software/DAVE project/S2GL_Doppler/Libraries/CMSIS/Include\core_cm0.h ****   __IOM uint32_t CTRL;                   /*!< Offset: 0x000 (R/W)  SysTick Control and Status Regis
 499:C:/Users/±è°æ¹Î/Desktop/IFX_S2GL-HW-SW_V1.1.3/Firmware_Software/DAVE project/S2GL_Doppler/Libraries/CMSIS/Include\core_cm0.h ****   __IOM uint32_t LOAD;                   /*!< Offset: 0x004 (R/W)  SysTick Reload Value Register */
 500:C:/Users/±è°æ¹Î/Desktop/IFX_S2GL-HW-SW_V1.1.3/Firmware_Software/DAVE project/S2GL_Doppler/Libraries/CMSIS/Include\core_cm0.h ****   __IOM uint32_t VAL;                    /*!< Offset: 0x008 (R/W)  SysTick Current Value Register *
 501:C:/Users/±è°æ¹Î/Desktop/IFX_S2GL-HW-SW_V1.1.3/Firmware_Software/DAVE project/S2GL_Doppler/Libraries/CMSIS/Include\core_cm0.h ****   __IM  uint32_t CALIB;                  /*!< Offset: 0x00C (R/ )  SysTick Calibration Register */
 502:C:/Users/±è°æ¹Î/Desktop/IFX_S2GL-HW-SW_V1.1.3/Firmware_Software/DAVE project/S2GL_Doppler/Libraries/CMSIS/Include\core_cm0.h **** } SysTick_Type;
 503:C:/Users/±è°æ¹Î/Desktop/IFX_S2GL-HW-SW_V1.1.3/Firmware_Software/DAVE project/S2GL_Doppler/Libraries/CMSIS/Include\core_cm0.h **** 
 504:C:/Users/±è°æ¹Î/Desktop/IFX_S2GL-HW-SW_V1.1.3/Firmware_Software/DAVE project/S2GL_Doppler/Libraries/CMSIS/Include\core_cm0.h **** /* SysTick Control / Status Register Definitions */
 505:C:/Users/±è°æ¹Î/Desktop/IFX_S2GL-HW-SW_V1.1.3/Firmware_Software/DAVE project/S2GL_Doppler/Libraries/CMSIS/Include\core_cm0.h **** #define SysTick_CTRL_COUNTFLAG_Pos         16U                                            /*!< SysT
 506:C:/Users/±è°æ¹Î/Desktop/IFX_S2GL-HW-SW_V1.1.3/Firmware_Software/DAVE project/S2GL_Doppler/Libraries/CMSIS/Include\core_cm0.h **** #define SysTick_CTRL_COUNTFLAG_Msk         (1UL << SysTick_CTRL_COUNTFLAG_Pos)            /*!< SysT
 507:C:/Users/±è°æ¹Î/Desktop/IFX_S2GL-HW-SW_V1.1.3/Firmware_Software/DAVE project/S2GL_Doppler/Libraries/CMSIS/Include\core_cm0.h **** 
 508:C:/Users/±è°æ¹Î/Desktop/IFX_S2GL-HW-SW_V1.1.3/Firmware_Software/DAVE project/S2GL_Doppler/Libraries/CMSIS/Include\core_cm0.h **** #define SysTick_CTRL_CLKSOURCE_Pos          2U                                            /*!< SysT
 509:C:/Users/±è°æ¹Î/Desktop/IFX_S2GL-HW-SW_V1.1.3/Firmware_Software/DAVE project/S2GL_Doppler/Libraries/CMSIS/Include\core_cm0.h **** #define SysTick_CTRL_CLKSOURCE_Msk         (1UL << SysTick_CTRL_CLKSOURCE_Pos)            /*!< SysT
 510:C:/Users/±è°æ¹Î/Desktop/IFX_S2GL-HW-SW_V1.1.3/Firmware_Software/DAVE project/S2GL_Doppler/Libraries/CMSIS/Include\core_cm0.h **** 
 511:C:/Users/±è°æ¹Î/Desktop/IFX_S2GL-HW-SW_V1.1.3/Firmware_Software/DAVE project/S2GL_Doppler/Libraries/CMSIS/Include\core_cm0.h **** #define SysTick_CTRL_TICKINT_Pos            1U                                            /*!< SysT
 512:C:/Users/±è°æ¹Î/Desktop/IFX_S2GL-HW-SW_V1.1.3/Firmware_Software/DAVE project/S2GL_Doppler/Libraries/CMSIS/Include\core_cm0.h **** #define SysTick_CTRL_TICKINT_Msk           (1UL << SysTick_CTRL_TICKINT_Pos)              /*!< SysT
 513:C:/Users/±è°æ¹Î/Desktop/IFX_S2GL-HW-SW_V1.1.3/Firmware_Software/DAVE project/S2GL_Doppler/Libraries/CMSIS/Include\core_cm0.h **** 
 514:C:/Users/±è°æ¹Î/Desktop/IFX_S2GL-HW-SW_V1.1.3/Firmware_Software/DAVE project/S2GL_Doppler/Libraries/CMSIS/Include\core_cm0.h **** #define SysTick_CTRL_ENABLE_Pos             0U                                            /*!< SysT
 515:C:/Users/±è°æ¹Î/Desktop/IFX_S2GL-HW-SW_V1.1.3/Firmware_Software/DAVE project/S2GL_Doppler/Libraries/CMSIS/Include\core_cm0.h **** #define SysTick_CTRL_ENABLE_Msk            (1UL /*<< SysTick_CTRL_ENABLE_Pos*/)           /*!< SysT
 516:C:/Users/±è°æ¹Î/Desktop/IFX_S2GL-HW-SW_V1.1.3/Firmware_Software/DAVE project/S2GL_Doppler/Libraries/CMSIS/Include\core_cm0.h **** 
 517:C:/Users/±è°æ¹Î/Desktop/IFX_S2GL-HW-SW_V1.1.3/Firmware_Software/DAVE project/S2GL_Doppler/Libraries/CMSIS/Include\core_cm0.h **** /* SysTick Reload Register Definitions */
 518:C:/Users/±è°æ¹Î/Desktop/IFX_S2GL-HW-SW_V1.1.3/Firmware_Software/DAVE project/S2GL_Doppler/Libraries/CMSIS/Include\core_cm0.h **** #define SysTick_LOAD_RELOAD_Pos             0U                                            /*!< SysT
 519:C:/Users/±è°æ¹Î/Desktop/IFX_S2GL-HW-SW_V1.1.3/Firmware_Software/DAVE project/S2GL_Doppler/Libraries/CMSIS/Include\core_cm0.h **** #define SysTick_LOAD_RELOAD_Msk            (0xFFFFFFUL /*<< SysTick_LOAD_RELOAD_Pos*/)    /*!< SysT
 520:C:/Users/±è°æ¹Î/Desktop/IFX_S2GL-HW-SW_V1.1.3/Firmware_Software/DAVE project/S2GL_Doppler/Libraries/CMSIS/Include\core_cm0.h **** 
 521:C:/Users/±è°æ¹Î/Desktop/IFX_S2GL-HW-SW_V1.1.3/Firmware_Software/DAVE project/S2GL_Doppler/Libraries/CMSIS/Include\core_cm0.h **** /* SysTick Current Register Definitions */
 522:C:/Users/±è°æ¹Î/Desktop/IFX_S2GL-HW-SW_V1.1.3/Firmware_Software/DAVE project/S2GL_Doppler/Libraries/CMSIS/Include\core_cm0.h **** #define SysTick_VAL_CURRENT_Pos             0U                                            /*!< SysT
 523:C:/Users/±è°æ¹Î/Desktop/IFX_S2GL-HW-SW_V1.1.3/Firmware_Software/DAVE project/S2GL_Doppler/Libraries/CMSIS/Include\core_cm0.h **** #define SysTick_VAL_CURRENT_Msk            (0xFFFFFFUL /*<< SysTick_VAL_CURRENT_Pos*/)    /*!< SysT
 524:C:/Users/±è°æ¹Î/Desktop/IFX_S2GL-HW-SW_V1.1.3/Firmware_Software/DAVE project/S2GL_Doppler/Libraries/CMSIS/Include\core_cm0.h **** 
 525:C:/Users/±è°æ¹Î/Desktop/IFX_S2GL-HW-SW_V1.1.3/Firmware_Software/DAVE project/S2GL_Doppler/Libraries/CMSIS/Include\core_cm0.h **** /* SysTick Calibration Register Definitions */
 526:C:/Users/±è°æ¹Î/Desktop/IFX_S2GL-HW-SW_V1.1.3/Firmware_Software/DAVE project/S2GL_Doppler/Libraries/CMSIS/Include\core_cm0.h **** #define SysTick_CALIB_NOREF_Pos            31U                                            /*!< SysT
 527:C:/Users/±è°æ¹Î/Desktop/IFX_S2GL-HW-SW_V1.1.3/Firmware_Software/DAVE project/S2GL_Doppler/Libraries/CMSIS/Include\core_cm0.h **** #define SysTick_CALIB_NOREF_Msk            (1UL << SysTick_CALIB_NOREF_Pos)               /*!< SysT
 528:C:/Users/±è°æ¹Î/Desktop/IFX_S2GL-HW-SW_V1.1.3/Firmware_Software/DAVE project/S2GL_Doppler/Libraries/CMSIS/Include\core_cm0.h **** 
 529:C:/Users/±è°æ¹Î/Desktop/IFX_S2GL-HW-SW_V1.1.3/Firmware_Software/DAVE project/S2GL_Doppler/Libraries/CMSIS/Include\core_cm0.h **** #define SysTick_CALIB_SKEW_Pos             30U                                            /*!< SysT
 530:C:/Users/±è°æ¹Î/Desktop/IFX_S2GL-HW-SW_V1.1.3/Firmware_Software/DAVE project/S2GL_Doppler/Libraries/CMSIS/Include\core_cm0.h **** #define SysTick_CALIB_SKEW_Msk             (1UL << SysTick_CALIB_SKEW_Pos)                /*!< SysT
 531:C:/Users/±è°æ¹Î/Desktop/IFX_S2GL-HW-SW_V1.1.3/Firmware_Software/DAVE project/S2GL_Doppler/Libraries/CMSIS/Include\core_cm0.h **** 
 532:C:/Users/±è°æ¹Î/Desktop/IFX_S2GL-HW-SW_V1.1.3/Firmware_Software/DAVE project/S2GL_Doppler/Libraries/CMSIS/Include\core_cm0.h **** #define SysTick_CALIB_TENMS_Pos             0U                                            /*!< SysT
 533:C:/Users/±è°æ¹Î/Desktop/IFX_S2GL-HW-SW_V1.1.3/Firmware_Software/DAVE project/S2GL_Doppler/Libraries/CMSIS/Include\core_cm0.h **** #define SysTick_CALIB_TENMS_Msk            (0xFFFFFFUL /*<< SysTick_CALIB_TENMS_Pos*/)    /*!< SysT
 534:C:/Users/±è°æ¹Î/Desktop/IFX_S2GL-HW-SW_V1.1.3/Firmware_Software/DAVE project/S2GL_Doppler/Libraries/CMSIS/Include\core_cm0.h **** 
 535:C:/Users/±è°æ¹Î/Desktop/IFX_S2GL-HW-SW_V1.1.3/Firmware_Software/DAVE project/S2GL_Doppler/Libraries/CMSIS/Include\core_cm0.h **** /*@} end of group CMSIS_SysTick */
 536:C:/Users/±è°æ¹Î/Desktop/IFX_S2GL-HW-SW_V1.1.3/Firmware_Software/DAVE project/S2GL_Doppler/Libraries/CMSIS/Include\core_cm0.h **** 
 537:C:/Users/±è°æ¹Î/Desktop/IFX_S2GL-HW-SW_V1.1.3/Firmware_Software/DAVE project/S2GL_Doppler/Libraries/CMSIS/Include\core_cm0.h **** 
 538:C:/Users/±è°æ¹Î/Desktop/IFX_S2GL-HW-SW_V1.1.3/Firmware_Software/DAVE project/S2GL_Doppler/Libraries/CMSIS/Include\core_cm0.h **** /**
 539:C:/Users/±è°æ¹Î/Desktop/IFX_S2GL-HW-SW_V1.1.3/Firmware_Software/DAVE project/S2GL_Doppler/Libraries/CMSIS/Include\core_cm0.h ****   \ingroup  CMSIS_core_register
 540:C:/Users/±è°æ¹Î/Desktop/IFX_S2GL-HW-SW_V1.1.3/Firmware_Software/DAVE project/S2GL_Doppler/Libraries/CMSIS/Include\core_cm0.h ****   \defgroup CMSIS_CoreDebug       Core Debug Registers (CoreDebug)
 541:C:/Users/±è°æ¹Î/Desktop/IFX_S2GL-HW-SW_V1.1.3/Firmware_Software/DAVE project/S2GL_Doppler/Libraries/CMSIS/Include\core_cm0.h ****   \brief    Cortex-M0 Core Debug Registers (DCB registers, SHCSR, and DFSR) are only accessible ove
 542:C:/Users/±è°æ¹Î/Desktop/IFX_S2GL-HW-SW_V1.1.3/Firmware_Software/DAVE project/S2GL_Doppler/Libraries/CMSIS/Include\core_cm0.h ****             Therefore they are not covered by the Cortex-M0 header file.
 543:C:/Users/±è°æ¹Î/Desktop/IFX_S2GL-HW-SW_V1.1.3/Firmware_Software/DAVE project/S2GL_Doppler/Libraries/CMSIS/Include\core_cm0.h ****   @{
 544:C:/Users/±è°æ¹Î/Desktop/IFX_S2GL-HW-SW_V1.1.3/Firmware_Software/DAVE project/S2GL_Doppler/Libraries/CMSIS/Include\core_cm0.h ****  */
 545:C:/Users/±è°æ¹Î/Desktop/IFX_S2GL-HW-SW_V1.1.3/Firmware_Software/DAVE project/S2GL_Doppler/Libraries/CMSIS/Include\core_cm0.h **** /*@} end of group CMSIS_CoreDebug */
 546:C:/Users/±è°æ¹Î/Desktop/IFX_S2GL-HW-SW_V1.1.3/Firmware_Software/DAVE project/S2GL_Doppler/Libraries/CMSIS/Include\core_cm0.h **** 
 547:C:/Users/±è°æ¹Î/Desktop/IFX_S2GL-HW-SW_V1.1.3/Firmware_Software/DAVE project/S2GL_Doppler/Libraries/CMSIS/Include\core_cm0.h **** 
 548:C:/Users/±è°æ¹Î/Desktop/IFX_S2GL-HW-SW_V1.1.3/Firmware_Software/DAVE project/S2GL_Doppler/Libraries/CMSIS/Include\core_cm0.h **** /**
 549:C:/Users/±è°æ¹Î/Desktop/IFX_S2GL-HW-SW_V1.1.3/Firmware_Software/DAVE project/S2GL_Doppler/Libraries/CMSIS/Include\core_cm0.h ****   \ingroup    CMSIS_core_register
 550:C:/Users/±è°æ¹Î/Desktop/IFX_S2GL-HW-SW_V1.1.3/Firmware_Software/DAVE project/S2GL_Doppler/Libraries/CMSIS/Include\core_cm0.h ****   \defgroup   CMSIS_core_bitfield     Core register bit field macros
 551:C:/Users/±è°æ¹Î/Desktop/IFX_S2GL-HW-SW_V1.1.3/Firmware_Software/DAVE project/S2GL_Doppler/Libraries/CMSIS/Include\core_cm0.h ****   \brief      Macros for use with bit field definitions (xxx_Pos, xxx_Msk).
 552:C:/Users/±è°æ¹Î/Desktop/IFX_S2GL-HW-SW_V1.1.3/Firmware_Software/DAVE project/S2GL_Doppler/Libraries/CMSIS/Include\core_cm0.h ****   @{
 553:C:/Users/±è°æ¹Î/Desktop/IFX_S2GL-HW-SW_V1.1.3/Firmware_Software/DAVE project/S2GL_Doppler/Libraries/CMSIS/Include\core_cm0.h ****  */
 554:C:/Users/±è°æ¹Î/Desktop/IFX_S2GL-HW-SW_V1.1.3/Firmware_Software/DAVE project/S2GL_Doppler/Libraries/CMSIS/Include\core_cm0.h **** 
 555:C:/Users/±è°æ¹Î/Desktop/IFX_S2GL-HW-SW_V1.1.3/Firmware_Software/DAVE project/S2GL_Doppler/Libraries/CMSIS/Include\core_cm0.h **** /**
 556:C:/Users/±è°æ¹Î/Desktop/IFX_S2GL-HW-SW_V1.1.3/Firmware_Software/DAVE project/S2GL_Doppler/Libraries/CMSIS/Include\core_cm0.h ****   \brief   Mask and shift a bit field value for use in a register bit range.
 557:C:/Users/±è°æ¹Î/Desktop/IFX_S2GL-HW-SW_V1.1.3/Firmware_Software/DAVE project/S2GL_Doppler/Libraries/CMSIS/Include\core_cm0.h ****   \param[in] field  Name of the register bit field.
 558:C:/Users/±è°æ¹Î/Desktop/IFX_S2GL-HW-SW_V1.1.3/Firmware_Software/DAVE project/S2GL_Doppler/Libraries/CMSIS/Include\core_cm0.h ****   \param[in] value  Value of the bit field.
 559:C:/Users/±è°æ¹Î/Desktop/IFX_S2GL-HW-SW_V1.1.3/Firmware_Software/DAVE project/S2GL_Doppler/Libraries/CMSIS/Include\core_cm0.h ****   \return           Masked and shifted value.
 560:C:/Users/±è°æ¹Î/Desktop/IFX_S2GL-HW-SW_V1.1.3/Firmware_Software/DAVE project/S2GL_Doppler/Libraries/CMSIS/Include\core_cm0.h **** */
 561:C:/Users/±è°æ¹Î/Desktop/IFX_S2GL-HW-SW_V1.1.3/Firmware_Software/DAVE project/S2GL_Doppler/Libraries/CMSIS/Include\core_cm0.h **** #define _VAL2FLD(field, value)    ((value << field ## _Pos) & field ## _Msk)
 562:C:/Users/±è°æ¹Î/Desktop/IFX_S2GL-HW-SW_V1.1.3/Firmware_Software/DAVE project/S2GL_Doppler/Libraries/CMSIS/Include\core_cm0.h **** 
 563:C:/Users/±è°æ¹Î/Desktop/IFX_S2GL-HW-SW_V1.1.3/Firmware_Software/DAVE project/S2GL_Doppler/Libraries/CMSIS/Include\core_cm0.h **** /**
 564:C:/Users/±è°æ¹Î/Desktop/IFX_S2GL-HW-SW_V1.1.3/Firmware_Software/DAVE project/S2GL_Doppler/Libraries/CMSIS/Include\core_cm0.h ****   \brief     Mask and shift a register value to extract a bit filed value.
 565:C:/Users/±è°æ¹Î/Desktop/IFX_S2GL-HW-SW_V1.1.3/Firmware_Software/DAVE project/S2GL_Doppler/Libraries/CMSIS/Include\core_cm0.h ****   \param[in] field  Name of the register bit field.
 566:C:/Users/±è°æ¹Î/Desktop/IFX_S2GL-HW-SW_V1.1.3/Firmware_Software/DAVE project/S2GL_Doppler/Libraries/CMSIS/Include\core_cm0.h ****   \param[in] value  Value of register.
 567:C:/Users/±è°æ¹Î/Desktop/IFX_S2GL-HW-SW_V1.1.3/Firmware_Software/DAVE project/S2GL_Doppler/Libraries/CMSIS/Include\core_cm0.h ****   \return           Masked and shifted bit field value.
 568:C:/Users/±è°æ¹Î/Desktop/IFX_S2GL-HW-SW_V1.1.3/Firmware_Software/DAVE project/S2GL_Doppler/Libraries/CMSIS/Include\core_cm0.h **** */
 569:C:/Users/±è°æ¹Î/Desktop/IFX_S2GL-HW-SW_V1.1.3/Firmware_Software/DAVE project/S2GL_Doppler/Libraries/CMSIS/Include\core_cm0.h **** #define _FLD2VAL(field, value)    ((value & field ## _Msk) >> field ## _Pos)
 570:C:/Users/±è°æ¹Î/Desktop/IFX_S2GL-HW-SW_V1.1.3/Firmware_Software/DAVE project/S2GL_Doppler/Libraries/CMSIS/Include\core_cm0.h **** 
 571:C:/Users/±è°æ¹Î/Desktop/IFX_S2GL-HW-SW_V1.1.3/Firmware_Software/DAVE project/S2GL_Doppler/Libraries/CMSIS/Include\core_cm0.h **** /*@} end of group CMSIS_core_bitfield */
 572:C:/Users/±è°æ¹Î/Desktop/IFX_S2GL-HW-SW_V1.1.3/Firmware_Software/DAVE project/S2GL_Doppler/Libraries/CMSIS/Include\core_cm0.h **** 
 573:C:/Users/±è°æ¹Î/Desktop/IFX_S2GL-HW-SW_V1.1.3/Firmware_Software/DAVE project/S2GL_Doppler/Libraries/CMSIS/Include\core_cm0.h **** 
 574:C:/Users/±è°æ¹Î/Desktop/IFX_S2GL-HW-SW_V1.1.3/Firmware_Software/DAVE project/S2GL_Doppler/Libraries/CMSIS/Include\core_cm0.h **** /**
 575:C:/Users/±è°æ¹Î/Desktop/IFX_S2GL-HW-SW_V1.1.3/Firmware_Software/DAVE project/S2GL_Doppler/Libraries/CMSIS/Include\core_cm0.h ****   \ingroup    CMSIS_core_register
 576:C:/Users/±è°æ¹Î/Desktop/IFX_S2GL-HW-SW_V1.1.3/Firmware_Software/DAVE project/S2GL_Doppler/Libraries/CMSIS/Include\core_cm0.h ****   \defgroup   CMSIS_core_base     Core Definitions
 577:C:/Users/±è°æ¹Î/Desktop/IFX_S2GL-HW-SW_V1.1.3/Firmware_Software/DAVE project/S2GL_Doppler/Libraries/CMSIS/Include\core_cm0.h ****   \brief      Definitions for base addresses, unions, and structures.
 578:C:/Users/±è°æ¹Î/Desktop/IFX_S2GL-HW-SW_V1.1.3/Firmware_Software/DAVE project/S2GL_Doppler/Libraries/CMSIS/Include\core_cm0.h ****   @{
 579:C:/Users/±è°æ¹Î/Desktop/IFX_S2GL-HW-SW_V1.1.3/Firmware_Software/DAVE project/S2GL_Doppler/Libraries/CMSIS/Include\core_cm0.h ****  */
 580:C:/Users/±è°æ¹Î/Desktop/IFX_S2GL-HW-SW_V1.1.3/Firmware_Software/DAVE project/S2GL_Doppler/Libraries/CMSIS/Include\core_cm0.h **** 
 581:C:/Users/±è°æ¹Î/Desktop/IFX_S2GL-HW-SW_V1.1.3/Firmware_Software/DAVE project/S2GL_Doppler/Libraries/CMSIS/Include\core_cm0.h **** /* Memory mapping of Cortex-M0 Hardware */
 582:C:/Users/±è°æ¹Î/Desktop/IFX_S2GL-HW-SW_V1.1.3/Firmware_Software/DAVE project/S2GL_Doppler/Libraries/CMSIS/Include\core_cm0.h **** #define SCS_BASE            (0xE000E000UL)                            /*!< System Control Space Bas
 583:C:/Users/±è°æ¹Î/Desktop/IFX_S2GL-HW-SW_V1.1.3/Firmware_Software/DAVE project/S2GL_Doppler/Libraries/CMSIS/Include\core_cm0.h **** #define SysTick_BASE        (SCS_BASE +  0x0010UL)                    /*!< SysTick Base Address */
 584:C:/Users/±è°æ¹Î/Desktop/IFX_S2GL-HW-SW_V1.1.3/Firmware_Software/DAVE project/S2GL_Doppler/Libraries/CMSIS/Include\core_cm0.h **** #define NVIC_BASE           (SCS_BASE +  0x0100UL)                    /*!< NVIC Base Address */
 585:C:/Users/±è°æ¹Î/Desktop/IFX_S2GL-HW-SW_V1.1.3/Firmware_Software/DAVE project/S2GL_Doppler/Libraries/CMSIS/Include\core_cm0.h **** #define SCB_BASE            (SCS_BASE +  0x0D00UL)                    /*!< System Control Block Bas
 586:C:/Users/±è°æ¹Î/Desktop/IFX_S2GL-HW-SW_V1.1.3/Firmware_Software/DAVE project/S2GL_Doppler/Libraries/CMSIS/Include\core_cm0.h **** 
 587:C:/Users/±è°æ¹Î/Desktop/IFX_S2GL-HW-SW_V1.1.3/Firmware_Software/DAVE project/S2GL_Doppler/Libraries/CMSIS/Include\core_cm0.h **** #define SCB                 ((SCB_Type       *)     SCB_BASE      )   /*!< SCB configuration struct
 588:C:/Users/±è°æ¹Î/Desktop/IFX_S2GL-HW-SW_V1.1.3/Firmware_Software/DAVE project/S2GL_Doppler/Libraries/CMSIS/Include\core_cm0.h **** #define SysTick             ((SysTick_Type   *)     SysTick_BASE  )   /*!< SysTick configuration st
 589:C:/Users/±è°æ¹Î/Desktop/IFX_S2GL-HW-SW_V1.1.3/Firmware_Software/DAVE project/S2GL_Doppler/Libraries/CMSIS/Include\core_cm0.h **** #define NVIC                ((NVIC_Type      *)     NVIC_BASE     )   /*!< NVIC configuration struc
 590:C:/Users/±è°æ¹Î/Desktop/IFX_S2GL-HW-SW_V1.1.3/Firmware_Software/DAVE project/S2GL_Doppler/Libraries/CMSIS/Include\core_cm0.h **** 
 591:C:/Users/±è°æ¹Î/Desktop/IFX_S2GL-HW-SW_V1.1.3/Firmware_Software/DAVE project/S2GL_Doppler/Libraries/CMSIS/Include\core_cm0.h **** 
 592:C:/Users/±è°æ¹Î/Desktop/IFX_S2GL-HW-SW_V1.1.3/Firmware_Software/DAVE project/S2GL_Doppler/Libraries/CMSIS/Include\core_cm0.h **** /*@} */
 593:C:/Users/±è°æ¹Î/Desktop/IFX_S2GL-HW-SW_V1.1.3/Firmware_Software/DAVE project/S2GL_Doppler/Libraries/CMSIS/Include\core_cm0.h **** 
 594:C:/Users/±è°æ¹Î/Desktop/IFX_S2GL-HW-SW_V1.1.3/Firmware_Software/DAVE project/S2GL_Doppler/Libraries/CMSIS/Include\core_cm0.h **** 
 595:C:/Users/±è°æ¹Î/Desktop/IFX_S2GL-HW-SW_V1.1.3/Firmware_Software/DAVE project/S2GL_Doppler/Libraries/CMSIS/Include\core_cm0.h **** 
 596:C:/Users/±è°æ¹Î/Desktop/IFX_S2GL-HW-SW_V1.1.3/Firmware_Software/DAVE project/S2GL_Doppler/Libraries/CMSIS/Include\core_cm0.h **** /*******************************************************************************
 597:C:/Users/±è°æ¹Î/Desktop/IFX_S2GL-HW-SW_V1.1.3/Firmware_Software/DAVE project/S2GL_Doppler/Libraries/CMSIS/Include\core_cm0.h ****  *                Hardware Abstraction Layer
 598:C:/Users/±è°æ¹Î/Desktop/IFX_S2GL-HW-SW_V1.1.3/Firmware_Software/DAVE project/S2GL_Doppler/Libraries/CMSIS/Include\core_cm0.h ****   Core Function Interface contains:
 599:C:/Users/±è°æ¹Î/Desktop/IFX_S2GL-HW-SW_V1.1.3/Firmware_Software/DAVE project/S2GL_Doppler/Libraries/CMSIS/Include\core_cm0.h ****   - Core NVIC Functions
 600:C:/Users/±è°æ¹Î/Desktop/IFX_S2GL-HW-SW_V1.1.3/Firmware_Software/DAVE project/S2GL_Doppler/Libraries/CMSIS/Include\core_cm0.h ****   - Core SysTick Functions
 601:C:/Users/±è°æ¹Î/Desktop/IFX_S2GL-HW-SW_V1.1.3/Firmware_Software/DAVE project/S2GL_Doppler/Libraries/CMSIS/Include\core_cm0.h ****   - Core Register Access Functions
 602:C:/Users/±è°æ¹Î/Desktop/IFX_S2GL-HW-SW_V1.1.3/Firmware_Software/DAVE project/S2GL_Doppler/Libraries/CMSIS/Include\core_cm0.h ****  ******************************************************************************/
 603:C:/Users/±è°æ¹Î/Desktop/IFX_S2GL-HW-SW_V1.1.3/Firmware_Software/DAVE project/S2GL_Doppler/Libraries/CMSIS/Include\core_cm0.h **** /**
 604:C:/Users/±è°æ¹Î/Desktop/IFX_S2GL-HW-SW_V1.1.3/Firmware_Software/DAVE project/S2GL_Doppler/Libraries/CMSIS/Include\core_cm0.h ****   \defgroup CMSIS_Core_FunctionInterface Functions and Instructions Reference
 605:C:/Users/±è°æ¹Î/Desktop/IFX_S2GL-HW-SW_V1.1.3/Firmware_Software/DAVE project/S2GL_Doppler/Libraries/CMSIS/Include\core_cm0.h **** */
 606:C:/Users/±è°æ¹Î/Desktop/IFX_S2GL-HW-SW_V1.1.3/Firmware_Software/DAVE project/S2GL_Doppler/Libraries/CMSIS/Include\core_cm0.h **** 
 607:C:/Users/±è°æ¹Î/Desktop/IFX_S2GL-HW-SW_V1.1.3/Firmware_Software/DAVE project/S2GL_Doppler/Libraries/CMSIS/Include\core_cm0.h **** 
 608:C:/Users/±è°æ¹Î/Desktop/IFX_S2GL-HW-SW_V1.1.3/Firmware_Software/DAVE project/S2GL_Doppler/Libraries/CMSIS/Include\core_cm0.h **** 
 609:C:/Users/±è°æ¹Î/Desktop/IFX_S2GL-HW-SW_V1.1.3/Firmware_Software/DAVE project/S2GL_Doppler/Libraries/CMSIS/Include\core_cm0.h **** /* ##########################   NVIC functions  #################################### */
 610:C:/Users/±è°æ¹Î/Desktop/IFX_S2GL-HW-SW_V1.1.3/Firmware_Software/DAVE project/S2GL_Doppler/Libraries/CMSIS/Include\core_cm0.h **** /**
 611:C:/Users/±è°æ¹Î/Desktop/IFX_S2GL-HW-SW_V1.1.3/Firmware_Software/DAVE project/S2GL_Doppler/Libraries/CMSIS/Include\core_cm0.h ****   \ingroup  CMSIS_Core_FunctionInterface
 612:C:/Users/±è°æ¹Î/Desktop/IFX_S2GL-HW-SW_V1.1.3/Firmware_Software/DAVE project/S2GL_Doppler/Libraries/CMSIS/Include\core_cm0.h ****   \defgroup CMSIS_Core_NVICFunctions NVIC Functions
 613:C:/Users/±è°æ¹Î/Desktop/IFX_S2GL-HW-SW_V1.1.3/Firmware_Software/DAVE project/S2GL_Doppler/Libraries/CMSIS/Include\core_cm0.h ****   \brief    Functions that manage interrupts and exceptions via the NVIC.
 614:C:/Users/±è°æ¹Î/Desktop/IFX_S2GL-HW-SW_V1.1.3/Firmware_Software/DAVE project/S2GL_Doppler/Libraries/CMSIS/Include\core_cm0.h ****   @{
 615:C:/Users/±è°æ¹Î/Desktop/IFX_S2GL-HW-SW_V1.1.3/Firmware_Software/DAVE project/S2GL_Doppler/Libraries/CMSIS/Include\core_cm0.h ****  */
 616:C:/Users/±è°æ¹Î/Desktop/IFX_S2GL-HW-SW_V1.1.3/Firmware_Software/DAVE project/S2GL_Doppler/Libraries/CMSIS/Include\core_cm0.h **** 
 617:C:/Users/±è°æ¹Î/Desktop/IFX_S2GL-HW-SW_V1.1.3/Firmware_Software/DAVE project/S2GL_Doppler/Libraries/CMSIS/Include\core_cm0.h **** /* Interrupt Priorities are WORD accessible only under ARMv6M                   */
 618:C:/Users/±è°æ¹Î/Desktop/IFX_S2GL-HW-SW_V1.1.3/Firmware_Software/DAVE project/S2GL_Doppler/Libraries/CMSIS/Include\core_cm0.h **** /* The following MACROS handle generation of the register offset and byte masks */
 619:C:/Users/±è°æ¹Î/Desktop/IFX_S2GL-HW-SW_V1.1.3/Firmware_Software/DAVE project/S2GL_Doppler/Libraries/CMSIS/Include\core_cm0.h **** #define _BIT_SHIFT(IRQn)         (  ((((uint32_t)(int32_t)(IRQn))         )      &  0x03UL) * 8UL)
 620:C:/Users/±è°æ¹Î/Desktop/IFX_S2GL-HW-SW_V1.1.3/Firmware_Software/DAVE project/S2GL_Doppler/Libraries/CMSIS/Include\core_cm0.h **** #define _SHP_IDX(IRQn)           ( (((((uint32_t)(int32_t)(IRQn)) & 0x0FUL)-8UL) >>    2UL)      )
 621:C:/Users/±è°æ¹Î/Desktop/IFX_S2GL-HW-SW_V1.1.3/Firmware_Software/DAVE project/S2GL_Doppler/Libraries/CMSIS/Include\core_cm0.h **** #define _IP_IDX(IRQn)            (   (((uint32_t)(int32_t)(IRQn))                >>    2UL)      )
 622:C:/Users/±è°æ¹Î/Desktop/IFX_S2GL-HW-SW_V1.1.3/Firmware_Software/DAVE project/S2GL_Doppler/Libraries/CMSIS/Include\core_cm0.h **** 
 623:C:/Users/±è°æ¹Î/Desktop/IFX_S2GL-HW-SW_V1.1.3/Firmware_Software/DAVE project/S2GL_Doppler/Libraries/CMSIS/Include\core_cm0.h **** 
 624:C:/Users/±è°æ¹Î/Desktop/IFX_S2GL-HW-SW_V1.1.3/Firmware_Software/DAVE project/S2GL_Doppler/Libraries/CMSIS/Include\core_cm0.h **** /**
 625:C:/Users/±è°æ¹Î/Desktop/IFX_S2GL-HW-SW_V1.1.3/Firmware_Software/DAVE project/S2GL_Doppler/Libraries/CMSIS/Include\core_cm0.h ****   \brief   Enable External Interrupt
 626:C:/Users/±è°æ¹Î/Desktop/IFX_S2GL-HW-SW_V1.1.3/Firmware_Software/DAVE project/S2GL_Doppler/Libraries/CMSIS/Include\core_cm0.h ****   \details Enables a device-specific interrupt in the NVIC interrupt controller.
 627:C:/Users/±è°æ¹Î/Desktop/IFX_S2GL-HW-SW_V1.1.3/Firmware_Software/DAVE project/S2GL_Doppler/Libraries/CMSIS/Include\core_cm0.h ****   \param [in]      IRQn  External interrupt number. Value cannot be negative.
 628:C:/Users/±è°æ¹Î/Desktop/IFX_S2GL-HW-SW_V1.1.3/Firmware_Software/DAVE project/S2GL_Doppler/Libraries/CMSIS/Include\core_cm0.h ****  */
 629:C:/Users/±è°æ¹Î/Desktop/IFX_S2GL-HW-SW_V1.1.3/Firmware_Software/DAVE project/S2GL_Doppler/Libraries/CMSIS/Include\core_cm0.h **** __STATIC_INLINE void NVIC_EnableIRQ(IRQn_Type IRQn)
 630:C:/Users/±è°æ¹Î/Desktop/IFX_S2GL-HW-SW_V1.1.3/Firmware_Software/DAVE project/S2GL_Doppler/Libraries/CMSIS/Include\core_cm0.h **** {
 631:C:/Users/±è°æ¹Î/Desktop/IFX_S2GL-HW-SW_V1.1.3/Firmware_Software/DAVE project/S2GL_Doppler/Libraries/CMSIS/Include\core_cm0.h ****   NVIC->ISER[0U] = (uint32_t)(1UL << (((uint32_t)(int32_t)IRQn) & 0x1FUL));
 632:C:/Users/±è°æ¹Î/Desktop/IFX_S2GL-HW-SW_V1.1.3/Firmware_Software/DAVE project/S2GL_Doppler/Libraries/CMSIS/Include\core_cm0.h **** }
 633:C:/Users/±è°æ¹Î/Desktop/IFX_S2GL-HW-SW_V1.1.3/Firmware_Software/DAVE project/S2GL_Doppler/Libraries/CMSIS/Include\core_cm0.h **** 
 634:C:/Users/±è°æ¹Î/Desktop/IFX_S2GL-HW-SW_V1.1.3/Firmware_Software/DAVE project/S2GL_Doppler/Libraries/CMSIS/Include\core_cm0.h **** 
 635:C:/Users/±è°æ¹Î/Desktop/IFX_S2GL-HW-SW_V1.1.3/Firmware_Software/DAVE project/S2GL_Doppler/Libraries/CMSIS/Include\core_cm0.h **** /**
 636:C:/Users/±è°æ¹Î/Desktop/IFX_S2GL-HW-SW_V1.1.3/Firmware_Software/DAVE project/S2GL_Doppler/Libraries/CMSIS/Include\core_cm0.h ****   \brief   Disable External Interrupt
 637:C:/Users/±è°æ¹Î/Desktop/IFX_S2GL-HW-SW_V1.1.3/Firmware_Software/DAVE project/S2GL_Doppler/Libraries/CMSIS/Include\core_cm0.h ****   \details Disables a device-specific interrupt in the NVIC interrupt controller.
 638:C:/Users/±è°æ¹Î/Desktop/IFX_S2GL-HW-SW_V1.1.3/Firmware_Software/DAVE project/S2GL_Doppler/Libraries/CMSIS/Include\core_cm0.h ****   \param [in]      IRQn  External interrupt number. Value cannot be negative.
 639:C:/Users/±è°æ¹Î/Desktop/IFX_S2GL-HW-SW_V1.1.3/Firmware_Software/DAVE project/S2GL_Doppler/Libraries/CMSIS/Include\core_cm0.h ****  */
 640:C:/Users/±è°æ¹Î/Desktop/IFX_S2GL-HW-SW_V1.1.3/Firmware_Software/DAVE project/S2GL_Doppler/Libraries/CMSIS/Include\core_cm0.h **** __STATIC_INLINE void NVIC_DisableIRQ(IRQn_Type IRQn)
 641:C:/Users/±è°æ¹Î/Desktop/IFX_S2GL-HW-SW_V1.1.3/Firmware_Software/DAVE project/S2GL_Doppler/Libraries/CMSIS/Include\core_cm0.h **** {
 642:C:/Users/±è°æ¹Î/Desktop/IFX_S2GL-HW-SW_V1.1.3/Firmware_Software/DAVE project/S2GL_Doppler/Libraries/CMSIS/Include\core_cm0.h ****   NVIC->ICER[0U] = (uint32_t)(1UL << (((uint32_t)(int32_t)IRQn) & 0x1FUL));
 643:C:/Users/±è°æ¹Î/Desktop/IFX_S2GL-HW-SW_V1.1.3/Firmware_Software/DAVE project/S2GL_Doppler/Libraries/CMSIS/Include\core_cm0.h **** }
 644:C:/Users/±è°æ¹Î/Desktop/IFX_S2GL-HW-SW_V1.1.3/Firmware_Software/DAVE project/S2GL_Doppler/Libraries/CMSIS/Include\core_cm0.h **** 
 645:C:/Users/±è°æ¹Î/Desktop/IFX_S2GL-HW-SW_V1.1.3/Firmware_Software/DAVE project/S2GL_Doppler/Libraries/CMSIS/Include\core_cm0.h **** 
 646:C:/Users/±è°æ¹Î/Desktop/IFX_S2GL-HW-SW_V1.1.3/Firmware_Software/DAVE project/S2GL_Doppler/Libraries/CMSIS/Include\core_cm0.h **** /**
 647:C:/Users/±è°æ¹Î/Desktop/IFX_S2GL-HW-SW_V1.1.3/Firmware_Software/DAVE project/S2GL_Doppler/Libraries/CMSIS/Include\core_cm0.h ****   \brief   Get Pending Interrupt
 648:C:/Users/±è°æ¹Î/Desktop/IFX_S2GL-HW-SW_V1.1.3/Firmware_Software/DAVE project/S2GL_Doppler/Libraries/CMSIS/Include\core_cm0.h ****   \details Reads the pending register in the NVIC and returns the pending bit for the specified int
 649:C:/Users/±è°æ¹Î/Desktop/IFX_S2GL-HW-SW_V1.1.3/Firmware_Software/DAVE project/S2GL_Doppler/Libraries/CMSIS/Include\core_cm0.h ****   \param [in]      IRQn  Interrupt number.
 650:C:/Users/±è°æ¹Î/Desktop/IFX_S2GL-HW-SW_V1.1.3/Firmware_Software/DAVE project/S2GL_Doppler/Libraries/CMSIS/Include\core_cm0.h ****   \return             0  Interrupt status is not pending.
 651:C:/Users/±è°æ¹Î/Desktop/IFX_S2GL-HW-SW_V1.1.3/Firmware_Software/DAVE project/S2GL_Doppler/Libraries/CMSIS/Include\core_cm0.h ****   \return             1  Interrupt status is pending.
 652:C:/Users/±è°æ¹Î/Desktop/IFX_S2GL-HW-SW_V1.1.3/Firmware_Software/DAVE project/S2GL_Doppler/Libraries/CMSIS/Include\core_cm0.h ****  */
 653:C:/Users/±è°æ¹Î/Desktop/IFX_S2GL-HW-SW_V1.1.3/Firmware_Software/DAVE project/S2GL_Doppler/Libraries/CMSIS/Include\core_cm0.h **** __STATIC_INLINE uint32_t NVIC_GetPendingIRQ(IRQn_Type IRQn)
 654:C:/Users/±è°æ¹Î/Desktop/IFX_S2GL-HW-SW_V1.1.3/Firmware_Software/DAVE project/S2GL_Doppler/Libraries/CMSIS/Include\core_cm0.h **** {
 655:C:/Users/±è°æ¹Î/Desktop/IFX_S2GL-HW-SW_V1.1.3/Firmware_Software/DAVE project/S2GL_Doppler/Libraries/CMSIS/Include\core_cm0.h ****   return((uint32_t)(((NVIC->ISPR[0U] & (1UL << (((uint32_t)(int32_t)IRQn) & 0x1FUL))) != 0UL) ? 1UL
 656:C:/Users/±è°æ¹Î/Desktop/IFX_S2GL-HW-SW_V1.1.3/Firmware_Software/DAVE project/S2GL_Doppler/Libraries/CMSIS/Include\core_cm0.h **** }
 657:C:/Users/±è°æ¹Î/Desktop/IFX_S2GL-HW-SW_V1.1.3/Firmware_Software/DAVE project/S2GL_Doppler/Libraries/CMSIS/Include\core_cm0.h **** 
 658:C:/Users/±è°æ¹Î/Desktop/IFX_S2GL-HW-SW_V1.1.3/Firmware_Software/DAVE project/S2GL_Doppler/Libraries/CMSIS/Include\core_cm0.h **** 
 659:C:/Users/±è°æ¹Î/Desktop/IFX_S2GL-HW-SW_V1.1.3/Firmware_Software/DAVE project/S2GL_Doppler/Libraries/CMSIS/Include\core_cm0.h **** /**
 660:C:/Users/±è°æ¹Î/Desktop/IFX_S2GL-HW-SW_V1.1.3/Firmware_Software/DAVE project/S2GL_Doppler/Libraries/CMSIS/Include\core_cm0.h ****   \brief   Set Pending Interrupt
 661:C:/Users/±è°æ¹Î/Desktop/IFX_S2GL-HW-SW_V1.1.3/Firmware_Software/DAVE project/S2GL_Doppler/Libraries/CMSIS/Include\core_cm0.h ****   \details Sets the pending bit of an external interrupt.
 662:C:/Users/±è°æ¹Î/Desktop/IFX_S2GL-HW-SW_V1.1.3/Firmware_Software/DAVE project/S2GL_Doppler/Libraries/CMSIS/Include\core_cm0.h ****   \param [in]      IRQn  Interrupt number. Value cannot be negative.
 663:C:/Users/±è°æ¹Î/Desktop/IFX_S2GL-HW-SW_V1.1.3/Firmware_Software/DAVE project/S2GL_Doppler/Libraries/CMSIS/Include\core_cm0.h ****  */
 664:C:/Users/±è°æ¹Î/Desktop/IFX_S2GL-HW-SW_V1.1.3/Firmware_Software/DAVE project/S2GL_Doppler/Libraries/CMSIS/Include\core_cm0.h **** __STATIC_INLINE void NVIC_SetPendingIRQ(IRQn_Type IRQn)
 665:C:/Users/±è°æ¹Î/Desktop/IFX_S2GL-HW-SW_V1.1.3/Firmware_Software/DAVE project/S2GL_Doppler/Libraries/CMSIS/Include\core_cm0.h **** {
 666:C:/Users/±è°æ¹Î/Desktop/IFX_S2GL-HW-SW_V1.1.3/Firmware_Software/DAVE project/S2GL_Doppler/Libraries/CMSIS/Include\core_cm0.h ****   NVIC->ISPR[0U] = (uint32_t)(1UL << (((uint32_t)(int32_t)IRQn) & 0x1FUL));
 667:C:/Users/±è°æ¹Î/Desktop/IFX_S2GL-HW-SW_V1.1.3/Firmware_Software/DAVE project/S2GL_Doppler/Libraries/CMSIS/Include\core_cm0.h **** }
 668:C:/Users/±è°æ¹Î/Desktop/IFX_S2GL-HW-SW_V1.1.3/Firmware_Software/DAVE project/S2GL_Doppler/Libraries/CMSIS/Include\core_cm0.h **** 
 669:C:/Users/±è°æ¹Î/Desktop/IFX_S2GL-HW-SW_V1.1.3/Firmware_Software/DAVE project/S2GL_Doppler/Libraries/CMSIS/Include\core_cm0.h **** 
 670:C:/Users/±è°æ¹Î/Desktop/IFX_S2GL-HW-SW_V1.1.3/Firmware_Software/DAVE project/S2GL_Doppler/Libraries/CMSIS/Include\core_cm0.h **** /**
 671:C:/Users/±è°æ¹Î/Desktop/IFX_S2GL-HW-SW_V1.1.3/Firmware_Software/DAVE project/S2GL_Doppler/Libraries/CMSIS/Include\core_cm0.h ****   \brief   Clear Pending Interrupt
 672:C:/Users/±è°æ¹Î/Desktop/IFX_S2GL-HW-SW_V1.1.3/Firmware_Software/DAVE project/S2GL_Doppler/Libraries/CMSIS/Include\core_cm0.h ****   \details Clears the pending bit of an external interrupt.
 673:C:/Users/±è°æ¹Î/Desktop/IFX_S2GL-HW-SW_V1.1.3/Firmware_Software/DAVE project/S2GL_Doppler/Libraries/CMSIS/Include\core_cm0.h ****   \param [in]      IRQn  External interrupt number. Value cannot be negative.
 674:C:/Users/±è°æ¹Î/Desktop/IFX_S2GL-HW-SW_V1.1.3/Firmware_Software/DAVE project/S2GL_Doppler/Libraries/CMSIS/Include\core_cm0.h ****  */
 675:C:/Users/±è°æ¹Î/Desktop/IFX_S2GL-HW-SW_V1.1.3/Firmware_Software/DAVE project/S2GL_Doppler/Libraries/CMSIS/Include\core_cm0.h **** __STATIC_INLINE void NVIC_ClearPendingIRQ(IRQn_Type IRQn)
 676:C:/Users/±è°æ¹Î/Desktop/IFX_S2GL-HW-SW_V1.1.3/Firmware_Software/DAVE project/S2GL_Doppler/Libraries/CMSIS/Include\core_cm0.h **** {
 677:C:/Users/±è°æ¹Î/Desktop/IFX_S2GL-HW-SW_V1.1.3/Firmware_Software/DAVE project/S2GL_Doppler/Libraries/CMSIS/Include\core_cm0.h ****   NVIC->ICPR[0U] = (uint32_t)(1UL << (((uint32_t)(int32_t)IRQn) & 0x1FUL));
 678:C:/Users/±è°æ¹Î/Desktop/IFX_S2GL-HW-SW_V1.1.3/Firmware_Software/DAVE project/S2GL_Doppler/Libraries/CMSIS/Include\core_cm0.h **** }
 679:C:/Users/±è°æ¹Î/Desktop/IFX_S2GL-HW-SW_V1.1.3/Firmware_Software/DAVE project/S2GL_Doppler/Libraries/CMSIS/Include\core_cm0.h **** 
 680:C:/Users/±è°æ¹Î/Desktop/IFX_S2GL-HW-SW_V1.1.3/Firmware_Software/DAVE project/S2GL_Doppler/Libraries/CMSIS/Include\core_cm0.h **** 
 681:C:/Users/±è°æ¹Î/Desktop/IFX_S2GL-HW-SW_V1.1.3/Firmware_Software/DAVE project/S2GL_Doppler/Libraries/CMSIS/Include\core_cm0.h **** /**
 682:C:/Users/±è°æ¹Î/Desktop/IFX_S2GL-HW-SW_V1.1.3/Firmware_Software/DAVE project/S2GL_Doppler/Libraries/CMSIS/Include\core_cm0.h ****   \brief   Set Interrupt Priority
 683:C:/Users/±è°æ¹Î/Desktop/IFX_S2GL-HW-SW_V1.1.3/Firmware_Software/DAVE project/S2GL_Doppler/Libraries/CMSIS/Include\core_cm0.h ****   \details Sets the priority of an interrupt.
 684:C:/Users/±è°æ¹Î/Desktop/IFX_S2GL-HW-SW_V1.1.3/Firmware_Software/DAVE project/S2GL_Doppler/Libraries/CMSIS/Include\core_cm0.h ****   \note    The priority cannot be set for every core interrupt.
 685:C:/Users/±è°æ¹Î/Desktop/IFX_S2GL-HW-SW_V1.1.3/Firmware_Software/DAVE project/S2GL_Doppler/Libraries/CMSIS/Include\core_cm0.h ****   \param [in]      IRQn  Interrupt number.
 686:C:/Users/±è°æ¹Î/Desktop/IFX_S2GL-HW-SW_V1.1.3/Firmware_Software/DAVE project/S2GL_Doppler/Libraries/CMSIS/Include\core_cm0.h ****   \param [in]  priority  Priority to set.
 687:C:/Users/±è°æ¹Î/Desktop/IFX_S2GL-HW-SW_V1.1.3/Firmware_Software/DAVE project/S2GL_Doppler/Libraries/CMSIS/Include\core_cm0.h ****  */
 688:C:/Users/±è°æ¹Î/Desktop/IFX_S2GL-HW-SW_V1.1.3/Firmware_Software/DAVE project/S2GL_Doppler/Libraries/CMSIS/Include\core_cm0.h **** __STATIC_INLINE void NVIC_SetPriority(IRQn_Type IRQn, uint32_t priority)
 689:C:/Users/±è°æ¹Î/Desktop/IFX_S2GL-HW-SW_V1.1.3/Firmware_Software/DAVE project/S2GL_Doppler/Libraries/CMSIS/Include\core_cm0.h **** {
 690:C:/Users/±è°æ¹Î/Desktop/IFX_S2GL-HW-SW_V1.1.3/Firmware_Software/DAVE project/S2GL_Doppler/Libraries/CMSIS/Include\core_cm0.h ****   if ((int32_t)(IRQn) < 0)
 691:C:/Users/±è°æ¹Î/Desktop/IFX_S2GL-HW-SW_V1.1.3/Firmware_Software/DAVE project/S2GL_Doppler/Libraries/CMSIS/Include\core_cm0.h ****   {
 692:C:/Users/±è°æ¹Î/Desktop/IFX_S2GL-HW-SW_V1.1.3/Firmware_Software/DAVE project/S2GL_Doppler/Libraries/CMSIS/Include\core_cm0.h ****     SCB->SHP[_SHP_IDX(IRQn)] = ((uint32_t)(SCB->SHP[_SHP_IDX(IRQn)] & ~(0xFFUL << _BIT_SHIFT(IRQn))
 693:C:/Users/±è°æ¹Î/Desktop/IFX_S2GL-HW-SW_V1.1.3/Firmware_Software/DAVE project/S2GL_Doppler/Libraries/CMSIS/Include\core_cm0.h ****        (((priority << (8U - __NVIC_PRIO_BITS)) & (uint32_t)0xFFUL) << _BIT_SHIFT(IRQn)));
 694:C:/Users/±è°æ¹Î/Desktop/IFX_S2GL-HW-SW_V1.1.3/Firmware_Software/DAVE project/S2GL_Doppler/Libraries/CMSIS/Include\core_cm0.h ****   }
 695:C:/Users/±è°æ¹Î/Desktop/IFX_S2GL-HW-SW_V1.1.3/Firmware_Software/DAVE project/S2GL_Doppler/Libraries/CMSIS/Include\core_cm0.h ****   else
 696:C:/Users/±è°æ¹Î/Desktop/IFX_S2GL-HW-SW_V1.1.3/Firmware_Software/DAVE project/S2GL_Doppler/Libraries/CMSIS/Include\core_cm0.h ****   {
 697:C:/Users/±è°æ¹Î/Desktop/IFX_S2GL-HW-SW_V1.1.3/Firmware_Software/DAVE project/S2GL_Doppler/Libraries/CMSIS/Include\core_cm0.h ****     NVIC->IP[_IP_IDX(IRQn)]  = ((uint32_t)(NVIC->IP[_IP_IDX(IRQn)]  & ~(0xFFUL << _BIT_SHIFT(IRQn))
  92              	 .loc 2 697 0
  93 0016 C025     	 mov r5,#192
  94              	.LBE23:
  95              	.LBE22:
 115:../Dave/Generated/GLOBAL_SCU_XMC1/global_scu_xmc1.c ****   	NVIC_SetPriority((IRQn_Type)1U,(uint32_t)handle->config->priority[1]);
  96              	 .loc 1 115 0
  97 0018 0468     	 ldr r4,[r0]
  98              	.LVL6:
  99              	.LBB26:
 100              	.LBB24:
 101              	 .loc 2 697 0
 102 001a 1A49     	 ldr r1,.L21
 103 001c AD00     	 lsl r5,r5,#2
 104              	.LBE24:
 105              	.LBE26:
 115:../Dave/Generated/GLOBAL_SCU_XMC1/global_scu_xmc1.c ****   	NVIC_SetPriority((IRQn_Type)1U,(uint32_t)handle->config->priority[1]);
 106              	 .loc 1 115 0
 107 001e 2278     	 ldrb r2,[r4]
 108              	.LVL7:
 109              	.LBB27:
 110              	.LBB25:
 111              	 .loc 2 697 0
 112 0020 4F59     	 ldr r7,[r1,r5]
 698:C:/Users/±è°æ¹Î/Desktop/IFX_S2GL-HW-SW_V1.1.3/Firmware_Software/DAVE project/S2GL_Doppler/Libraries/CMSIS/Include\core_cm0.h ****        (((priority << (8U - __NVIC_PRIO_BITS)) & (uint32_t)0xFFUL) << _BIT_SHIFT(IRQn)));
 113              	 .loc 2 698 0
 114 0022 FF33     	 add r3,r3,#255
 115 0024 9201     	 lsl r2,r2,#6
 116              	.LVL8:
 697:C:/Users/±è°æ¹Î/Desktop/IFX_S2GL-HW-SW_V1.1.3/Firmware_Software/DAVE project/S2GL_Doppler/Libraries/CMSIS/Include\core_cm0.h ****        (((priority << (8U - __NVIC_PRIO_BITS)) & (uint32_t)0xFFUL) << _BIT_SHIFT(IRQn)));
 117              	 .loc 2 697 0
 118 0026 9F43     	 bic r7,r3
 119              	 .loc 2 698 0
 120 0028 1A40     	 and r2,r3
 697:C:/Users/±è°æ¹Î/Desktop/IFX_S2GL-HW-SW_V1.1.3/Firmware_Software/DAVE project/S2GL_Doppler/Libraries/CMSIS/Include\core_cm0.h ****        (((priority << (8U - __NVIC_PRIO_BITS)) & (uint32_t)0xFFUL) << _BIT_SHIFT(IRQn)));
 121              	 .loc 2 697 0
 122 002a 3A43     	 orr r2,r7
 123 002c 4A51     	 str r2,[r1,r5]
 124              	.LVL9:
 125              	.LBE25:
 126              	.LBE27:
 127              	.LBB28:
 128              	.LBB29:
 129 002e 4A59     	 ldr r2,[r1,r5]
 130 0030 154F     	 ldr r7,.L21+4
 131 0032 9446     	 mov ip,r2
 132              	.LBE29:
 133              	.LBE28:
 116:../Dave/Generated/GLOBAL_SCU_XMC1/global_scu_xmc1.c ****   	NVIC_SetPriority((IRQn_Type)2U,(uint32_t)handle->config->priority[2]);
 134              	 .loc 1 116 0
 135 0034 6278     	 ldrb r2,[r4,#1]
 136              	.LVL10:
 137              	.LBB31:
 138              	.LBB30:
 139              	 .loc 2 698 0
 140 0036 9201     	 lsl r2,r2,#6
 141              	.LVL11:
 142 0038 1A40     	 and r2,r3
 143 003a 1202     	 lsl r2,r2,#8
 144 003c 9046     	 mov r8,r2
 697:C:/Users/±è°æ¹Î/Desktop/IFX_S2GL-HW-SW_V1.1.3/Firmware_Software/DAVE project/S2GL_Doppler/Libraries/CMSIS/Include\core_cm0.h ****        (((priority << (8U - __NVIC_PRIO_BITS)) & (uint32_t)0xFFUL) << _BIT_SHIFT(IRQn)));
 145              	 .loc 2 697 0
 146 003e 6246     	 mov r2,ip
 147 0040 1740     	 and r7,r2
 148 0042 4246     	 mov r2,r8
 149 0044 3A43     	 orr r2,r7
 150 0046 4A51     	 str r2,[r1,r5]
 151              	.LVL12:
 152              	.LBE30:
 153              	.LBE31:
 117:../Dave/Generated/GLOBAL_SCU_XMC1/global_scu_xmc1.c **** 
 154              	 .loc 1 117 0
 155 0048 A278     	 ldrb r2,[r4,#2]
 156              	.LVL13:
 157              	.LBB32:
 158              	.LBB33:
 697:C:/Users/±è°æ¹Î/Desktop/IFX_S2GL-HW-SW_V1.1.3/Firmware_Software/DAVE project/S2GL_Doppler/Libraries/CMSIS/Include\core_cm0.h ****        (((priority << (8U - __NVIC_PRIO_BITS)) & (uint32_t)0xFFUL) << _BIT_SHIFT(IRQn)));
 159              	 .loc 2 697 0
 160 004a 4F59     	 ldr r7,[r1,r5]
 161              	 .loc 2 698 0
 162 004c 9201     	 lsl r2,r2,#6
 163              	.LVL14:
 164 004e 1340     	 and r3,r2
 697:C:/Users/±è°æ¹Î/Desktop/IFX_S2GL-HW-SW_V1.1.3/Firmware_Software/DAVE project/S2GL_Doppler/Libraries/CMSIS/Include\core_cm0.h ****        (((priority << (8U - __NVIC_PRIO_BITS)) & (uint32_t)0xFFUL) << _BIT_SHIFT(IRQn)));
 165              	 .loc 2 697 0
 166 0050 0E4A     	 ldr r2,.L21+8
 167              	 .loc 2 698 0
 168 0052 1B04     	 lsl r3,r3,#16
 697:C:/Users/±è°æ¹Î/Desktop/IFX_S2GL-HW-SW_V1.1.3/Firmware_Software/DAVE project/S2GL_Doppler/Libraries/CMSIS/Include\core_cm0.h ****        (((priority << (8U - __NVIC_PRIO_BITS)) & (uint32_t)0xFFUL) << _BIT_SHIFT(IRQn)));
 169              	 .loc 2 697 0
 170 0054 3A40     	 and r2,r7
 171 0056 1343     	 orr r3,r2
 172 0058 4B51     	 str r3,[r1,r5]
 173              	.LVL15:
 174              	.LBE33:
 175              	.LBE32:
 120:../Dave/Generated/GLOBAL_SCU_XMC1/global_scu_xmc1.c ****   	{
 176              	 .loc 1 120 0
 177 005a E378     	 ldrb r3,[r4,#3]
 178 005c 002B     	 cmp r3,#0
 179 005e 00D0     	 beq .L6
 180              	.LVL16:
 181              	.LBB34:
 182              	.LBB35:
 631:C:/Users/±è°æ¹Î/Desktop/IFX_S2GL-HW-SW_V1.1.3/Firmware_Software/DAVE project/S2GL_Doppler/Libraries/CMSIS/Include\core_cm0.h **** }
 183              	 .loc 2 631 0
 184 0060 0E60     	 str r6,[r1]
 185              	.LVL17:
 186              	.L6:
 187              	.LBE35:
 188              	.LBE34:
 128:../Dave/Generated/GLOBAL_SCU_XMC1/global_scu_xmc1.c ****   	{
 189              	 .loc 1 128 0
 190 0062 2379     	 ldrb r3,[r4,#4]
 191 0064 002B     	 cmp r3,#0
 192 0066 02D0     	 beq .L7
 193              	.LVL18:
 194              	.LBB36:
 195              	.LBB37:
 631:C:/Users/±è°æ¹Î/Desktop/IFX_S2GL-HW-SW_V1.1.3/Firmware_Software/DAVE project/S2GL_Doppler/Libraries/CMSIS/Include\core_cm0.h **** }
 196              	 .loc 2 631 0
 197 0068 0222     	 mov r2,#2
 198 006a 064B     	 ldr r3,.L21
 199 006c 1A60     	 str r2,[r3]
 200              	.LVL19:
 201              	.L7:
 202              	.LBE37:
 203              	.LBE36:
 136:../Dave/Generated/GLOBAL_SCU_XMC1/global_scu_xmc1.c ****   	{
 204              	 .loc 1 136 0
 205 006e 6379     	 ldrb r3,[r4,#5]
 206 0070 002B     	 cmp r3,#0
 207 0072 02D0     	 beq .L8
 208              	.LVL20:
 209              	.LBB38:
 210              	.LBB39:
 631:C:/Users/±è°æ¹Î/Desktop/IFX_S2GL-HW-SW_V1.1.3/Firmware_Software/DAVE project/S2GL_Doppler/Libraries/CMSIS/Include\core_cm0.h **** }
 211              	 .loc 2 631 0
 212 0074 0422     	 mov r2,#4
 213 0076 034B     	 ldr r3,.L21
 214 0078 1A60     	 str r2,[r3]
 215              	.LVL21:
 216              	.L8:
 217              	.LBE39:
 218              	.LBE38:
 143:../Dave/Generated/GLOBAL_SCU_XMC1/global_scu_xmc1.c ****     initstatus = GLOBAL_SCU_XMC1_STATUS_SUCCESS;
 219              	 .loc 1 143 0
 220 007a 0123     	 mov r3,#1
 144:../Dave/Generated/GLOBAL_SCU_XMC1/global_scu_xmc1.c ****   }
 221              	 .loc 1 144 0
 222 007c 0026     	 mov r6,#0
 143:../Dave/Generated/GLOBAL_SCU_XMC1/global_scu_xmc1.c ****     initstatus = GLOBAL_SCU_XMC1_STATUS_SUCCESS;
 223              	 .loc 1 143 0
 224 007e 0371     	 strb r3,[r0,#4]
 225              	.LVL22:
 226 0080 C5E7     	 b .L5
 227              	.L22:
 228 0082 C046     	 .align 2
 229              	.L21:
 230 0084 00E100E0 	 .word -536813312
 231 0088 FF00FFFF 	 .word -65281
 232 008c FFFF00FF 	 .word -16711681
 233              	 .cfi_endproc
 234              	.LFE55:
 236              	 .section .text.SCU_0_IRQHandler,"ax",%progbits
 237              	 .align 2
 238              	 .global SCU_0_IRQHandler
 239              	 .code 16
 240              	 .thumb_func
 242              	SCU_0_IRQHandler:
 243              	.LFB56:
 153:../Dave/Generated/GLOBAL_SCU_XMC1/global_scu_xmc1.c **** 
 154:../Dave/Generated/GLOBAL_SCU_XMC1/global_scu_xmc1.c **** #if (UC_SERIES != XMC14)
 155:../Dave/Generated/GLOBAL_SCU_XMC1/global_scu_xmc1.c **** /*
 156:../Dave/Generated/GLOBAL_SCU_XMC1/global_scu_xmc1.c ****  * @brief  SCU_0 Interrupt Handler
 157:../Dave/Generated/GLOBAL_SCU_XMC1/global_scu_xmc1.c ****  */
 158:../Dave/Generated/GLOBAL_SCU_XMC1/global_scu_xmc1.c **** void SCU_0_IRQHandler(void)
 159:../Dave/Generated/GLOBAL_SCU_XMC1/global_scu_xmc1.c **** {
 244              	 .loc 1 159 0
 245              	 .cfi_startproc
 246 0000 08B5     	 push {r3,lr}
 247              	.LCFI3:
 248              	 .cfi_def_cfa_offset 8
 249              	 .cfi_offset 3,-8
 250              	 .cfi_offset 14,-4
 160:../Dave/Generated/GLOBAL_SCU_XMC1/global_scu_xmc1.c ****   XMC_SCU_IRQHandler(0U);
 251              	 .loc 1 160 0
 252 0002 0020     	 mov r0,#0
 253 0004 FFF7FEFF 	 bl XMC_SCU_IRQHandler
 254              	.LVL23:
 161:../Dave/Generated/GLOBAL_SCU_XMC1/global_scu_xmc1.c **** }
 255              	 .loc 1 161 0
 256              	 
 257 0008 08BD     	 pop {r3,pc}
 258              	 .cfi_endproc
 259              	.LFE56:
 261              	 .section .text.SCU_1_IRQHandler,"ax",%progbits
 262              	 .align 2
 263              	 .global SCU_1_IRQHandler
 264              	 .code 16
 265              	 .thumb_func
 267              	SCU_1_IRQHandler:
 268              	.LFB57:
 162:../Dave/Generated/GLOBAL_SCU_XMC1/global_scu_xmc1.c **** 
 163:../Dave/Generated/GLOBAL_SCU_XMC1/global_scu_xmc1.c **** /*  SCU_1 Interrupt Handler.
 164:../Dave/Generated/GLOBAL_SCU_XMC1/global_scu_xmc1.c ****  * 
 165:../Dave/Generated/GLOBAL_SCU_XMC1/global_scu_xmc1.c ****  */
 166:../Dave/Generated/GLOBAL_SCU_XMC1/global_scu_xmc1.c **** void SCU_1_IRQHandler(void)
 167:../Dave/Generated/GLOBAL_SCU_XMC1/global_scu_xmc1.c **** {
 269              	 .loc 1 167 0
 270              	 .cfi_startproc
 271 0000 08B5     	 push {r3,lr}
 272              	.LCFI4:
 273              	 .cfi_def_cfa_offset 8
 274              	 .cfi_offset 3,-8
 275              	 .cfi_offset 14,-4
 168:../Dave/Generated/GLOBAL_SCU_XMC1/global_scu_xmc1.c ****   XMC_SCU_IRQHandler(1U);
 276              	 .loc 1 168 0
 277 0002 0120     	 mov r0,#1
 278 0004 FFF7FEFF 	 bl XMC_SCU_IRQHandler
 279              	.LVL24:
 169:../Dave/Generated/GLOBAL_SCU_XMC1/global_scu_xmc1.c **** }
 280              	 .loc 1 169 0
 281              	 
 282 0008 08BD     	 pop {r3,pc}
 283              	 .cfi_endproc
 284              	.LFE57:
 286              	 .section .text.SCU_2_IRQHandler,"ax",%progbits
 287              	 .align 2
 288              	 .global SCU_2_IRQHandler
 289              	 .code 16
 290              	 .thumb_func
 292              	SCU_2_IRQHandler:
 293              	.LFB58:
 170:../Dave/Generated/GLOBAL_SCU_XMC1/global_scu_xmc1.c **** 
 171:../Dave/Generated/GLOBAL_SCU_XMC1/global_scu_xmc1.c **** /*  SCU2 Interrupt Handler.
 172:../Dave/Generated/GLOBAL_SCU_XMC1/global_scu_xmc1.c ****  *
 173:../Dave/Generated/GLOBAL_SCU_XMC1/global_scu_xmc1.c ****  */
 174:../Dave/Generated/GLOBAL_SCU_XMC1/global_scu_xmc1.c **** void SCU_2_IRQHandler(void)
 175:../Dave/Generated/GLOBAL_SCU_XMC1/global_scu_xmc1.c **** {
 294              	 .loc 1 175 0
 295              	 .cfi_startproc
 296 0000 08B5     	 push {r3,lr}
 297              	.LCFI5:
 298              	 .cfi_def_cfa_offset 8
 299              	 .cfi_offset 3,-8
 300              	 .cfi_offset 14,-4
 176:../Dave/Generated/GLOBAL_SCU_XMC1/global_scu_xmc1.c ****   XMC_SCU_IRQHandler(2U);
 301              	 .loc 1 176 0
 302 0002 0220     	 mov r0,#2
 303 0004 FFF7FEFF 	 bl XMC_SCU_IRQHandler
 304              	.LVL25:
 177:../Dave/Generated/GLOBAL_SCU_XMC1/global_scu_xmc1.c **** }
 305              	 .loc 1 177 0
 306              	 
 307 0008 08BD     	 pop {r3,pc}
 308              	 .cfi_endproc
 309              	.LFE58:
 311              	 .section .text.GLOBAL_SCU_XMC1_RegisterCallback,"ax",%progbits
 312              	 .align 2
 313              	 .global GLOBAL_SCU_XMC1_RegisterCallback
 314              	 .code 16
 315              	 .thumb_func
 317              	GLOBAL_SCU_XMC1_RegisterCallback:
 318              	.LFB59:
 178:../Dave/Generated/GLOBAL_SCU_XMC1/global_scu_xmc1.c **** #else
 179:../Dave/Generated/GLOBAL_SCU_XMC1/global_scu_xmc1.c **** /*
 180:../Dave/Generated/GLOBAL_SCU_XMC1/global_scu_xmc1.c ****  * @brief  IRQ0 Interrupt Handler
 181:../Dave/Generated/GLOBAL_SCU_XMC1/global_scu_xmc1.c ****  */
 182:../Dave/Generated/GLOBAL_SCU_XMC1/global_scu_xmc1.c **** void IRQ0_Handler(void)
 183:../Dave/Generated/GLOBAL_SCU_XMC1/global_scu_xmc1.c **** {
 184:../Dave/Generated/GLOBAL_SCU_XMC1/global_scu_xmc1.c ****   XMC_SCU_IRQHandler(0);
 185:../Dave/Generated/GLOBAL_SCU_XMC1/global_scu_xmc1.c **** }
 186:../Dave/Generated/GLOBAL_SCU_XMC1/global_scu_xmc1.c **** 
 187:../Dave/Generated/GLOBAL_SCU_XMC1/global_scu_xmc1.c **** /*  IRQ1 Interrupt Handler.
 188:../Dave/Generated/GLOBAL_SCU_XMC1/global_scu_xmc1.c ****  *
 189:../Dave/Generated/GLOBAL_SCU_XMC1/global_scu_xmc1.c ****  */
 190:../Dave/Generated/GLOBAL_SCU_XMC1/global_scu_xmc1.c **** void IRQ1_Handler(void)
 191:../Dave/Generated/GLOBAL_SCU_XMC1/global_scu_xmc1.c **** {
 192:../Dave/Generated/GLOBAL_SCU_XMC1/global_scu_xmc1.c ****   XMC_SCU_IRQHandler(1);
 193:../Dave/Generated/GLOBAL_SCU_XMC1/global_scu_xmc1.c **** }
 194:../Dave/Generated/GLOBAL_SCU_XMC1/global_scu_xmc1.c **** 
 195:../Dave/Generated/GLOBAL_SCU_XMC1/global_scu_xmc1.c **** /*  IRQ2 Interrupt Handler.
 196:../Dave/Generated/GLOBAL_SCU_XMC1/global_scu_xmc1.c ****  *
 197:../Dave/Generated/GLOBAL_SCU_XMC1/global_scu_xmc1.c ****  */
 198:../Dave/Generated/GLOBAL_SCU_XMC1/global_scu_xmc1.c **** void IRQ2_Handler(void)
 199:../Dave/Generated/GLOBAL_SCU_XMC1/global_scu_xmc1.c **** {
 200:../Dave/Generated/GLOBAL_SCU_XMC1/global_scu_xmc1.c ****   XMC_SCU_IRQHandler(2);
 201:../Dave/Generated/GLOBAL_SCU_XMC1/global_scu_xmc1.c **** }
 202:../Dave/Generated/GLOBAL_SCU_XMC1/global_scu_xmc1.c **** 
 203:../Dave/Generated/GLOBAL_SCU_XMC1/global_scu_xmc1.c **** #endif
 204:../Dave/Generated/GLOBAL_SCU_XMC1/global_scu_xmc1.c **** 
 205:../Dave/Generated/GLOBAL_SCU_XMC1/global_scu_xmc1.c **** /*
 206:../Dave/Generated/GLOBAL_SCU_XMC1/global_scu_xmc1.c ****  * @brief  Function to register callback event
 207:../Dave/Generated/GLOBAL_SCU_XMC1/global_scu_xmc1.c ****  */
 208:../Dave/Generated/GLOBAL_SCU_XMC1/global_scu_xmc1.c **** GLOBAL_SCU_XMC1_STATUS_t GLOBAL_SCU_XMC1_RegisterCallback(const GLOBAL_SCU_XMC1_EVENT_t event,
 209:../Dave/Generated/GLOBAL_SCU_XMC1/global_scu_xmc1.c ****                                                           const GLOBAL_SCU_XMC1_EVENT_HANDLER_t han
 210:../Dave/Generated/GLOBAL_SCU_XMC1/global_scu_xmc1.c **** {
 319              	 .loc 1 210 0
 320              	 .cfi_startproc
 321              	.LVL26:
 322 0000 08B5     	 push {r3,lr}
 323              	.LCFI6:
 324              	 .cfi_def_cfa_offset 8
 325              	 .cfi_offset 3,-8
 326              	 .cfi_offset 14,-4
 211:../Dave/Generated/GLOBAL_SCU_XMC1/global_scu_xmc1.c ****   GLOBAL_SCU_XMC1_STATUS_t status;
 212:../Dave/Generated/GLOBAL_SCU_XMC1/global_scu_xmc1.c **** 
 213:../Dave/Generated/GLOBAL_SCU_XMC1/global_scu_xmc1.c ****   XMC_ASSERT("GLOBAL_SCU_XMC1_RegisterCallback: Invalid event", (GLOBAL_SCU_XMC1_CHECK_EVENT(event)
 214:../Dave/Generated/GLOBAL_SCU_XMC1/global_scu_xmc1.c ****   XMC_ASSERT("GLOBAL_SCU_XMC1_RegisterCallback: NULL Handle", (handler != NULL));
 215:../Dave/Generated/GLOBAL_SCU_XMC1/global_scu_xmc1.c ****   
 216:../Dave/Generated/GLOBAL_SCU_XMC1/global_scu_xmc1.c ****   status = (GLOBAL_SCU_XMC1_STATUS_t)XMC_SCU_INTERRUPT_SetEventHandler(event, handler);
 327              	 .loc 1 216 0
 328 0002 FFF7FEFF 	 bl XMC_SCU_INTERRUPT_SetEventHandler
 329              	.LVL27:
 217:../Dave/Generated/GLOBAL_SCU_XMC1/global_scu_xmc1.c **** 
 218:../Dave/Generated/GLOBAL_SCU_XMC1/global_scu_xmc1.c ****   return (status);
 219:../Dave/Generated/GLOBAL_SCU_XMC1/global_scu_xmc1.c **** }
 330              	 .loc 1 219 0
 331              	 
 332 0006 08BD     	 pop {r3,pc}
 333              	 .cfi_endproc
 334              	.LFE59:
 336              	 .text
 337              	.Letext0:
 338              	 .file 3 "c:\\infineon\\tools\\dave ide\\4.5.0.202105191637\\eclipse\\arm-gcc-49\\arm-none-eabi\\include\\machine\\_default_types.h"
 339              	 .file 4 "c:\\infineon\\tools\\dave ide\\4.5.0.202105191637\\eclipse\\arm-gcc-49\\arm-none-eabi\\include\\stdint.h"
 340              	 .file 5 "C:/Users/\261\350\260\346\271\316/Desktop/IFX_S2GL-HW-SW_V1.1.3/Firmware_Software/DAVE project/S2GL_Doppler/Libraries/CMSIS/Infineon/XMC1300_series/Include/XMC1300.h"
 341              	 .file 6 "C:/Users/\261\350\260\346\271\316/Desktop/IFX_S2GL-HW-SW_V1.1.3/Firmware_Software/DAVE project/S2GL_Doppler/Libraries/XMCLib/inc/xmc_scu.h"
 342              	 .file 7 "C:/Users/\261\350\260\346\271\316/Desktop/IFX_S2GL-HW-SW_V1.1.3/Firmware_Software/DAVE project/S2GL_Doppler/Libraries/XMCLib/inc/xmc1_scu.h"
 343              	 .file 8 "C:/Users/\261\350\260\346\271\316/Desktop/IFX_S2GL-HW-SW_V1.1.3/Firmware_Software/DAVE project/S2GL_Doppler/Dave/Generated/DAVE_Common.h"
 344              	 .file 9 "../Dave/Generated/GLOBAL_SCU_XMC1/global_scu_xmc1.h"
 345              	 .file 10 "C:/Users/\261\350\260\346\271\316/Desktop/IFX_S2GL-HW-SW_V1.1.3/Firmware_Software/DAVE project/S2GL_Doppler/Libraries/CMSIS/Infineon/XMC1300_series/Include/system_XMC1300.h"