   1              	 .cpu cortex-m0
   2              	 .fpu softvfp
   3              	 .eabi_attribute 20,1
   4              	 .eabi_attribute 21,1
   5              	 .eabi_attribute 23,3
   6              	 .eabi_attribute 24,1
   7              	 .eabi_attribute 25,1
   8              	 .eabi_attribute 26,1
   9              	 .eabi_attribute 30,2
  10              	 .eabi_attribute 34,0
  11              	 .eabi_attribute 18,4
  12              	 .code 16
  13              	 .file "main.c"
  14              	 .text
  15              	.Ltext0:
  16              	 .cfi_sections .debug_frame
  17              	 .global __aeabi_ui2f
  18              	 .global __aeabi_fmul
  19              	 .global __aeabi_fdiv
  20              	 .global __aeabi_fcmplt
  21              	 .global __aeabi_fcmpgt
  22              	 .section .text.radarsense2gol_result,"ax",%progbits
  23              	 .align 2
  24              	 .global radarsense2gol_result
  25              	 .code 16
  26              	 .thumb_func
  28              	radarsense2gol_result:
  29              	.LFB288:
  30              	 .file 1 "../main.c"
   1:../main.c     **** /**
   2:../main.c     ****     @file: main.c
   3:../main.c     **** 
   4:../main.c     ****     @brief: This file implements the top-level functionality for the motion
   5:../main.c     ****             detection on Sense2GoL radar board.
   6:../main.c     ****             UART feature is also used in this implementation to dump IQ raw
   7:../main.c     ****             data samples to the HOST.
   8:../main.c     ****             - UART Configurations:
   9:../main.c     ****               Full-duplex, Direct mode, 9600 baud rate, 8 data-bits,
  10:../main.c     ****               1 stop-bit, no parity.
  11:../main.c     **** 
  12:../main.c     ****             - Data format of transmission:
  13:../main.c     ****               Completely transmits I_adc samples of buffer length BUFF_SIZE,
  14:../main.c     ****               followed by Q_adc samples of same buffer length of BUFF_SIZE so
  15:../main.c     ****               in total 2 * BUFF_SIZE samples are transmitted.
  16:../main.c     **** */
  17:../main.c     **** 
  18:../main.c     **** /* ===========================================================================
  19:../main.c     **** ** Copyright (C) 2017-2019 Infineon Technologies AG
  20:../main.c     **** ** All rights reserved.
  21:../main.c     **** ** ===========================================================================
  22:../main.c     **** **
  23:../main.c     **** ** ===========================================================================
  24:../main.c     **** ** This document contains proprietary information of Infineon Technologies AG.
  25:../main.c     **** ** Passing on and copying of this document, and communication of its contents
  26:../main.c     **** ** is not permitted without Infineon's prior written authorization.
  27:../main.c     **** ** ===========================================================================
  28:../main.c     **** */
  29:../main.c     **** 
  30:../main.c     **** /*
  31:../main.c     **** ==============================================================================
  32:../main.c     ****    1. INCLUDE FILES
  33:../main.c     **** ==============================================================================
  34:../main.c     ****  */
  35:../main.c     **** 
  36:../main.c     **** #include "Dave.h"
  37:../main.c     **** #include "s2gl_library.h"
  38:../main.c     **** #include "HostCommUART.h"
  39:../main.c     **** #include "config.h"
  40:../main.c     **** 
  41:../main.c     **** /*
  42:../main.c     **** ==============================================================================
  43:../main.c     ****    2. DEFINITIONS
  44:../main.c     **** ==============================================================================
  45:../main.c     ****  */
  46:../main.c     **** 
  47:../main.c     **** #define BUFF_SIZE    (DOPPLER_FFT_SIZE)		/**< I and Q raw samples buffer size */
  48:../main.c     **** 
  49:../main.c     **** #define FFT_BIN_SIZE ((float)DOPPLER_SAMPLING_FREQ_HZ / DOPPLER_FFT_SIZE) /**< Size of each FFT bin
  50:../main.c     **** 
  51:../main.c     **** /*
  52:../main.c     **** ==============================================================================
  53:../main.c     ****    3. DATA
  54:../main.c     **** ==============================================================================
  55:../main.c     ****  */
  56:../main.c     **** 
  57:../main.c     **** /************************* Micirum uC Probe variables ***********************/
  58:../main.c     **** 
  59:../main.c     **** uint16_t g_sampling_data_I[BUFF_SIZE] = {0};				 /**< Raw data I channel */
  60:../main.c     **** uint16_t g_sampling_data_Q[BUFF_SIZE] = {0};				 /**< Raw data Q channel */
  61:../main.c     **** uint32_t g_fft_data[DOPPLER_FFT_SIZE/2] = {0};				 /**< FFT data of I channel */
  62:../main.c     **** XMC_RADARSENSE2GOL_MOTION_t g_motion = XMC_NO_MOTION_DETECT; /**< Motion indicator */
  63:../main.c     **** float g_doppler_frequency = 0.0;							 /**< Doppler frequency */
  64:../main.c     **** float g_doppler_velocity = 0.0;								 /**< Doppler speed */
  65:../main.c     **** float g_min_velocity = MINIMUM_SPEED_KMH; 				     /**< Min velocity to detect motion */
  66:../main.c     **** float g_max_velocity = MAXIMUM_SPEED_KMH; 				     /**< Max velocity to detect motion */
  67:../main.c     **** bool g_start = true;										 /**< Control for execution of Doppler algorithm */
  68:../main.c     **** bool g_uart_start = UART_RAW_DATA;							 /**< Control for execution of UART feature to transmit ra
  69:../main.c     **** 
  70:../main.c     **** /**
  71:../main.c     ****  * \brief Setup the timings related parameters
  72:../main.c     ****  */
  73:../main.c     **** XMC_RADARSENSE2GOL_TIMING_t radarsense2gol_timing =
  74:../main.c     **** {
  75:../main.c     **** 		.t_sample_us = (1.0 / DOPPLER_SAMPLING_FREQ_HZ) * 1000.0 * 1000.0, /**< Sample time, units in mic
  76:../main.c     **** 		.t_cycle_ms = 300,                                                 /**< 300 msec */
  77:../main.c     **** 		.N_exponent_samples = log2(BUFF_SIZE)
  78:../main.c     **** };
  79:../main.c     **** 
  80:../main.c     **** /**
  81:../main.c     ****  * \brief Setup the detection triggers related parameters
  82:../main.c     ****  */
  83:../main.c     **** XMC_RADARSENSE2GOL_ALG_t radarsense2gol_algorithm =
  84:../main.c     **** {
  85:../main.c     **** 		.hold_on_cycles = 1,                           /**< Hold-on cycles to trigger detection */
  86:../main.c     **** 		.trigger_det_level = DETECTION_THRESHOLD,      /**< Trigger detection level */
  87:../main.c     **** 		.rootcalc_enable = XMC_RADARSENSE2GOL_DISABLED /**< Root calculation for magnitude disabled */
  88:../main.c     **** };
  89:../main.c     **** 
  90:../main.c     **** /**
  91:../main.c     ****  * \brief Setup the power management related parameters
  92:../main.c     ****  */
  93:../main.c     **** XMC_RADARSENSE2GOL_POWERDOWN_t radarsense2gol_powerdown =
  94:../main.c     **** {
  95:../main.c     **** 		.sleep_deepsleep_enable   = XMC_RADARSENSE2GOL_ENABLED, /**< Sleep / Deep-sleep enabled */
  96:../main.c     **** 		.mainexec_enable          = XMC_RADARSENSE2GOL_ENABLED, /**< Main execution enabled     */
  97:../main.c     **** 		.vadc_clock_gating_enable = XMC_RADARSENSE2GOL_ENABLED  /**< VADC clock gating enabled  */
  98:../main.c     **** };
  99:../main.c     **** 
 100:../main.c     **** /*
 101:../main.c     **** ==============================================================================
 102:../main.c     ****   4. LOCAL FUNCTIONS
 103:../main.c     **** ==============================================================================
 104:../main.c     ****  */
 105:../main.c     **** 
 106:../main.c     **** /**
 107:../main.c     ****  * \brief max_frq_index gives the FFT bin in which the maximum magnitude of
 108:../main.c     ****  *        the FFT was found, each FFT bin has a size and therefore corresponds
 109:../main.c     ****  *        to a frequency range. The size of the FFT bin is calculated by
 110:../main.c     ****  *        dividing the sampling frequency by the number of FFT points.
 111:../main.c     ****  *        The Doppler frequency is calculated by multiplying the FFT bin size
 112:../main.c     ****  *        with the number of the FFT bin where the maximum was found.
 113:../main.c     ****  */
 114:../main.c     **** static float calcDopplerFrequency(const uint32_t max_frq_index)
 115:../main.c     **** {
 116:../main.c     **** 	return (float)(max_frq_index * FFT_BIN_SIZE);
 117:../main.c     **** }
 118:../main.c     **** 
 119:../main.c     **** //===========================================================================
 120:../main.c     **** 
 121:../main.c     **** /**
 122:../main.c     ****  * \brief Doppler velocity is calculated based on the Doppler frequency for
 123:../main.c     ****  *        24GHz Doppler radar systems. A velocity of 1Km/h will correspond to
 124:../main.c     ****  *        a Doppler frequency of 44.4Hz
 125:../main.c     ****  */
 126:../main.c     **** static float calcDopplerSpeed(const float doppler_freq)
 127:../main.c     **** {
 128:../main.c     **** 	return doppler_freq / 44.4f;
 129:../main.c     **** }
 130:../main.c     **** 
 131:../main.c     **** /*
 132:../main.c     **** ==============================================================================
 133:../main.c     ****    5. USER CALLBACK FUNCTIONS
 134:../main.c     **** ==============================================================================
 135:../main.c     ****  */
 136:../main.c     **** 
 137:../main.c     **** /**
 138:../main.c     ****  * \brief Callback executed after new data is available from algorithm.
 139:../main.c     ****  *
 140:../main.c     ****  * \param[in]  *fft_magnitude_array  Array pointer to the FFT spectrum
 141:../main.c     ****  * \param[in]  size_of_array_mag     Length of array for the FFT spectrum
 142:../main.c     ****  * \param[in]  *adc_aqc_array_I      Array pointer for the raw ADC I data samples
 143:../main.c     ****  * \param[in]  *adc_aqc_array_Q      Array pointer for the raw ADC Q data samples
 144:../main.c     ****  * \param[in]  size_of_array_acq     Length of array for the raw ADC I&Q data samples
 145:../main.c     ****  * \param[out] motion                Approaching, departing or no motion information
 146:../main.c     ****  * \param[out] max_frq_mag           Maximum Doppler frequency computed
 147:../main.c     ****  * \param[out] max_frq_index         Maximum frequency bin index above threshold
 148:../main.c     ****  *
 149:../main.c     ****  */
 150:../main.c     **** void radarsense2gol_result(uint32_t *fft_magnitude_array,
 151:../main.c     **** 		                   uint16_t size_of_array_mag,
 152:../main.c     **** 		                   int16_t *adc_aqc_array_I,
 153:../main.c     **** 		                   int16_t *adc_aqc_array_Q,
 154:../main.c     **** 		                   uint16_t size_of_array_acq,
 155:../main.c     **** 		                   XMC_RADARSENSE2GOL_MOTION_t motion,
 156:../main.c     **** 		                   uint32_t max_frq_mag,
 157:../main.c     **** 		                   uint32_t max_frq_index)
 158:../main.c     **** {
  31              	 .loc 1 158 0
  32              	 .cfi_startproc
  33              	.LVL0:
  34 0000 F0B5     	 push {r4,r5,r6,r7,lr}
  35              	.LCFI0:
  36              	 .cfi_def_cfa_offset 20
  37              	 .cfi_offset 4,-20
  38              	 .cfi_offset 5,-16
  39              	 .cfi_offset 6,-12
  40              	 .cfi_offset 7,-8
  41              	 .cfi_offset 14,-4
  42 0002 5746     	 mov r7,r10
  43 0004 4E46     	 mov r6,r9
  44 0006 4546     	 mov r5,r8
  45 0008 E0B4     	 push {r5,r6,r7}
  46              	.LCFI1:
  47              	 .cfi_def_cfa_offset 32
  48              	 .cfi_offset 8,-32
  49              	 .cfi_offset 9,-28
  50              	 .cfi_offset 10,-24
  51              	 .loc 1 158 0
  52 000a 9A46     	 mov r10,r3
  53 000c 08AB     	 add r3,sp,#32
  54              	.LVL1:
  55 000e 1B88     	 ldrh r3,[r3]
  56              	.LVL2:
  57 0010 0C1C     	 mov r4,r1
 159:../main.c     **** 	/* Copy raw data and FFT data and motion indicator to global variables used in Micrium GUI */
 160:../main.c     **** 	memcpy(g_sampling_data_I, adc_aqc_array_I, size_of_array_acq * sizeof(uint16_t));
  58              	 .loc 1 160 0
  59 0012 5B00     	 lsl r3,r3,#1
  60 0014 9946     	 mov r9,r3
 158:../main.c     **** 	/* Copy raw data and FFT data and motion indicator to global variables used in Micrium GUI */
  61              	 .loc 1 158 0
  62 0016 8046     	 mov r8,r0
  63              	 .loc 1 160 0
  64 0018 494F     	 ldr r7,.L21
 158:../main.c     **** 	/* Copy raw data and FFT data and motion indicator to global variables used in Micrium GUI */
  65              	 .loc 1 158 0
  66 001a 09A9     	 add r1,sp,#36
  67              	.LVL3:
  68 001c 0D78     	 ldrb r5,[r1]
  69              	 .loc 1 160 0
  70 001e 381C     	 mov r0,r7
  71              	.LVL4:
  72 0020 111C     	 mov r1,r2
  73              	.LVL5:
  74 0022 1A1C     	 mov r2,r3
  75              	.LVL6:
  76 0024 FFF7FEFF 	 bl memcpy
  77              	.LVL7:
 161:../main.c     **** 	memcpy(g_sampling_data_Q, adc_aqc_array_Q, size_of_array_acq * sizeof(uint16_t));
  78              	 .loc 1 161 0
  79 0028 464E     	 ldr r6,.L21+4
  80 002a 5146     	 mov r1,r10
  81 002c 4A46     	 mov r2,r9
  82 002e 301C     	 mov r0,r6
  83 0030 FFF7FEFF 	 bl memcpy
  84              	.LVL8:
 162:../main.c     **** 	memcpy(g_fft_data, &fft_magnitude_array[1], (size_of_array_mag - 1) * sizeof(uint32_t));
  85              	 .loc 1 162 0
  86 0034 631E     	 sub r3,r4,#1
  87 0036 444A     	 ldr r2,.L21+8
  88 0038 9B00     	 lsl r3,r3,#2
  89 003a 9946     	 mov r9,r3
  90 003c 4346     	 mov r3,r8
  91 003e 9246     	 mov r10,r2
  92              	.LVL9:
  93 0040 191D     	 add r1,r3,#4
  94 0042 101C     	 mov r0,r2
  95 0044 4A46     	 mov r2,r9
  96 0046 FFF7FEFF 	 bl memcpy
  97              	.LVL10:
 163:../main.c     **** 
 164:../main.c     **** 	/* To remove the spike from last bins in FFT spectrum, force last two bins to 0 */
 165:../main.c     **** 	g_fft_data[size_of_array_mag-1] = 0;
  98              	 .loc 1 165 0
  99 004a 0023     	 mov r3,#0
 100 004c 5246     	 mov r2,r10
 101 004e 4946     	 mov r1,r9
 102 0050 8B50     	 str r3,[r1,r2]
 166:../main.c     **** 	g_fft_data[size_of_array_mag-2] = 0;
 103              	 .loc 1 166 0
 104 0052 5146     	 mov r1,r10
 105 0054 A21E     	 sub r2,r4,#2
 106 0056 9200     	 lsl r2,r2,#2
 107 0058 5350     	 str r3,[r2,r1]
 167:../main.c     **** 
 168:../main.c     **** 	fft_magnitude_array[size_of_array_mag-1] = 0;
 108              	 .loc 1 168 0
 109 005a 3C4A     	 ldr r2,.L21+12
 110 005c 9446     	 mov ip,r2
 111 005e 4246     	 mov r2,r8
 112 0060 6444     	 add r4,r4,ip
 113 0062 A400     	 lsl r4,r4,#2
 114 0064 1351     	 str r3,[r2,r4]
 169:../main.c     **** 	fft_magnitude_array[size_of_array_mag-2] = 0;
 115              	 .loc 1 169 0
 116 0066 4444     	 add r4,r4,r8
 117 0068 043C     	 sub r4,r4,#4
 118 006a 2360     	 str r3,[r4]
 119              	.LVL11:
 170:../main.c     **** 
 171:../main.c     **** 	/* Calculate Doppler frequency and velocity */
 172:../main.c     **** 	float doppler_frequency = calcDopplerFrequency(max_frq_index);
 173:../main.c     **** 	float doppler_velocity  = calcDopplerSpeed(doppler_frequency);
 174:../main.c     **** 
 175:../main.c     **** 	if (g_uart_start)
 120              	 .loc 1 175 0
 121 006c 384B     	 ldr r3,.L21+16
 122 006e 1B78     	 ldrb r3,[r3]
 123 0070 002B     	 cmp r3,#0
 124 0072 56D1     	 bne .L19
 125              	.L2:
 176:../main.c     **** 		dumpRawIQ_uint16(g_sampling_data_I, g_sampling_data_Q, (uint16_t)BUFF_SIZE);
 177:../main.c     **** 
 178:../main.c     **** 	/* Check results */
 179:../main.c     **** 	if (motion != XMC_NO_MOTION_DETECT &&		// Motion detected
 126              	 .loc 1 179 0
 127 0074 022D     	 cmp r5,#2
 128 0076 11D0     	 beq .L3
 129              	.LBB66:
 130              	.LBB67:
 116:../main.c     **** }
 131              	 .loc 1 116 0 discriminator 1
 132 0078 0B98     	 ldr r0,[sp,#44]
 133 007a FFF7FEFF 	 bl __aeabi_ui2f
 134              	.LVL12:
 135 007e 3549     	 ldr r1,.L21+20
 136 0080 FFF7FEFF 	 bl __aeabi_fmul
 137              	.LVL13:
 138              	.LBE67:
 139              	.LBE66:
 140              	.LBB69:
 141              	.LBB70:
 128:../main.c     **** }
 142              	 .loc 1 128 0 discriminator 1
 143 0084 3449     	 ldr r1,.L21+24
 144              	.LBE70:
 145              	.LBE69:
 146              	.LBB73:
 147              	.LBB68:
 116:../main.c     **** }
 148              	 .loc 1 116 0 discriminator 1
 149 0086 061C     	 add r6,r0,#0
 150              	.LBE68:
 151              	.LBE73:
 152              	.LBB74:
 153              	.LBB71:
 128:../main.c     **** }
 154              	 .loc 1 128 0 discriminator 1
 155 0088 FFF7FEFF 	 bl __aeabi_fdiv
 156              	.LVL14:
 157              	.LBE71:
 158              	.LBE74:
 180:../main.c     **** 	    doppler_velocity > g_min_velocity &&	// Doppler velocity is greater than min velocity
 159              	 .loc 1 180 0 discriminator 1
 160 008c 334B     	 ldr r3,.L21+28
 161              	.LBB75:
 162              	.LBB72:
 128:../main.c     **** }
 163              	 .loc 1 128 0 discriminator 1
 164 008e 041C     	 add r4,r0,#0
 165              	.LBE72:
 166              	.LBE75:
 179:../main.c     **** 	    doppler_velocity > g_min_velocity &&	// Doppler velocity is greater than min velocity
 167              	 .loc 1 179 0 discriminator 1
 168 0090 211C     	 add r1,r4,#0
 169 0092 1868     	 ldr r0,[r3]
 170 0094 FFF7FEFF 	 bl __aeabi_fcmplt
 171              	.LVL15:
 172 0098 0028     	 cmp r0,#0
 173 009a 1FD1     	 bne .L20
 174              	.L3:
 175 009c 304B     	 ldr r3,.L21+32
 176 009e 1A68     	 ldr r2,[r3]
 177              	.LVL16:
 178              	.LBB76:
 179              	.LBB77:
 180              	.LBB78:
 181              	 .file 2 "C:/Users/\261\350\260\346\271\316/Desktop/IFX_S2GL-HW-SW_V1.1.3/Firmware_Software/DAVE project/S2GL_Doppler/Libraries/XMCLib/inc/xmc_gpio.h"
   1:C:/Users/±è°æ¹Î/Desktop/IFX_S2GL-HW-SW_V1.1.3/Firmware_Software/DAVE project/S2GL_Doppler/Libraries/XMCLib/inc\xmc_gpio.h **** /**
   2:C:/Users/±è°æ¹Î/Desktop/IFX_S2GL-HW-SW_V1.1.3/Firmware_Software/DAVE project/S2GL_Doppler/Libraries/XMCLib/inc\xmc_gpio.h ****  * @file xmc_gpio.h
   3:C:/Users/±è°æ¹Î/Desktop/IFX_S2GL-HW-SW_V1.1.3/Firmware_Software/DAVE project/S2GL_Doppler/Libraries/XMCLib/inc\xmc_gpio.h ****  * @date 2015-06-20
   4:C:/Users/±è°æ¹Î/Desktop/IFX_S2GL-HW-SW_V1.1.3/Firmware_Software/DAVE project/S2GL_Doppler/Libraries/XMCLib/inc\xmc_gpio.h ****  *
   5:C:/Users/±è°æ¹Î/Desktop/IFX_S2GL-HW-SW_V1.1.3/Firmware_Software/DAVE project/S2GL_Doppler/Libraries/XMCLib/inc\xmc_gpio.h ****  * @cond
   6:C:/Users/±è°æ¹Î/Desktop/IFX_S2GL-HW-SW_V1.1.3/Firmware_Software/DAVE project/S2GL_Doppler/Libraries/XMCLib/inc\xmc_gpio.h ****   *************************************************************************************************
   7:C:/Users/±è°æ¹Î/Desktop/IFX_S2GL-HW-SW_V1.1.3/Firmware_Software/DAVE project/S2GL_Doppler/Libraries/XMCLib/inc\xmc_gpio.h ****  * XMClib v2.1.6 - XMC Peripheral Driver Library 
   8:C:/Users/±è°æ¹Î/Desktop/IFX_S2GL-HW-SW_V1.1.3/Firmware_Software/DAVE project/S2GL_Doppler/Libraries/XMCLib/inc\xmc_gpio.h ****  *
   9:C:/Users/±è°æ¹Î/Desktop/IFX_S2GL-HW-SW_V1.1.3/Firmware_Software/DAVE project/S2GL_Doppler/Libraries/XMCLib/inc\xmc_gpio.h ****  * Copyright (C) 2015-2019 Infineon Technologies AG
  10:C:/Users/±è°æ¹Î/Desktop/IFX_S2GL-HW-SW_V1.1.3/Firmware_Software/DAVE project/S2GL_Doppler/Libraries/XMCLib/inc\xmc_gpio.h ****  * All rights reserved.                        
  11:C:/Users/±è°æ¹Î/Desktop/IFX_S2GL-HW-SW_V1.1.3/Firmware_Software/DAVE project/S2GL_Doppler/Libraries/XMCLib/inc\xmc_gpio.h ****  *                                             
  12:C:/Users/±è°æ¹Î/Desktop/IFX_S2GL-HW-SW_V1.1.3/Firmware_Software/DAVE project/S2GL_Doppler/Libraries/XMCLib/inc\xmc_gpio.h ****  * Redistribution and use in source and binary forms, with or without modification,are permitted pr
  13:C:/Users/±è°æ¹Î/Desktop/IFX_S2GL-HW-SW_V1.1.3/Firmware_Software/DAVE project/S2GL_Doppler/Libraries/XMCLib/inc\xmc_gpio.h ****  * following conditions are met:   
  14:C:/Users/±è°æ¹Î/Desktop/IFX_S2GL-HW-SW_V1.1.3/Firmware_Software/DAVE project/S2GL_Doppler/Libraries/XMCLib/inc\xmc_gpio.h ****  *                                                                              
  15:C:/Users/±è°æ¹Î/Desktop/IFX_S2GL-HW-SW_V1.1.3/Firmware_Software/DAVE project/S2GL_Doppler/Libraries/XMCLib/inc\xmc_gpio.h ****  * Redistributions of source code must retain the above copyright notice, this list of conditions a
  16:C:/Users/±è°æ¹Î/Desktop/IFX_S2GL-HW-SW_V1.1.3/Firmware_Software/DAVE project/S2GL_Doppler/Libraries/XMCLib/inc\xmc_gpio.h ****  * disclaimer.                        
  17:C:/Users/±è°æ¹Î/Desktop/IFX_S2GL-HW-SW_V1.1.3/Firmware_Software/DAVE project/S2GL_Doppler/Libraries/XMCLib/inc\xmc_gpio.h ****  * 
  18:C:/Users/±è°æ¹Î/Desktop/IFX_S2GL-HW-SW_V1.1.3/Firmware_Software/DAVE project/S2GL_Doppler/Libraries/XMCLib/inc\xmc_gpio.h ****  * Redistributions in binary form must reproduce the above copyright notice, this list of condition
  19:C:/Users/±è°æ¹Î/Desktop/IFX_S2GL-HW-SW_V1.1.3/Firmware_Software/DAVE project/S2GL_Doppler/Libraries/XMCLib/inc\xmc_gpio.h ****  * disclaimer in the documentation and/or other materials provided with the distribution.          
  20:C:/Users/±è°æ¹Î/Desktop/IFX_S2GL-HW-SW_V1.1.3/Firmware_Software/DAVE project/S2GL_Doppler/Libraries/XMCLib/inc\xmc_gpio.h ****  * 
  21:C:/Users/±è°æ¹Î/Desktop/IFX_S2GL-HW-SW_V1.1.3/Firmware_Software/DAVE project/S2GL_Doppler/Libraries/XMCLib/inc\xmc_gpio.h ****  * Neither the name of the copyright holders nor the names of its contributors may be used to endor
  22:C:/Users/±è°æ¹Î/Desktop/IFX_S2GL-HW-SW_V1.1.3/Firmware_Software/DAVE project/S2GL_Doppler/Libraries/XMCLib/inc\xmc_gpio.h ****  * products derived from this software without specific prior written permission.                  
  23:C:/Users/±è°æ¹Î/Desktop/IFX_S2GL-HW-SW_V1.1.3/Firmware_Software/DAVE project/S2GL_Doppler/Libraries/XMCLib/inc\xmc_gpio.h ****  *                                                                              
  24:C:/Users/±è°æ¹Î/Desktop/IFX_S2GL-HW-SW_V1.1.3/Firmware_Software/DAVE project/S2GL_Doppler/Libraries/XMCLib/inc\xmc_gpio.h ****  * THIS SOFTWARE IS PROVIDED BY THE COPYRIGHT HOLDERS AND CONTRIBUTORS "AS IS" AND ANY EXPRESS OR I
  25:C:/Users/±è°æ¹Î/Desktop/IFX_S2GL-HW-SW_V1.1.3/Firmware_Software/DAVE project/S2GL_Doppler/Libraries/XMCLib/inc\xmc_gpio.h ****  * INCLUDING, BUT NOT LIMITED TO, THE IMPLIED WARRANTIES OF MERCHANTABILITY AND FITNESS FOR A PARTI
  26:C:/Users/±è°æ¹Î/Desktop/IFX_S2GL-HW-SW_V1.1.3/Firmware_Software/DAVE project/S2GL_Doppler/Libraries/XMCLib/inc\xmc_gpio.h ****  * DISCLAIMED. IN NO EVENT SHALL THE COPYRIGHT HOLDER OR CONTRIBUTORS BE LIABLE  FOR ANY DIRECT, IN
  27:C:/Users/±è°æ¹Î/Desktop/IFX_S2GL-HW-SW_V1.1.3/Firmware_Software/DAVE project/S2GL_Doppler/Libraries/XMCLib/inc\xmc_gpio.h ****  * SPECIAL, EXEMPLARY, OR CONSEQUENTIAL DAMAGES (INCLUDING, BUT NOT LIMITED TO, PROCUREMENT OF SUBS
  28:C:/Users/±è°æ¹Î/Desktop/IFX_S2GL-HW-SW_V1.1.3/Firmware_Software/DAVE project/S2GL_Doppler/Libraries/XMCLib/inc\xmc_gpio.h ****  * SERVICES; LOSS OF USE, DATA, OR PROFITS; OR BUSINESS INTERRUPTION) HOWEVER CAUSED AND ON ANY THE
  29:C:/Users/±è°æ¹Î/Desktop/IFX_S2GL-HW-SW_V1.1.3/Firmware_Software/DAVE project/S2GL_Doppler/Libraries/XMCLib/inc\xmc_gpio.h ****  * WHETHER IN CONTRACT, STRICT LIABILITY,OR TORT (INCLUDING NEGLIGENCE OR OTHERWISE) ARISING IN ANY
  30:C:/Users/±è°æ¹Î/Desktop/IFX_S2GL-HW-SW_V1.1.3/Firmware_Software/DAVE project/S2GL_Doppler/Libraries/XMCLib/inc\xmc_gpio.h ****  * OF THIS SOFTWARE, EVEN IF ADVISED OF THE POSSIBILITY OF SUCH DAMAGE.                            
  31:C:/Users/±è°æ¹Î/Desktop/IFX_S2GL-HW-SW_V1.1.3/Firmware_Software/DAVE project/S2GL_Doppler/Libraries/XMCLib/inc\xmc_gpio.h ****  *                                                                              
  32:C:/Users/±è°æ¹Î/Desktop/IFX_S2GL-HW-SW_V1.1.3/Firmware_Software/DAVE project/S2GL_Doppler/Libraries/XMCLib/inc\xmc_gpio.h ****  * To improve the quality of the software, users are encouraged to share modifications, enhancement
  33:C:/Users/±è°æ¹Î/Desktop/IFX_S2GL-HW-SW_V1.1.3/Firmware_Software/DAVE project/S2GL_Doppler/Libraries/XMCLib/inc\xmc_gpio.h ****  * Infineon Technologies AG dave@infineon.com).                                                    
  34:C:/Users/±è°æ¹Î/Desktop/IFX_S2GL-HW-SW_V1.1.3/Firmware_Software/DAVE project/S2GL_Doppler/Libraries/XMCLib/inc\xmc_gpio.h ****  **************************************************************************************************
  35:C:/Users/±è°æ¹Î/Desktop/IFX_S2GL-HW-SW_V1.1.3/Firmware_Software/DAVE project/S2GL_Doppler/Libraries/XMCLib/inc\xmc_gpio.h ****  *
  36:C:/Users/±è°æ¹Î/Desktop/IFX_S2GL-HW-SW_V1.1.3/Firmware_Software/DAVE project/S2GL_Doppler/Libraries/XMCLib/inc\xmc_gpio.h ****  * Change History
  37:C:/Users/±è°æ¹Î/Desktop/IFX_S2GL-HW-SW_V1.1.3/Firmware_Software/DAVE project/S2GL_Doppler/Libraries/XMCLib/inc\xmc_gpio.h ****  * --------------
  38:C:/Users/±è°æ¹Î/Desktop/IFX_S2GL-HW-SW_V1.1.3/Firmware_Software/DAVE project/S2GL_Doppler/Libraries/XMCLib/inc\xmc_gpio.h ****  *
  39:C:/Users/±è°æ¹Î/Desktop/IFX_S2GL-HW-SW_V1.1.3/Firmware_Software/DAVE project/S2GL_Doppler/Libraries/XMCLib/inc\xmc_gpio.h ****  * 2015-02-20:
  40:C:/Users/±è°æ¹Î/Desktop/IFX_S2GL-HW-SW_V1.1.3/Firmware_Software/DAVE project/S2GL_Doppler/Libraries/XMCLib/inc\xmc_gpio.h ****  *     - Initial draft<br>
  41:C:/Users/±è°æ¹Î/Desktop/IFX_S2GL-HW-SW_V1.1.3/Firmware_Software/DAVE project/S2GL_Doppler/Libraries/XMCLib/inc\xmc_gpio.h ****  *     - Documentation improved <br>
  42:C:/Users/±è°æ¹Î/Desktop/IFX_S2GL-HW-SW_V1.1.3/Firmware_Software/DAVE project/S2GL_Doppler/Libraries/XMCLib/inc\xmc_gpio.h ****  *      
  43:C:/Users/±è°æ¹Î/Desktop/IFX_S2GL-HW-SW_V1.1.3/Firmware_Software/DAVE project/S2GL_Doppler/Libraries/XMCLib/inc\xmc_gpio.h ****  * 2015-06-20:
  44:C:/Users/±è°æ¹Î/Desktop/IFX_S2GL-HW-SW_V1.1.3/Firmware_Software/DAVE project/S2GL_Doppler/Libraries/XMCLib/inc\xmc_gpio.h ****  *     - Removed version macros and declaration of GetDriverVersion API
  45:C:/Users/±è°æ¹Î/Desktop/IFX_S2GL-HW-SW_V1.1.3/Firmware_Software/DAVE project/S2GL_Doppler/Libraries/XMCLib/inc\xmc_gpio.h ****  *
  46:C:/Users/±è°æ¹Î/Desktop/IFX_S2GL-HW-SW_V1.1.3/Firmware_Software/DAVE project/S2GL_Doppler/Libraries/XMCLib/inc\xmc_gpio.h ****  * @endcond
  47:C:/Users/±è°æ¹Î/Desktop/IFX_S2GL-HW-SW_V1.1.3/Firmware_Software/DAVE project/S2GL_Doppler/Libraries/XMCLib/inc\xmc_gpio.h ****  *
  48:C:/Users/±è°æ¹Î/Desktop/IFX_S2GL-HW-SW_V1.1.3/Firmware_Software/DAVE project/S2GL_Doppler/Libraries/XMCLib/inc\xmc_gpio.h ****  */
  49:C:/Users/±è°æ¹Î/Desktop/IFX_S2GL-HW-SW_V1.1.3/Firmware_Software/DAVE project/S2GL_Doppler/Libraries/XMCLib/inc\xmc_gpio.h **** 
  50:C:/Users/±è°æ¹Î/Desktop/IFX_S2GL-HW-SW_V1.1.3/Firmware_Software/DAVE project/S2GL_Doppler/Libraries/XMCLib/inc\xmc_gpio.h **** #ifndef XMC_GPIO_H
  51:C:/Users/±è°æ¹Î/Desktop/IFX_S2GL-HW-SW_V1.1.3/Firmware_Software/DAVE project/S2GL_Doppler/Libraries/XMCLib/inc\xmc_gpio.h **** #define XMC_GPIO_H
  52:C:/Users/±è°æ¹Î/Desktop/IFX_S2GL-HW-SW_V1.1.3/Firmware_Software/DAVE project/S2GL_Doppler/Libraries/XMCLib/inc\xmc_gpio.h **** 
  53:C:/Users/±è°æ¹Î/Desktop/IFX_S2GL-HW-SW_V1.1.3/Firmware_Software/DAVE project/S2GL_Doppler/Libraries/XMCLib/inc\xmc_gpio.h **** /**************************************************************************************************
  54:C:/Users/±è°æ¹Î/Desktop/IFX_S2GL-HW-SW_V1.1.3/Firmware_Software/DAVE project/S2GL_Doppler/Libraries/XMCLib/inc\xmc_gpio.h ****  * HEADER FILES
  55:C:/Users/±è°æ¹Î/Desktop/IFX_S2GL-HW-SW_V1.1.3/Firmware_Software/DAVE project/S2GL_Doppler/Libraries/XMCLib/inc\xmc_gpio.h ****  **************************************************************************************************
  56:C:/Users/±è°æ¹Î/Desktop/IFX_S2GL-HW-SW_V1.1.3/Firmware_Software/DAVE project/S2GL_Doppler/Libraries/XMCLib/inc\xmc_gpio.h **** 
  57:C:/Users/±è°æ¹Î/Desktop/IFX_S2GL-HW-SW_V1.1.3/Firmware_Software/DAVE project/S2GL_Doppler/Libraries/XMCLib/inc\xmc_gpio.h **** #include "xmc_common.h"
  58:C:/Users/±è°æ¹Î/Desktop/IFX_S2GL-HW-SW_V1.1.3/Firmware_Software/DAVE project/S2GL_Doppler/Libraries/XMCLib/inc\xmc_gpio.h **** 
  59:C:/Users/±è°æ¹Î/Desktop/IFX_S2GL-HW-SW_V1.1.3/Firmware_Software/DAVE project/S2GL_Doppler/Libraries/XMCLib/inc\xmc_gpio.h **** /**
  60:C:/Users/±è°æ¹Î/Desktop/IFX_S2GL-HW-SW_V1.1.3/Firmware_Software/DAVE project/S2GL_Doppler/Libraries/XMCLib/inc\xmc_gpio.h ****  * @addtogroup XMClib XMC Peripheral Library
  61:C:/Users/±è°æ¹Î/Desktop/IFX_S2GL-HW-SW_V1.1.3/Firmware_Software/DAVE project/S2GL_Doppler/Libraries/XMCLib/inc\xmc_gpio.h ****  * @{
  62:C:/Users/±è°æ¹Î/Desktop/IFX_S2GL-HW-SW_V1.1.3/Firmware_Software/DAVE project/S2GL_Doppler/Libraries/XMCLib/inc\xmc_gpio.h ****  */
  63:C:/Users/±è°æ¹Î/Desktop/IFX_S2GL-HW-SW_V1.1.3/Firmware_Software/DAVE project/S2GL_Doppler/Libraries/XMCLib/inc\xmc_gpio.h **** 
  64:C:/Users/±è°æ¹Î/Desktop/IFX_S2GL-HW-SW_V1.1.3/Firmware_Software/DAVE project/S2GL_Doppler/Libraries/XMCLib/inc\xmc_gpio.h **** /**
  65:C:/Users/±è°æ¹Î/Desktop/IFX_S2GL-HW-SW_V1.1.3/Firmware_Software/DAVE project/S2GL_Doppler/Libraries/XMCLib/inc\xmc_gpio.h ****  * @addtogroup GPIO
  66:C:/Users/±è°æ¹Î/Desktop/IFX_S2GL-HW-SW_V1.1.3/Firmware_Software/DAVE project/S2GL_Doppler/Libraries/XMCLib/inc\xmc_gpio.h ****  * @brief General Purpose Input Output (GPIO) driver for the XMC microcontroller family.
  67:C:/Users/±è°æ¹Î/Desktop/IFX_S2GL-HW-SW_V1.1.3/Firmware_Software/DAVE project/S2GL_Doppler/Libraries/XMCLib/inc\xmc_gpio.h ****  *
  68:C:/Users/±è°æ¹Î/Desktop/IFX_S2GL-HW-SW_V1.1.3/Firmware_Software/DAVE project/S2GL_Doppler/Libraries/XMCLib/inc\xmc_gpio.h ****  * GPIO driver provide a generic and very flexible software interface for all standard digital I/O 
  69:C:/Users/±è°æ¹Î/Desktop/IFX_S2GL-HW-SW_V1.1.3/Firmware_Software/DAVE project/S2GL_Doppler/Libraries/XMCLib/inc\xmc_gpio.h ****  * Each port slice has individual interfaces for the operation as General Purpose I/O and it furthe
  70:C:/Users/±è°æ¹Î/Desktop/IFX_S2GL-HW-SW_V1.1.3/Firmware_Software/DAVE project/S2GL_Doppler/Libraries/XMCLib/inc\xmc_gpio.h ****  * connectivity to the on-chip periphery and the control for the pad characteristics. 
  71:C:/Users/±è°æ¹Î/Desktop/IFX_S2GL-HW-SW_V1.1.3/Firmware_Software/DAVE project/S2GL_Doppler/Libraries/XMCLib/inc\xmc_gpio.h ****  *
  72:C:/Users/±è°æ¹Î/Desktop/IFX_S2GL-HW-SW_V1.1.3/Firmware_Software/DAVE project/S2GL_Doppler/Libraries/XMCLib/inc\xmc_gpio.h ****  * The driver is divided into Input and Output mode.
  73:C:/Users/±è°æ¹Î/Desktop/IFX_S2GL-HW-SW_V1.1.3/Firmware_Software/DAVE project/S2GL_Doppler/Libraries/XMCLib/inc\xmc_gpio.h ****  *
  74:C:/Users/±è°æ¹Î/Desktop/IFX_S2GL-HW-SW_V1.1.3/Firmware_Software/DAVE project/S2GL_Doppler/Libraries/XMCLib/inc\xmc_gpio.h ****  * Input mode features:
  75:C:/Users/±è°æ¹Î/Desktop/IFX_S2GL-HW-SW_V1.1.3/Firmware_Software/DAVE project/S2GL_Doppler/Libraries/XMCLib/inc\xmc_gpio.h ****  * -# Configuration structure XMC_GPIO_CONFIG_t and initialization function XMC_GPIO_Init()
  76:C:/Users/±è°æ¹Î/Desktop/IFX_S2GL-HW-SW_V1.1.3/Firmware_Software/DAVE project/S2GL_Doppler/Libraries/XMCLib/inc\xmc_gpio.h ****  * -# Allows the selection of weak pull-up or pull-down device. Configuration structure XMC_GPIO_MO
  77:C:/Users/±è°æ¹Î/Desktop/IFX_S2GL-HW-SW_V1.1.3/Firmware_Software/DAVE project/S2GL_Doppler/Libraries/XMCLib/inc\xmc_gpio.h ****  * \if XMC1
  78:C:/Users/±è°æ¹Î/Desktop/IFX_S2GL-HW-SW_V1.1.3/Firmware_Software/DAVE project/S2GL_Doppler/Libraries/XMCLib/inc\xmc_gpio.h ****  * -# Allows the selection of input hysteresis. XMC_GPIO_SetInputHysteresis()
  79:C:/Users/±è°æ¹Î/Desktop/IFX_S2GL-HW-SW_V1.1.3/Firmware_Software/DAVE project/S2GL_Doppler/Libraries/XMCLib/inc\xmc_gpio.h ****  * \endif
  80:C:/Users/±è°æ¹Î/Desktop/IFX_S2GL-HW-SW_V1.1.3/Firmware_Software/DAVE project/S2GL_Doppler/Libraries/XMCLib/inc\xmc_gpio.h ****  *
  81:C:/Users/±è°æ¹Î/Desktop/IFX_S2GL-HW-SW_V1.1.3/Firmware_Software/DAVE project/S2GL_Doppler/Libraries/XMCLib/inc\xmc_gpio.h ****  * 
  82:C:/Users/±è°æ¹Î/Desktop/IFX_S2GL-HW-SW_V1.1.3/Firmware_Software/DAVE project/S2GL_Doppler/Libraries/XMCLib/inc\xmc_gpio.h ****  * Output mode features:
  83:C:/Users/±è°æ¹Î/Desktop/IFX_S2GL-HW-SW_V1.1.3/Firmware_Software/DAVE project/S2GL_Doppler/Libraries/XMCLib/inc\xmc_gpio.h ****  * -# Allows the selection of push pull/open drain and Alternate output. Configuration structure XM
  84:C:/Users/±è°æ¹Î/Desktop/IFX_S2GL-HW-SW_V1.1.3/Firmware_Software/DAVE project/S2GL_Doppler/Libraries/XMCLib/inc\xmc_gpio.h ****  * \if XMC4
  85:C:/Users/±è°æ¹Î/Desktop/IFX_S2GL-HW-SW_V1.1.3/Firmware_Software/DAVE project/S2GL_Doppler/Libraries/XMCLib/inc\xmc_gpio.h ****  * -# Allows the selection of pad driver strength. Configuration structure XMC_GPIO_OUTPUT_STRENGTH
  86:C:/Users/±è°æ¹Î/Desktop/IFX_S2GL-HW-SW_V1.1.3/Firmware_Software/DAVE project/S2GL_Doppler/Libraries/XMCLib/inc\xmc_gpio.h ****  * \endif
  87:C:/Users/±è°æ¹Î/Desktop/IFX_S2GL-HW-SW_V1.1.3/Firmware_Software/DAVE project/S2GL_Doppler/Libraries/XMCLib/inc\xmc_gpio.h ****  *
  88:C:/Users/±è°æ¹Î/Desktop/IFX_S2GL-HW-SW_V1.1.3/Firmware_Software/DAVE project/S2GL_Doppler/Libraries/XMCLib/inc\xmc_gpio.h ****  * -# Allows the selection of initial output level. Configuration structure XMC_GPIO_OUTPUT_LEVEL_t
  89:C:/Users/±è°æ¹Î/Desktop/IFX_S2GL-HW-SW_V1.1.3/Firmware_Software/DAVE project/S2GL_Doppler/Libraries/XMCLib/inc\xmc_gpio.h ****  *
  90:C:/Users/±è°æ¹Î/Desktop/IFX_S2GL-HW-SW_V1.1.3/Firmware_Software/DAVE project/S2GL_Doppler/Libraries/XMCLib/inc\xmc_gpio.h ****  *@{
  91:C:/Users/±è°æ¹Î/Desktop/IFX_S2GL-HW-SW_V1.1.3/Firmware_Software/DAVE project/S2GL_Doppler/Libraries/XMCLib/inc\xmc_gpio.h ****  */
  92:C:/Users/±è°æ¹Î/Desktop/IFX_S2GL-HW-SW_V1.1.3/Firmware_Software/DAVE project/S2GL_Doppler/Libraries/XMCLib/inc\xmc_gpio.h ****  
  93:C:/Users/±è°æ¹Î/Desktop/IFX_S2GL-HW-SW_V1.1.3/Firmware_Software/DAVE project/S2GL_Doppler/Libraries/XMCLib/inc\xmc_gpio.h **** /**************************************************************************************************
  94:C:/Users/±è°æ¹Î/Desktop/IFX_S2GL-HW-SW_V1.1.3/Firmware_Software/DAVE project/S2GL_Doppler/Libraries/XMCLib/inc\xmc_gpio.h ****  * MACROS
  95:C:/Users/±è°æ¹Î/Desktop/IFX_S2GL-HW-SW_V1.1.3/Firmware_Software/DAVE project/S2GL_Doppler/Libraries/XMCLib/inc\xmc_gpio.h ****  **************************************************************************************************
  96:C:/Users/±è°æ¹Î/Desktop/IFX_S2GL-HW-SW_V1.1.3/Firmware_Software/DAVE project/S2GL_Doppler/Libraries/XMCLib/inc\xmc_gpio.h **** 
  97:C:/Users/±è°æ¹Î/Desktop/IFX_S2GL-HW-SW_V1.1.3/Firmware_Software/DAVE project/S2GL_Doppler/Libraries/XMCLib/inc\xmc_gpio.h **** #define PORT_IOCR_PC_Pos PORT0_IOCR0_PC0_Pos
  98:C:/Users/±è°æ¹Î/Desktop/IFX_S2GL-HW-SW_V1.1.3/Firmware_Software/DAVE project/S2GL_Doppler/Libraries/XMCLib/inc\xmc_gpio.h **** #define PORT_IOCR_PC_Msk PORT0_IOCR0_PC0_Msk
  99:C:/Users/±è°æ¹Î/Desktop/IFX_S2GL-HW-SW_V1.1.3/Firmware_Software/DAVE project/S2GL_Doppler/Libraries/XMCLib/inc\xmc_gpio.h **** 
 100:C:/Users/±è°æ¹Î/Desktop/IFX_S2GL-HW-SW_V1.1.3/Firmware_Software/DAVE project/S2GL_Doppler/Libraries/XMCLib/inc\xmc_gpio.h **** #define PORT_IOCR_PC_Size 				(8U)
 101:C:/Users/±è°æ¹Î/Desktop/IFX_S2GL-HW-SW_V1.1.3/Firmware_Software/DAVE project/S2GL_Doppler/Libraries/XMCLib/inc\xmc_gpio.h **** 											
 102:C:/Users/±è°æ¹Î/Desktop/IFX_S2GL-HW-SW_V1.1.3/Firmware_Software/DAVE project/S2GL_Doppler/Libraries/XMCLib/inc\xmc_gpio.h **** 
 103:C:/Users/±è°æ¹Î/Desktop/IFX_S2GL-HW-SW_V1.1.3/Firmware_Software/DAVE project/S2GL_Doppler/Libraries/XMCLib/inc\xmc_gpio.h **** #define XMC_GPIO_CHECK_OUTPUT_LEVEL(level) ((level == XMC_GPIO_OUTPUT_LEVEL_LOW) || \
 104:C:/Users/±è°æ¹Î/Desktop/IFX_S2GL-HW-SW_V1.1.3/Firmware_Software/DAVE project/S2GL_Doppler/Libraries/XMCLib/inc\xmc_gpio.h ****                                             (level == XMC_GPIO_OUTPUT_LEVEL_HIGH))
 105:C:/Users/±è°æ¹Î/Desktop/IFX_S2GL-HW-SW_V1.1.3/Firmware_Software/DAVE project/S2GL_Doppler/Libraries/XMCLib/inc\xmc_gpio.h ****                                             
 106:C:/Users/±è°æ¹Î/Desktop/IFX_S2GL-HW-SW_V1.1.3/Firmware_Software/DAVE project/S2GL_Doppler/Libraries/XMCLib/inc\xmc_gpio.h **** #define XMC_GPIO_CHECK_HWCTRL(hwctrl) ((hwctrl == XMC_GPIO_HWCTRL_DISABLED) || \
 107:C:/Users/±è°æ¹Î/Desktop/IFX_S2GL-HW-SW_V1.1.3/Firmware_Software/DAVE project/S2GL_Doppler/Libraries/XMCLib/inc\xmc_gpio.h ****                                        (hwctrl == XMC_GPIO_HWCTRL_PERIPHERAL1) || \
 108:C:/Users/±è°æ¹Î/Desktop/IFX_S2GL-HW-SW_V1.1.3/Firmware_Software/DAVE project/S2GL_Doppler/Libraries/XMCLib/inc\xmc_gpio.h ****                                        (hwctrl == XMC_GPIO_HWCTRL_PERIPHERAL2))                    
 109:C:/Users/±è°æ¹Î/Desktop/IFX_S2GL-HW-SW_V1.1.3/Firmware_Software/DAVE project/S2GL_Doppler/Libraries/XMCLib/inc\xmc_gpio.h ****                                             
 110:C:/Users/±è°æ¹Î/Desktop/IFX_S2GL-HW-SW_V1.1.3/Firmware_Software/DAVE project/S2GL_Doppler/Libraries/XMCLib/inc\xmc_gpio.h **** /**************************************************************************************************
 111:C:/Users/±è°æ¹Î/Desktop/IFX_S2GL-HW-SW_V1.1.3/Firmware_Software/DAVE project/S2GL_Doppler/Libraries/XMCLib/inc\xmc_gpio.h ****  * ENUMS
 112:C:/Users/±è°æ¹Î/Desktop/IFX_S2GL-HW-SW_V1.1.3/Firmware_Software/DAVE project/S2GL_Doppler/Libraries/XMCLib/inc\xmc_gpio.h ****  **************************************************************************************************
 113:C:/Users/±è°æ¹Î/Desktop/IFX_S2GL-HW-SW_V1.1.3/Firmware_Software/DAVE project/S2GL_Doppler/Libraries/XMCLib/inc\xmc_gpio.h **** 
 114:C:/Users/±è°æ¹Î/Desktop/IFX_S2GL-HW-SW_V1.1.3/Firmware_Software/DAVE project/S2GL_Doppler/Libraries/XMCLib/inc\xmc_gpio.h **** 
 115:C:/Users/±è°æ¹Î/Desktop/IFX_S2GL-HW-SW_V1.1.3/Firmware_Software/DAVE project/S2GL_Doppler/Libraries/XMCLib/inc\xmc_gpio.h **** /**
 116:C:/Users/±è°æ¹Î/Desktop/IFX_S2GL-HW-SW_V1.1.3/Firmware_Software/DAVE project/S2GL_Doppler/Libraries/XMCLib/inc\xmc_gpio.h ****  * Defines output level of a pin. Use type \a XMC_GPIO_OUTPUT_LEVEL_t for this enum.
 117:C:/Users/±è°æ¹Î/Desktop/IFX_S2GL-HW-SW_V1.1.3/Firmware_Software/DAVE project/S2GL_Doppler/Libraries/XMCLib/inc\xmc_gpio.h ****  */
 118:C:/Users/±è°æ¹Î/Desktop/IFX_S2GL-HW-SW_V1.1.3/Firmware_Software/DAVE project/S2GL_Doppler/Libraries/XMCLib/inc\xmc_gpio.h **** typedef enum XMC_GPIO_OUTPUT_LEVEL
 119:C:/Users/±è°æ¹Î/Desktop/IFX_S2GL-HW-SW_V1.1.3/Firmware_Software/DAVE project/S2GL_Doppler/Libraries/XMCLib/inc\xmc_gpio.h **** {
 120:C:/Users/±è°æ¹Î/Desktop/IFX_S2GL-HW-SW_V1.1.3/Firmware_Software/DAVE project/S2GL_Doppler/Libraries/XMCLib/inc\xmc_gpio.h ****   XMC_GPIO_OUTPUT_LEVEL_LOW  = 0x10000U, /**<  Reset bit */
 121:C:/Users/±è°æ¹Î/Desktop/IFX_S2GL-HW-SW_V1.1.3/Firmware_Software/DAVE project/S2GL_Doppler/Libraries/XMCLib/inc\xmc_gpio.h ****   XMC_GPIO_OUTPUT_LEVEL_HIGH = 0x1U, 	/**< Set bit  */
 122:C:/Users/±è°æ¹Î/Desktop/IFX_S2GL-HW-SW_V1.1.3/Firmware_Software/DAVE project/S2GL_Doppler/Libraries/XMCLib/inc\xmc_gpio.h **** } XMC_GPIO_OUTPUT_LEVEL_t;
 123:C:/Users/±è°æ¹Î/Desktop/IFX_S2GL-HW-SW_V1.1.3/Firmware_Software/DAVE project/S2GL_Doppler/Libraries/XMCLib/inc\xmc_gpio.h **** 
 124:C:/Users/±è°æ¹Î/Desktop/IFX_S2GL-HW-SW_V1.1.3/Firmware_Software/DAVE project/S2GL_Doppler/Libraries/XMCLib/inc\xmc_gpio.h **** /**
 125:C:/Users/±è°æ¹Î/Desktop/IFX_S2GL-HW-SW_V1.1.3/Firmware_Software/DAVE project/S2GL_Doppler/Libraries/XMCLib/inc\xmc_gpio.h ****  * Defines direct hardware control characteristics of the pin . Use type \a XMC_GPIO_HWCTRL_t for t
 126:C:/Users/±è°æ¹Î/Desktop/IFX_S2GL-HW-SW_V1.1.3/Firmware_Software/DAVE project/S2GL_Doppler/Libraries/XMCLib/inc\xmc_gpio.h ****  */
 127:C:/Users/±è°æ¹Î/Desktop/IFX_S2GL-HW-SW_V1.1.3/Firmware_Software/DAVE project/S2GL_Doppler/Libraries/XMCLib/inc\xmc_gpio.h **** typedef enum XMC_GPIO_HWCTRL
 128:C:/Users/±è°æ¹Î/Desktop/IFX_S2GL-HW-SW_V1.1.3/Firmware_Software/DAVE project/S2GL_Doppler/Libraries/XMCLib/inc\xmc_gpio.h **** {
 129:C:/Users/±è°æ¹Î/Desktop/IFX_S2GL-HW-SW_V1.1.3/Firmware_Software/DAVE project/S2GL_Doppler/Libraries/XMCLib/inc\xmc_gpio.h ****   XMC_GPIO_HWCTRL_DISABLED     = 0x0U, /**<  Software control only */
 130:C:/Users/±è°æ¹Î/Desktop/IFX_S2GL-HW-SW_V1.1.3/Firmware_Software/DAVE project/S2GL_Doppler/Libraries/XMCLib/inc\xmc_gpio.h ****   XMC_GPIO_HWCTRL_PERIPHERAL1  = 0x1U, /**<  HWI0/HWO0 control path can override the software confi
 131:C:/Users/±è°æ¹Î/Desktop/IFX_S2GL-HW-SW_V1.1.3/Firmware_Software/DAVE project/S2GL_Doppler/Libraries/XMCLib/inc\xmc_gpio.h ****   XMC_GPIO_HWCTRL_PERIPHERAL2  = 0x2U  /**<  HWI1/HWO1 control path can override the software confi
 132:C:/Users/±è°æ¹Î/Desktop/IFX_S2GL-HW-SW_V1.1.3/Firmware_Software/DAVE project/S2GL_Doppler/Libraries/XMCLib/inc\xmc_gpio.h **** } XMC_GPIO_HWCTRL_t;
 133:C:/Users/±è°æ¹Î/Desktop/IFX_S2GL-HW-SW_V1.1.3/Firmware_Software/DAVE project/S2GL_Doppler/Libraries/XMCLib/inc\xmc_gpio.h **** 
 134:C:/Users/±è°æ¹Î/Desktop/IFX_S2GL-HW-SW_V1.1.3/Firmware_Software/DAVE project/S2GL_Doppler/Libraries/XMCLib/inc\xmc_gpio.h **** /**************************************************************************************************
 135:C:/Users/±è°æ¹Î/Desktop/IFX_S2GL-HW-SW_V1.1.3/Firmware_Software/DAVE project/S2GL_Doppler/Libraries/XMCLib/inc\xmc_gpio.h ****  * DEVICE FAMILY EXTENSIONS
 136:C:/Users/±è°æ¹Î/Desktop/IFX_S2GL-HW-SW_V1.1.3/Firmware_Software/DAVE project/S2GL_Doppler/Libraries/XMCLib/inc\xmc_gpio.h ****  **************************************************************************************************
 137:C:/Users/±è°æ¹Î/Desktop/IFX_S2GL-HW-SW_V1.1.3/Firmware_Software/DAVE project/S2GL_Doppler/Libraries/XMCLib/inc\xmc_gpio.h **** 
 138:C:/Users/±è°æ¹Î/Desktop/IFX_S2GL-HW-SW_V1.1.3/Firmware_Software/DAVE project/S2GL_Doppler/Libraries/XMCLib/inc\xmc_gpio.h ****  #if UC_FAMILY == XMC1
 139:C:/Users/±è°æ¹Î/Desktop/IFX_S2GL-HW-SW_V1.1.3/Firmware_Software/DAVE project/S2GL_Doppler/Libraries/XMCLib/inc\xmc_gpio.h **** #include "xmc1_gpio.h"
 140:C:/Users/±è°æ¹Î/Desktop/IFX_S2GL-HW-SW_V1.1.3/Firmware_Software/DAVE project/S2GL_Doppler/Libraries/XMCLib/inc\xmc_gpio.h **** #elif UC_FAMILY == XMC4
 141:C:/Users/±è°æ¹Î/Desktop/IFX_S2GL-HW-SW_V1.1.3/Firmware_Software/DAVE project/S2GL_Doppler/Libraries/XMCLib/inc\xmc_gpio.h **** #include "xmc4_gpio.h"
 142:C:/Users/±è°æ¹Î/Desktop/IFX_S2GL-HW-SW_V1.1.3/Firmware_Software/DAVE project/S2GL_Doppler/Libraries/XMCLib/inc\xmc_gpio.h **** #else
 143:C:/Users/±è°æ¹Î/Desktop/IFX_S2GL-HW-SW_V1.1.3/Firmware_Software/DAVE project/S2GL_Doppler/Libraries/XMCLib/inc\xmc_gpio.h **** #error "xmc_gpio.h: family device not supported"
 144:C:/Users/±è°æ¹Î/Desktop/IFX_S2GL-HW-SW_V1.1.3/Firmware_Software/DAVE project/S2GL_Doppler/Libraries/XMCLib/inc\xmc_gpio.h **** #endif
 145:C:/Users/±è°æ¹Î/Desktop/IFX_S2GL-HW-SW_V1.1.3/Firmware_Software/DAVE project/S2GL_Doppler/Libraries/XMCLib/inc\xmc_gpio.h **** 
 146:C:/Users/±è°æ¹Î/Desktop/IFX_S2GL-HW-SW_V1.1.3/Firmware_Software/DAVE project/S2GL_Doppler/Libraries/XMCLib/inc\xmc_gpio.h **** /**************************************************************************************************
 147:C:/Users/±è°æ¹Î/Desktop/IFX_S2GL-HW-SW_V1.1.3/Firmware_Software/DAVE project/S2GL_Doppler/Libraries/XMCLib/inc\xmc_gpio.h ****  * API PROTOTYPES
 148:C:/Users/±è°æ¹Î/Desktop/IFX_S2GL-HW-SW_V1.1.3/Firmware_Software/DAVE project/S2GL_Doppler/Libraries/XMCLib/inc\xmc_gpio.h ****  **************************************************************************************************
 149:C:/Users/±è°æ¹Î/Desktop/IFX_S2GL-HW-SW_V1.1.3/Firmware_Software/DAVE project/S2GL_Doppler/Libraries/XMCLib/inc\xmc_gpio.h **** 
 150:C:/Users/±è°æ¹Î/Desktop/IFX_S2GL-HW-SW_V1.1.3/Firmware_Software/DAVE project/S2GL_Doppler/Libraries/XMCLib/inc\xmc_gpio.h **** #ifdef __cplusplus
 151:C:/Users/±è°æ¹Î/Desktop/IFX_S2GL-HW-SW_V1.1.3/Firmware_Software/DAVE project/S2GL_Doppler/Libraries/XMCLib/inc\xmc_gpio.h **** extern "C" {
 152:C:/Users/±è°æ¹Î/Desktop/IFX_S2GL-HW-SW_V1.1.3/Firmware_Software/DAVE project/S2GL_Doppler/Libraries/XMCLib/inc\xmc_gpio.h **** #endif
 153:C:/Users/±è°æ¹Î/Desktop/IFX_S2GL-HW-SW_V1.1.3/Firmware_Software/DAVE project/S2GL_Doppler/Libraries/XMCLib/inc\xmc_gpio.h **** 
 154:C:/Users/±è°æ¹Î/Desktop/IFX_S2GL-HW-SW_V1.1.3/Firmware_Software/DAVE project/S2GL_Doppler/Libraries/XMCLib/inc\xmc_gpio.h **** 
 155:C:/Users/±è°æ¹Î/Desktop/IFX_S2GL-HW-SW_V1.1.3/Firmware_Software/DAVE project/S2GL_Doppler/Libraries/XMCLib/inc\xmc_gpio.h **** /**
 156:C:/Users/±è°æ¹Î/Desktop/IFX_S2GL-HW-SW_V1.1.3/Firmware_Software/DAVE project/S2GL_Doppler/Libraries/XMCLib/inc\xmc_gpio.h ****  * @param  port	  Constant pointer pointing to GPIO port, to access port registers like Pn_OUT,Pn_O
 157:C:/Users/±è°æ¹Î/Desktop/IFX_S2GL-HW-SW_V1.1.3/Firmware_Software/DAVE project/S2GL_Doppler/Libraries/XMCLib/inc\xmc_gpio.h ****  * @param  pin	  Port pin number.
 158:C:/Users/±è°æ¹Î/Desktop/IFX_S2GL-HW-SW_V1.1.3/Firmware_Software/DAVE project/S2GL_Doppler/Libraries/XMCLib/inc\xmc_gpio.h ****  * @param  config GPIO configuration data structure. Refer data structure @ref XMC_GPIO_CONFIG_t fo
 159:C:/Users/±è°æ¹Î/Desktop/IFX_S2GL-HW-SW_V1.1.3/Firmware_Software/DAVE project/S2GL_Doppler/Libraries/XMCLib/inc\xmc_gpio.h ****  *
 160:C:/Users/±è°æ¹Î/Desktop/IFX_S2GL-HW-SW_V1.1.3/Firmware_Software/DAVE project/S2GL_Doppler/Libraries/XMCLib/inc\xmc_gpio.h ****  * @return None
 161:C:/Users/±è°æ¹Î/Desktop/IFX_S2GL-HW-SW_V1.1.3/Firmware_Software/DAVE project/S2GL_Doppler/Libraries/XMCLib/inc\xmc_gpio.h ****  *
 162:C:/Users/±è°æ¹Î/Desktop/IFX_S2GL-HW-SW_V1.1.3/Firmware_Software/DAVE project/S2GL_Doppler/Libraries/XMCLib/inc\xmc_gpio.h ****  * \par<b>Description:</b><br>
 163:C:/Users/±è°æ¹Î/Desktop/IFX_S2GL-HW-SW_V1.1.3/Firmware_Software/DAVE project/S2GL_Doppler/Libraries/XMCLib/inc\xmc_gpio.h ****  * \if XMC1
 164:C:/Users/±è°æ¹Î/Desktop/IFX_S2GL-HW-SW_V1.1.3/Firmware_Software/DAVE project/S2GL_Doppler/Libraries/XMCLib/inc\xmc_gpio.h ****  * Initializes input / output mode settings like, pull up / pull down devices,hysteresis, push pull
 165:C:/Users/±è°æ¹Î/Desktop/IFX_S2GL-HW-SW_V1.1.3/Firmware_Software/DAVE project/S2GL_Doppler/Libraries/XMCLib/inc\xmc_gpio.h ****  * Also configures alternate function outputs and clears hardware port control for a selected \a po
 166:C:/Users/±è°æ¹Î/Desktop/IFX_S2GL-HW-SW_V1.1.3/Firmware_Software/DAVE project/S2GL_Doppler/Libraries/XMCLib/inc\xmc_gpio.h ****  * \a config provides selected I/O settings. It configures hardware registers Pn_IOCR,Pn_OUT, Pn_OM
 167:C:/Users/±è°æ¹Î/Desktop/IFX_S2GL-HW-SW_V1.1.3/Firmware_Software/DAVE project/S2GL_Doppler/Libraries/XMCLib/inc\xmc_gpio.h ****  * \endif
 168:C:/Users/±è°æ¹Î/Desktop/IFX_S2GL-HW-SW_V1.1.3/Firmware_Software/DAVE project/S2GL_Doppler/Libraries/XMCLib/inc\xmc_gpio.h ****  * \if XMC4
 169:C:/Users/±è°æ¹Î/Desktop/IFX_S2GL-HW-SW_V1.1.3/Firmware_Software/DAVE project/S2GL_Doppler/Libraries/XMCLib/inc\xmc_gpio.h ****  * Initializes input / output mode settings like, pull up / pull down devices,push pull /open drain
 170:C:/Users/±è°æ¹Î/Desktop/IFX_S2GL-HW-SW_V1.1.3/Firmware_Software/DAVE project/S2GL_Doppler/Libraries/XMCLib/inc\xmc_gpio.h ****  * Also configures alternate function outputs and clears hardware port control for selected \a port
 171:C:/Users/±è°æ¹Î/Desktop/IFX_S2GL-HW-SW_V1.1.3/Firmware_Software/DAVE project/S2GL_Doppler/Libraries/XMCLib/inc\xmc_gpio.h ****  * It configures hardware registers Pn_IOCR,Pn_OUT,Pn_OMR,Pn_PDISC and Pn_PDR.\n
 172:C:/Users/±è°æ¹Î/Desktop/IFX_S2GL-HW-SW_V1.1.3/Firmware_Software/DAVE project/S2GL_Doppler/Libraries/XMCLib/inc\xmc_gpio.h ****  * \endif
 173:C:/Users/±è°æ¹Î/Desktop/IFX_S2GL-HW-SW_V1.1.3/Firmware_Software/DAVE project/S2GL_Doppler/Libraries/XMCLib/inc\xmc_gpio.h ****  *
 174:C:/Users/±è°æ¹Î/Desktop/IFX_S2GL-HW-SW_V1.1.3/Firmware_Software/DAVE project/S2GL_Doppler/Libraries/XMCLib/inc\xmc_gpio.h ****  * \par<b>Related APIs:</b><BR>
 175:C:/Users/±è°æ¹Î/Desktop/IFX_S2GL-HW-SW_V1.1.3/Firmware_Software/DAVE project/S2GL_Doppler/Libraries/XMCLib/inc\xmc_gpio.h ****  *  None
 176:C:/Users/±è°æ¹Î/Desktop/IFX_S2GL-HW-SW_V1.1.3/Firmware_Software/DAVE project/S2GL_Doppler/Libraries/XMCLib/inc\xmc_gpio.h ****  *
 177:C:/Users/±è°æ¹Î/Desktop/IFX_S2GL-HW-SW_V1.1.3/Firmware_Software/DAVE project/S2GL_Doppler/Libraries/XMCLib/inc\xmc_gpio.h ****  * \par<b>Note:</b><br>
 178:C:/Users/±è°æ¹Î/Desktop/IFX_S2GL-HW-SW_V1.1.3/Firmware_Software/DAVE project/S2GL_Doppler/Libraries/XMCLib/inc\xmc_gpio.h ****  * This API is called in definition of DAVE_init by code generation and therefore should not be exp
 179:C:/Users/±è°æ¹Î/Desktop/IFX_S2GL-HW-SW_V1.1.3/Firmware_Software/DAVE project/S2GL_Doppler/Libraries/XMCLib/inc\xmc_gpio.h ****  * for the normal operation. Use other APIs only after DAVE_init is called successfully (returns DA
 180:C:/Users/±è°æ¹Î/Desktop/IFX_S2GL-HW-SW_V1.1.3/Firmware_Software/DAVE project/S2GL_Doppler/Libraries/XMCLib/inc\xmc_gpio.h ****  *
 181:C:/Users/±è°æ¹Î/Desktop/IFX_S2GL-HW-SW_V1.1.3/Firmware_Software/DAVE project/S2GL_Doppler/Libraries/XMCLib/inc\xmc_gpio.h ****  *
 182:C:/Users/±è°æ¹Î/Desktop/IFX_S2GL-HW-SW_V1.1.3/Firmware_Software/DAVE project/S2GL_Doppler/Libraries/XMCLib/inc\xmc_gpio.h ****  */
 183:C:/Users/±è°æ¹Î/Desktop/IFX_S2GL-HW-SW_V1.1.3/Firmware_Software/DAVE project/S2GL_Doppler/Libraries/XMCLib/inc\xmc_gpio.h **** 
 184:C:/Users/±è°æ¹Î/Desktop/IFX_S2GL-HW-SW_V1.1.3/Firmware_Software/DAVE project/S2GL_Doppler/Libraries/XMCLib/inc\xmc_gpio.h ****  
 185:C:/Users/±è°æ¹Î/Desktop/IFX_S2GL-HW-SW_V1.1.3/Firmware_Software/DAVE project/S2GL_Doppler/Libraries/XMCLib/inc\xmc_gpio.h **** void XMC_GPIO_Init(XMC_GPIO_PORT_t *const port, const uint8_t pin, const XMC_GPIO_CONFIG_t *const c
 186:C:/Users/±è°æ¹Î/Desktop/IFX_S2GL-HW-SW_V1.1.3/Firmware_Software/DAVE project/S2GL_Doppler/Libraries/XMCLib/inc\xmc_gpio.h ****  
 187:C:/Users/±è°æ¹Î/Desktop/IFX_S2GL-HW-SW_V1.1.3/Firmware_Software/DAVE project/S2GL_Doppler/Libraries/XMCLib/inc\xmc_gpio.h **** /**
 188:C:/Users/±è°æ¹Î/Desktop/IFX_S2GL-HW-SW_V1.1.3/Firmware_Software/DAVE project/S2GL_Doppler/Libraries/XMCLib/inc\xmc_gpio.h ****  *
 189:C:/Users/±è°æ¹Î/Desktop/IFX_S2GL-HW-SW_V1.1.3/Firmware_Software/DAVE project/S2GL_Doppler/Libraries/XMCLib/inc\xmc_gpio.h ****  * @param  port	Constant pointer pointing to GPIO port, to access hardware register Pn_IOCR.
 190:C:/Users/±è°æ¹Î/Desktop/IFX_S2GL-HW-SW_V1.1.3/Firmware_Software/DAVE project/S2GL_Doppler/Libraries/XMCLib/inc\xmc_gpio.h ****  * @param  pin	Port pin number.
 191:C:/Users/±è°æ¹Î/Desktop/IFX_S2GL-HW-SW_V1.1.3/Firmware_Software/DAVE project/S2GL_Doppler/Libraries/XMCLib/inc\xmc_gpio.h ****  * @param  mode input / output functionality selection. Refer @ref XMC_GPIO_MODE_t for valid values
 192:C:/Users/±è°æ¹Î/Desktop/IFX_S2GL-HW-SW_V1.1.3/Firmware_Software/DAVE project/S2GL_Doppler/Libraries/XMCLib/inc\xmc_gpio.h ****  *
 193:C:/Users/±è°æ¹Î/Desktop/IFX_S2GL-HW-SW_V1.1.3/Firmware_Software/DAVE project/S2GL_Doppler/Libraries/XMCLib/inc\xmc_gpio.h ****  * @return None
 194:C:/Users/±è°æ¹Î/Desktop/IFX_S2GL-HW-SW_V1.1.3/Firmware_Software/DAVE project/S2GL_Doppler/Libraries/XMCLib/inc\xmc_gpio.h ****  *
 195:C:/Users/±è°æ¹Î/Desktop/IFX_S2GL-HW-SW_V1.1.3/Firmware_Software/DAVE project/S2GL_Doppler/Libraries/XMCLib/inc\xmc_gpio.h ****  * \par<b>Description:</b><br>
 196:C:/Users/±è°æ¹Î/Desktop/IFX_S2GL-HW-SW_V1.1.3/Firmware_Software/DAVE project/S2GL_Doppler/Libraries/XMCLib/inc\xmc_gpio.h ****  * Sets digital input and output driver functionality and characteristics of a GPIO port pin. It co
 197:C:/Users/±è°æ¹Î/Desktop/IFX_S2GL-HW-SW_V1.1.3/Firmware_Software/DAVE project/S2GL_Doppler/Libraries/XMCLib/inc\xmc_gpio.h ****  * registers Pn_IOCR. \a mode is initially configured during initialization in XMC_GPIO_Init(). Cal
 198:C:/Users/±è°æ¹Î/Desktop/IFX_S2GL-HW-SW_V1.1.3/Firmware_Software/DAVE project/S2GL_Doppler/Libraries/XMCLib/inc\xmc_gpio.h ****  * the port direction functionality as needed later in the program.
 199:C:/Users/±è°æ¹Î/Desktop/IFX_S2GL-HW-SW_V1.1.3/Firmware_Software/DAVE project/S2GL_Doppler/Libraries/XMCLib/inc\xmc_gpio.h ****  *
 200:C:/Users/±è°æ¹Î/Desktop/IFX_S2GL-HW-SW_V1.1.3/Firmware_Software/DAVE project/S2GL_Doppler/Libraries/XMCLib/inc\xmc_gpio.h ****  * \par<b>Related APIs:</b><BR>
 201:C:/Users/±è°æ¹Î/Desktop/IFX_S2GL-HW-SW_V1.1.3/Firmware_Software/DAVE project/S2GL_Doppler/Libraries/XMCLib/inc\xmc_gpio.h ****  *  None
 202:C:/Users/±è°æ¹Î/Desktop/IFX_S2GL-HW-SW_V1.1.3/Firmware_Software/DAVE project/S2GL_Doppler/Libraries/XMCLib/inc\xmc_gpio.h ****  *
 203:C:/Users/±è°æ¹Î/Desktop/IFX_S2GL-HW-SW_V1.1.3/Firmware_Software/DAVE project/S2GL_Doppler/Libraries/XMCLib/inc\xmc_gpio.h ****  */
 204:C:/Users/±è°æ¹Î/Desktop/IFX_S2GL-HW-SW_V1.1.3/Firmware_Software/DAVE project/S2GL_Doppler/Libraries/XMCLib/inc\xmc_gpio.h **** 
 205:C:/Users/±è°æ¹Î/Desktop/IFX_S2GL-HW-SW_V1.1.3/Firmware_Software/DAVE project/S2GL_Doppler/Libraries/XMCLib/inc\xmc_gpio.h **** void XMC_GPIO_SetMode(XMC_GPIO_PORT_t *const port, const uint8_t pin, const XMC_GPIO_MODE_t mode);
 206:C:/Users/±è°æ¹Î/Desktop/IFX_S2GL-HW-SW_V1.1.3/Firmware_Software/DAVE project/S2GL_Doppler/Libraries/XMCLib/inc\xmc_gpio.h **** 
 207:C:/Users/±è°æ¹Î/Desktop/IFX_S2GL-HW-SW_V1.1.3/Firmware_Software/DAVE project/S2GL_Doppler/Libraries/XMCLib/inc\xmc_gpio.h **** 
 208:C:/Users/±è°æ¹Î/Desktop/IFX_S2GL-HW-SW_V1.1.3/Firmware_Software/DAVE project/S2GL_Doppler/Libraries/XMCLib/inc\xmc_gpio.h **** /**
 209:C:/Users/±è°æ¹Î/Desktop/IFX_S2GL-HW-SW_V1.1.3/Firmware_Software/DAVE project/S2GL_Doppler/Libraries/XMCLib/inc\xmc_gpio.h ****  *
 210:C:/Users/±è°æ¹Î/Desktop/IFX_S2GL-HW-SW_V1.1.3/Firmware_Software/DAVE project/S2GL_Doppler/Libraries/XMCLib/inc\xmc_gpio.h ****  * @param  port	 Constant pointer pointing to GPIO port, to access hardware register Pn_OMR.
 211:C:/Users/±è°æ¹Î/Desktop/IFX_S2GL-HW-SW_V1.1.3/Firmware_Software/DAVE project/S2GL_Doppler/Libraries/XMCLib/inc\xmc_gpio.h ****  * @param  pin	 Port pin number.
 212:C:/Users/±è°æ¹Î/Desktop/IFX_S2GL-HW-SW_V1.1.3/Firmware_Software/DAVE project/S2GL_Doppler/Libraries/XMCLib/inc\xmc_gpio.h ****  * @param  level output level selection. Refer @ref XMC_GPIO_OUTPUT_LEVEL_t for valid values.
 213:C:/Users/±è°æ¹Î/Desktop/IFX_S2GL-HW-SW_V1.1.3/Firmware_Software/DAVE project/S2GL_Doppler/Libraries/XMCLib/inc\xmc_gpio.h ****  *
 214:C:/Users/±è°æ¹Î/Desktop/IFX_S2GL-HW-SW_V1.1.3/Firmware_Software/DAVE project/S2GL_Doppler/Libraries/XMCLib/inc\xmc_gpio.h ****  * @return None
 215:C:/Users/±è°æ¹Î/Desktop/IFX_S2GL-HW-SW_V1.1.3/Firmware_Software/DAVE project/S2GL_Doppler/Libraries/XMCLib/inc\xmc_gpio.h ****  *
 216:C:/Users/±è°æ¹Î/Desktop/IFX_S2GL-HW-SW_V1.1.3/Firmware_Software/DAVE project/S2GL_Doppler/Libraries/XMCLib/inc\xmc_gpio.h ****  * \par<b>Description:</b><br>
 217:C:/Users/±è°æ¹Î/Desktop/IFX_S2GL-HW-SW_V1.1.3/Firmware_Software/DAVE project/S2GL_Doppler/Libraries/XMCLib/inc\xmc_gpio.h ****  * Set port pin output level to high or low.It configures hardware registers Pn_OMR.\a level is ini
 218:C:/Users/±è°æ¹Î/Desktop/IFX_S2GL-HW-SW_V1.1.3/Firmware_Software/DAVE project/S2GL_Doppler/Libraries/XMCLib/inc\xmc_gpio.h ****  * configured during initialization in XMC_GPIO_Init(). Call this API to alter output level as need
 219:C:/Users/±è°æ¹Î/Desktop/IFX_S2GL-HW-SW_V1.1.3/Firmware_Software/DAVE project/S2GL_Doppler/Libraries/XMCLib/inc\xmc_gpio.h ****  *
 220:C:/Users/±è°æ¹Î/Desktop/IFX_S2GL-HW-SW_V1.1.3/Firmware_Software/DAVE project/S2GL_Doppler/Libraries/XMCLib/inc\xmc_gpio.h ****  * \par<b>Related APIs:</b><BR>
 221:C:/Users/±è°æ¹Î/Desktop/IFX_S2GL-HW-SW_V1.1.3/Firmware_Software/DAVE project/S2GL_Doppler/Libraries/XMCLib/inc\xmc_gpio.h ****  *  XMC_GPIO_SetOutputHigh(), XMC_GPIO_SetOutputLow().
 222:C:/Users/±è°æ¹Î/Desktop/IFX_S2GL-HW-SW_V1.1.3/Firmware_Software/DAVE project/S2GL_Doppler/Libraries/XMCLib/inc\xmc_gpio.h ****  *
 223:C:/Users/±è°æ¹Î/Desktop/IFX_S2GL-HW-SW_V1.1.3/Firmware_Software/DAVE project/S2GL_Doppler/Libraries/XMCLib/inc\xmc_gpio.h ****  * \par<b>Note:</b><br>
 224:C:/Users/±è°æ¹Î/Desktop/IFX_S2GL-HW-SW_V1.1.3/Firmware_Software/DAVE project/S2GL_Doppler/Libraries/XMCLib/inc\xmc_gpio.h ****  * Prior to this api, user has to configure port pin to output mode using XMC_GPIO_SetMode().
 225:C:/Users/±è°æ¹Î/Desktop/IFX_S2GL-HW-SW_V1.1.3/Firmware_Software/DAVE project/S2GL_Doppler/Libraries/XMCLib/inc\xmc_gpio.h ****  *
 226:C:/Users/±è°æ¹Î/Desktop/IFX_S2GL-HW-SW_V1.1.3/Firmware_Software/DAVE project/S2GL_Doppler/Libraries/XMCLib/inc\xmc_gpio.h ****  */
 227:C:/Users/±è°æ¹Î/Desktop/IFX_S2GL-HW-SW_V1.1.3/Firmware_Software/DAVE project/S2GL_Doppler/Libraries/XMCLib/inc\xmc_gpio.h **** 
 228:C:/Users/±è°æ¹Î/Desktop/IFX_S2GL-HW-SW_V1.1.3/Firmware_Software/DAVE project/S2GL_Doppler/Libraries/XMCLib/inc\xmc_gpio.h **** 
 229:C:/Users/±è°æ¹Î/Desktop/IFX_S2GL-HW-SW_V1.1.3/Firmware_Software/DAVE project/S2GL_Doppler/Libraries/XMCLib/inc\xmc_gpio.h **** __STATIC_INLINE void XMC_GPIO_SetOutputLevel(XMC_GPIO_PORT_t *const port, const uint8_t pin, const 
 230:C:/Users/±è°æ¹Î/Desktop/IFX_S2GL-HW-SW_V1.1.3/Firmware_Software/DAVE project/S2GL_Doppler/Libraries/XMCLib/inc\xmc_gpio.h **** {
 231:C:/Users/±è°æ¹Î/Desktop/IFX_S2GL-HW-SW_V1.1.3/Firmware_Software/DAVE project/S2GL_Doppler/Libraries/XMCLib/inc\xmc_gpio.h ****   XMC_ASSERT("XMC_GPIO_SetOutputLevel: Invalid port", XMC_GPIO_CHECK_OUTPUT_PORT(port));
 232:C:/Users/±è°æ¹Î/Desktop/IFX_S2GL-HW-SW_V1.1.3/Firmware_Software/DAVE project/S2GL_Doppler/Libraries/XMCLib/inc\xmc_gpio.h ****   XMC_ASSERT("XMC_GPIO_SetOutputLevel: Invalid output level", XMC_GPIO_CHECK_OUTPUT_LEVEL(level));
 233:C:/Users/±è°æ¹Î/Desktop/IFX_S2GL-HW-SW_V1.1.3/Firmware_Software/DAVE project/S2GL_Doppler/Libraries/XMCLib/inc\xmc_gpio.h ****   
 234:C:/Users/±è°æ¹Î/Desktop/IFX_S2GL-HW-SW_V1.1.3/Firmware_Software/DAVE project/S2GL_Doppler/Libraries/XMCLib/inc\xmc_gpio.h ****   port->OMR = (uint32_t)level << pin;
 235:C:/Users/±è°æ¹Î/Desktop/IFX_S2GL-HW-SW_V1.1.3/Firmware_Software/DAVE project/S2GL_Doppler/Libraries/XMCLib/inc\xmc_gpio.h **** }
 236:C:/Users/±è°æ¹Î/Desktop/IFX_S2GL-HW-SW_V1.1.3/Firmware_Software/DAVE project/S2GL_Doppler/Libraries/XMCLib/inc\xmc_gpio.h **** 
 237:C:/Users/±è°æ¹Î/Desktop/IFX_S2GL-HW-SW_V1.1.3/Firmware_Software/DAVE project/S2GL_Doppler/Libraries/XMCLib/inc\xmc_gpio.h **** 
 238:C:/Users/±è°æ¹Î/Desktop/IFX_S2GL-HW-SW_V1.1.3/Firmware_Software/DAVE project/S2GL_Doppler/Libraries/XMCLib/inc\xmc_gpio.h **** /**
 239:C:/Users/±è°æ¹Î/Desktop/IFX_S2GL-HW-SW_V1.1.3/Firmware_Software/DAVE project/S2GL_Doppler/Libraries/XMCLib/inc\xmc_gpio.h ****  * @param  port constant pointer pointing to GPIO port, to access hardware register Pn_OMR.
 240:C:/Users/±è°æ¹Î/Desktop/IFX_S2GL-HW-SW_V1.1.3/Firmware_Software/DAVE project/S2GL_Doppler/Libraries/XMCLib/inc\xmc_gpio.h ****  * @param  pin	Port pin number.
 241:C:/Users/±è°æ¹Î/Desktop/IFX_S2GL-HW-SW_V1.1.3/Firmware_Software/DAVE project/S2GL_Doppler/Libraries/XMCLib/inc\xmc_gpio.h ****  *
 242:C:/Users/±è°æ¹Î/Desktop/IFX_S2GL-HW-SW_V1.1.3/Firmware_Software/DAVE project/S2GL_Doppler/Libraries/XMCLib/inc\xmc_gpio.h ****  * @return None
 243:C:/Users/±è°æ¹Î/Desktop/IFX_S2GL-HW-SW_V1.1.3/Firmware_Software/DAVE project/S2GL_Doppler/Libraries/XMCLib/inc\xmc_gpio.h ****  *
 244:C:/Users/±è°æ¹Î/Desktop/IFX_S2GL-HW-SW_V1.1.3/Firmware_Software/DAVE project/S2GL_Doppler/Libraries/XMCLib/inc\xmc_gpio.h ****  * \par<b>Description:</b><br>
 245:C:/Users/±è°æ¹Î/Desktop/IFX_S2GL-HW-SW_V1.1.3/Firmware_Software/DAVE project/S2GL_Doppler/Libraries/XMCLib/inc\xmc_gpio.h ****  *  Sets port pin output to high. It configures hardware registers Pn_OMR.
 246:C:/Users/±è°æ¹Î/Desktop/IFX_S2GL-HW-SW_V1.1.3/Firmware_Software/DAVE project/S2GL_Doppler/Libraries/XMCLib/inc\xmc_gpio.h ****  *
 247:C:/Users/±è°æ¹Î/Desktop/IFX_S2GL-HW-SW_V1.1.3/Firmware_Software/DAVE project/S2GL_Doppler/Libraries/XMCLib/inc\xmc_gpio.h ****  *  \par<b>Related APIs:</b><BR>
 248:C:/Users/±è°æ¹Î/Desktop/IFX_S2GL-HW-SW_V1.1.3/Firmware_Software/DAVE project/S2GL_Doppler/Libraries/XMCLib/inc\xmc_gpio.h ****  *  XMC_GPIO_SetOutputLow()
 249:C:/Users/±è°æ¹Î/Desktop/IFX_S2GL-HW-SW_V1.1.3/Firmware_Software/DAVE project/S2GL_Doppler/Libraries/XMCLib/inc\xmc_gpio.h ****  *
 250:C:/Users/±è°æ¹Î/Desktop/IFX_S2GL-HW-SW_V1.1.3/Firmware_Software/DAVE project/S2GL_Doppler/Libraries/XMCLib/inc\xmc_gpio.h ****  * \par<b>Note:</b><br>
 251:C:/Users/±è°æ¹Î/Desktop/IFX_S2GL-HW-SW_V1.1.3/Firmware_Software/DAVE project/S2GL_Doppler/Libraries/XMCLib/inc\xmc_gpio.h ****  * Prior to this api, user has to configure port pin to output mode using XMC_GPIO_SetMode().\n
 252:C:/Users/±è°æ¹Î/Desktop/IFX_S2GL-HW-SW_V1.1.3/Firmware_Software/DAVE project/S2GL_Doppler/Libraries/XMCLib/inc\xmc_gpio.h ****  * Register Pn_OMR is virtual and does not contain any flip-flop. A read action delivers the value 
 253:C:/Users/±è°æ¹Î/Desktop/IFX_S2GL-HW-SW_V1.1.3/Firmware_Software/DAVE project/S2GL_Doppler/Libraries/XMCLib/inc\xmc_gpio.h ****  *
 254:C:/Users/±è°æ¹Î/Desktop/IFX_S2GL-HW-SW_V1.1.3/Firmware_Software/DAVE project/S2GL_Doppler/Libraries/XMCLib/inc\xmc_gpio.h ****  */
 255:C:/Users/±è°æ¹Î/Desktop/IFX_S2GL-HW-SW_V1.1.3/Firmware_Software/DAVE project/S2GL_Doppler/Libraries/XMCLib/inc\xmc_gpio.h **** 
 256:C:/Users/±è°æ¹Î/Desktop/IFX_S2GL-HW-SW_V1.1.3/Firmware_Software/DAVE project/S2GL_Doppler/Libraries/XMCLib/inc\xmc_gpio.h **** __STATIC_INLINE void XMC_GPIO_SetOutputHigh(XMC_GPIO_PORT_t *const port, const uint8_t pin)
 257:C:/Users/±è°æ¹Î/Desktop/IFX_S2GL-HW-SW_V1.1.3/Firmware_Software/DAVE project/S2GL_Doppler/Libraries/XMCLib/inc\xmc_gpio.h **** {
 258:C:/Users/±è°æ¹Î/Desktop/IFX_S2GL-HW-SW_V1.1.3/Firmware_Software/DAVE project/S2GL_Doppler/Libraries/XMCLib/inc\xmc_gpio.h ****   XMC_ASSERT("XMC_GPIO_SetOutputHigh: Invalid port", XMC_GPIO_CHECK_OUTPUT_PORT(port));
 259:C:/Users/±è°æ¹Î/Desktop/IFX_S2GL-HW-SW_V1.1.3/Firmware_Software/DAVE project/S2GL_Doppler/Libraries/XMCLib/inc\xmc_gpio.h **** 
 260:C:/Users/±è°æ¹Î/Desktop/IFX_S2GL-HW-SW_V1.1.3/Firmware_Software/DAVE project/S2GL_Doppler/Libraries/XMCLib/inc\xmc_gpio.h ****   port->OMR = (uint32_t)0x1U << pin;
 261:C:/Users/±è°æ¹Î/Desktop/IFX_S2GL-HW-SW_V1.1.3/Firmware_Software/DAVE project/S2GL_Doppler/Libraries/XMCLib/inc\xmc_gpio.h **** }
 262:C:/Users/±è°æ¹Î/Desktop/IFX_S2GL-HW-SW_V1.1.3/Firmware_Software/DAVE project/S2GL_Doppler/Libraries/XMCLib/inc\xmc_gpio.h **** 
 263:C:/Users/±è°æ¹Î/Desktop/IFX_S2GL-HW-SW_V1.1.3/Firmware_Software/DAVE project/S2GL_Doppler/Libraries/XMCLib/inc\xmc_gpio.h **** /**
 264:C:/Users/±è°æ¹Î/Desktop/IFX_S2GL-HW-SW_V1.1.3/Firmware_Software/DAVE project/S2GL_Doppler/Libraries/XMCLib/inc\xmc_gpio.h ****  *
 265:C:/Users/±è°æ¹Î/Desktop/IFX_S2GL-HW-SW_V1.1.3/Firmware_Software/DAVE project/S2GL_Doppler/Libraries/XMCLib/inc\xmc_gpio.h ****  * @param  port	constant pointer pointing to GPIO port, to access hardware register Pn_OMR.
 266:C:/Users/±è°æ¹Î/Desktop/IFX_S2GL-HW-SW_V1.1.3/Firmware_Software/DAVE project/S2GL_Doppler/Libraries/XMCLib/inc\xmc_gpio.h ****  * @param  pin	port pin number.
 267:C:/Users/±è°æ¹Î/Desktop/IFX_S2GL-HW-SW_V1.1.3/Firmware_Software/DAVE project/S2GL_Doppler/Libraries/XMCLib/inc\xmc_gpio.h ****  *
 268:C:/Users/±è°æ¹Î/Desktop/IFX_S2GL-HW-SW_V1.1.3/Firmware_Software/DAVE project/S2GL_Doppler/Libraries/XMCLib/inc\xmc_gpio.h ****  * @return  None
 269:C:/Users/±è°æ¹Î/Desktop/IFX_S2GL-HW-SW_V1.1.3/Firmware_Software/DAVE project/S2GL_Doppler/Libraries/XMCLib/inc\xmc_gpio.h ****  *
 270:C:/Users/±è°æ¹Î/Desktop/IFX_S2GL-HW-SW_V1.1.3/Firmware_Software/DAVE project/S2GL_Doppler/Libraries/XMCLib/inc\xmc_gpio.h ****  *\par<b>Description:</b><br>
 271:C:/Users/±è°æ¹Î/Desktop/IFX_S2GL-HW-SW_V1.1.3/Firmware_Software/DAVE project/S2GL_Doppler/Libraries/XMCLib/inc\xmc_gpio.h ****  * Sets port pin output to low. It configures hardware registers Pn_OMR.\n
 272:C:/Users/±è°æ¹Î/Desktop/IFX_S2GL-HW-SW_V1.1.3/Firmware_Software/DAVE project/S2GL_Doppler/Libraries/XMCLib/inc\xmc_gpio.h ****  *
 273:C:/Users/±è°æ¹Î/Desktop/IFX_S2GL-HW-SW_V1.1.3/Firmware_Software/DAVE project/S2GL_Doppler/Libraries/XMCLib/inc\xmc_gpio.h ****  * \par<b>Related APIs:</b><BR>>
 274:C:/Users/±è°æ¹Î/Desktop/IFX_S2GL-HW-SW_V1.1.3/Firmware_Software/DAVE project/S2GL_Doppler/Libraries/XMCLib/inc\xmc_gpio.h ****  * XMC_GPIO_SetOutputHigh()
 275:C:/Users/±è°æ¹Î/Desktop/IFX_S2GL-HW-SW_V1.1.3/Firmware_Software/DAVE project/S2GL_Doppler/Libraries/XMCLib/inc\xmc_gpio.h ****  *
 276:C:/Users/±è°æ¹Î/Desktop/IFX_S2GL-HW-SW_V1.1.3/Firmware_Software/DAVE project/S2GL_Doppler/Libraries/XMCLib/inc\xmc_gpio.h ****  *\par<b>Note:</b><br>
 277:C:/Users/±è°æ¹Î/Desktop/IFX_S2GL-HW-SW_V1.1.3/Firmware_Software/DAVE project/S2GL_Doppler/Libraries/XMCLib/inc\xmc_gpio.h ****  * Prior to this api, user has to configure port pin to output mode using XMC_GPIO_SetMode().
 278:C:/Users/±è°æ¹Î/Desktop/IFX_S2GL-HW-SW_V1.1.3/Firmware_Software/DAVE project/S2GL_Doppler/Libraries/XMCLib/inc\xmc_gpio.h ****  * Register Pn_OMR is virtual and does not contain any flip-flop. A read action delivers the value 
 279:C:/Users/±è°æ¹Î/Desktop/IFX_S2GL-HW-SW_V1.1.3/Firmware_Software/DAVE project/S2GL_Doppler/Libraries/XMCLib/inc\xmc_gpio.h ****  *
 280:C:/Users/±è°æ¹Î/Desktop/IFX_S2GL-HW-SW_V1.1.3/Firmware_Software/DAVE project/S2GL_Doppler/Libraries/XMCLib/inc\xmc_gpio.h ****  */
 281:C:/Users/±è°æ¹Î/Desktop/IFX_S2GL-HW-SW_V1.1.3/Firmware_Software/DAVE project/S2GL_Doppler/Libraries/XMCLib/inc\xmc_gpio.h **** 
 282:C:/Users/±è°æ¹Î/Desktop/IFX_S2GL-HW-SW_V1.1.3/Firmware_Software/DAVE project/S2GL_Doppler/Libraries/XMCLib/inc\xmc_gpio.h **** __STATIC_INLINE void XMC_GPIO_SetOutputLow(XMC_GPIO_PORT_t *const port, const uint8_t pin)
 283:C:/Users/±è°æ¹Î/Desktop/IFX_S2GL-HW-SW_V1.1.3/Firmware_Software/DAVE project/S2GL_Doppler/Libraries/XMCLib/inc\xmc_gpio.h **** {
 284:C:/Users/±è°æ¹Î/Desktop/IFX_S2GL-HW-SW_V1.1.3/Firmware_Software/DAVE project/S2GL_Doppler/Libraries/XMCLib/inc\xmc_gpio.h ****   XMC_ASSERT("XMC_GPIO_SetOutputLow: Invalid port", XMC_GPIO_CHECK_OUTPUT_PORT(port));
 285:C:/Users/±è°æ¹Î/Desktop/IFX_S2GL-HW-SW_V1.1.3/Firmware_Software/DAVE project/S2GL_Doppler/Libraries/XMCLib/inc\xmc_gpio.h **** 
 286:C:/Users/±è°æ¹Î/Desktop/IFX_S2GL-HW-SW_V1.1.3/Firmware_Software/DAVE project/S2GL_Doppler/Libraries/XMCLib/inc\xmc_gpio.h ****   port->OMR = 0x10000U << pin;
 182              	 .loc 2 286 0
 183 00a0 197B     	 ldrb r1,[r3,#12]
 184 00a2 8023     	 mov r3,#128
 185 00a4 5B02     	 lsl r3,r3,#9
 186 00a6 8B40     	 lsl r3,r3,r1
 187 00a8 5360     	 str r3,[r2,#4]
 188 00aa 2E4B     	 ldr r3,.L21+36
 189 00ac 1968     	 ldr r1,[r3]
 190              	.LVL17:
 191              	.LBE78:
 192              	.LBE77:
 193              	.LBE76:
 194              	.LBB79:
 195              	.LBB80:
 196              	.LBB81:
 260:C:/Users/±è°æ¹Î/Desktop/IFX_S2GL-HW-SW_V1.1.3/Firmware_Software/DAVE project/S2GL_Doppler/Libraries/XMCLib/inc\xmc_gpio.h **** }
 197              	 .loc 2 260 0
 198 00ae 1A7B     	 ldrb r2,[r3,#12]
 199              	.LVL18:
 200 00b0 0123     	 mov r3,#1
 201 00b2 181C     	 mov r0,r3
 202 00b4 9040     	 lsl r0,r0,r2
 203 00b6 2C4A     	 ldr r2,.L21+40
 204 00b8 4860     	 str r0,[r1,#4]
 205 00ba 1168     	 ldr r1,[r2]
 206              	.LVL19:
 207              	.LBE81:
 208              	.LBE80:
 209              	.LBE79:
 210              	.LBB82:
 211              	.LBB83:
 212              	.LBB84:
 213 00bc 127B     	 ldrb r2,[r2,#12]
 214 00be 9340     	 lsl r3,r3,r2
 215 00c0 4B60     	 str r3,[r1,#4]
 216              	.LBE84:
 217              	.LBE83:
 218              	.LBE82:
 181:../main.c     **** 		doppler_velocity < g_max_velocity)	    // Doppler velocity is less than max velocity
 182:../main.c     **** 	{
 183:../main.c     **** 		if (motion == XMC_MOTION_DETECT_APPROACHING) // target is approaching radar sensor
 184:../main.c     **** 		{
 185:../main.c     **** 			/* Turn on red LED, turn off orange and blue LEDs */
 186:../main.c     **** 			DIGITAL_IO_SetOutputLow(&LED_RED);
 187:../main.c     **** 			DIGITAL_IO_SetOutputHigh(&LED_ORANGE);
 188:../main.c     **** 			DIGITAL_IO_SetOutputHigh(&LED_BLUE);
 189:../main.c     **** 		}
 190:../main.c     **** 		else // motion == XMC_MOTION_DETECT_DEPARTING => target is moving away from radar sensor
 191:../main.c     **** 		{
 192:../main.c     **** 			/* Turn on orange LED, turn off red and blue LEDs */
 193:../main.c     **** 			DIGITAL_IO_SetOutputLow(&LED_ORANGE);
 194:../main.c     **** 			DIGITAL_IO_SetOutputHigh(&LED_RED);
 195:../main.c     **** 			DIGITAL_IO_SetOutputHigh(&LED_BLUE);
 196:../main.c     **** 		}
 197:../main.c     **** 		g_motion = motion;
 198:../main.c     **** 		g_doppler_frequency = doppler_frequency;
 199:../main.c     **** 		g_doppler_velocity = doppler_velocity;
 200:../main.c     **** 
 201:../main.c     **** 	}
 202:../main.c     **** 	else // No motion detected
 203:../main.c     **** 	{
 204:../main.c     **** 		/* Turn on blue LED, turn off orange and red LEDs */
 205:../main.c     **** 		DIGITAL_IO_SetOutputLow(&LED_BLUE);
 206:../main.c     **** 		DIGITAL_IO_SetOutputHigh(&LED_ORANGE);
 207:../main.c     **** 		DIGITAL_IO_SetOutputHigh(&LED_RED);
 208:../main.c     **** 
 209:../main.c     **** 		/* Set velocity and frequency to 0 in case of no motion */
 210:../main.c     **** 		g_doppler_frequency = 0.0;
 219              	 .loc 1 210 0
 220 00c2 0023     	 mov r3,#0
 221 00c4 294A     	 ldr r2,.L21+44
 222 00c6 1360     	 str r3,[r2]
 211:../main.c     **** 		g_doppler_velocity = 0.0;
 223              	 .loc 1 211 0
 224 00c8 294A     	 ldr r2,.L21+48
 225 00ca 1360     	 str r3,[r2]
 212:../main.c     **** 		g_motion = XMC_NO_MOTION_DETECT;
 226              	 .loc 1 212 0
 227 00cc 0222     	 mov r2,#2
 228 00ce 294B     	 ldr r3,.L21+52
 229 00d0 1A70     	 strb r2,[r3]
 230              	.LVL20:
 231              	.L1:
 213:../main.c     **** 	}
 214:../main.c     **** }
 232              	 .loc 1 214 0
 233              	 
 234              	.LVL21:
 235 00d2 1CBC     	 pop {r2,r3,r4}
 236 00d4 9046     	 mov r8,r2
 237 00d6 9946     	 mov r9,r3
 238 00d8 A246     	 mov r10,r4
 239 00da F0BD     	 pop {r4,r5,r6,r7,pc}
 240              	.LVL22:
 241              	.L20:
 181:../main.c     **** 	{
 242              	 .loc 1 181 0
 243 00dc 264B     	 ldr r3,.L21+56
 180:../main.c     **** 		doppler_velocity < g_max_velocity)	    // Doppler velocity is less than max velocity
 244              	 .loc 1 180 0
 245 00de 211C     	 add r1,r4,#0
 246 00e0 1868     	 ldr r0,[r3]
 247 00e2 FFF7FEFF 	 bl __aeabi_fcmpgt
 248              	.LVL23:
 249 00e6 0028     	 cmp r0,#0
 250 00e8 D8D0     	 beq .L3
 183:../main.c     **** 		{
 251              	 .loc 1 183 0
 252 00ea 002D     	 cmp r5,#0
 253 00ec 1FD1     	 bne .L6
 254 00ee 1E4B     	 ldr r3,.L21+40
 255 00f0 1A68     	 ldr r2,[r3]
 256              	.LVL24:
 257              	.LBB85:
 258              	.LBB86:
 259              	.LBB87:
 260              	 .loc 2 286 0
 261 00f2 197B     	 ldrb r1,[r3,#12]
 262 00f4 8023     	 mov r3,#128
 263 00f6 5B02     	 lsl r3,r3,#9
 264 00f8 8B40     	 lsl r3,r3,r1
 265 00fa 5360     	 str r3,[r2,#4]
 266 00fc 194B     	 ldr r3,.L21+36
 267              	.LVL25:
 268              	.L17:
 269 00fe 1968     	 ldr r1,[r3]
 270              	.LVL26:
 271              	.LBE87:
 272              	.LBE86:
 273              	.LBE85:
 274              	.LBB88:
 275              	.LBB89:
 276              	.LBB90:
 260:C:/Users/±è°æ¹Î/Desktop/IFX_S2GL-HW-SW_V1.1.3/Firmware_Software/DAVE project/S2GL_Doppler/Libraries/XMCLib/inc\xmc_gpio.h **** }
 277              	 .loc 2 260 0
 278 0100 1A7B     	 ldrb r2,[r3,#12]
 279 0102 0123     	 mov r3,#1
 280 0104 181C     	 mov r0,r3
 281 0106 9040     	 lsl r0,r0,r2
 282 0108 154A     	 ldr r2,.L21+32
 283 010a 4860     	 str r0,[r1,#4]
 284              	.LVL27:
 285 010c 1168     	 ldr r1,[r2]
 286              	.LVL28:
 287              	.LBE90:
 288              	.LBE89:
 289              	.LBE88:
 290              	.LBB91:
 291              	.LBB92:
 292              	.LBB93:
 293 010e 127B     	 ldrb r2,[r2,#12]
 294 0110 9340     	 lsl r3,r3,r2
 295 0112 4B60     	 str r3,[r1,#4]
 296              	.LBE93:
 297              	.LBE92:
 298              	.LBE91:
 197:../main.c     **** 		g_doppler_frequency = doppler_frequency;
 299              	 .loc 1 197 0
 300 0114 174B     	 ldr r3,.L21+52
 301 0116 1D70     	 strb r5,[r3]
 198:../main.c     **** 		g_doppler_velocity = doppler_velocity;
 302              	 .loc 1 198 0
 303 0118 144B     	 ldr r3,.L21+44
 304 011a 1E60     	 str r6,[r3]
 199:../main.c     **** 
 305              	 .loc 1 199 0
 306 011c 144B     	 ldr r3,.L21+48
 307 011e 1C60     	 str r4,[r3]
 308 0120 D7E7     	 b .L1
 309              	.LVL29:
 310              	.L19:
 176:../main.c     **** 
 311              	 .loc 1 176 0
 312 0122 381C     	 mov r0,r7
 313 0124 311C     	 mov r1,r6
 314 0126 8022     	 mov r2,#128
 315              	.LVL30:
 316 0128 FFF7FEFF 	 bl dumpRawIQ_uint16
 317              	.LVL31:
 318 012c A2E7     	 b .L2
 319              	.L6:
 320 012e 0D4B     	 ldr r3,.L21+36
 321 0130 1A68     	 ldr r2,[r3]
 322              	.LVL32:
 323              	.LBB94:
 324              	.LBB95:
 325              	.LBB96:
 326              	 .loc 2 286 0
 327 0132 197B     	 ldrb r1,[r3,#12]
 328 0134 8023     	 mov r3,#128
 329 0136 5B02     	 lsl r3,r3,#9
 330 0138 8B40     	 lsl r3,r3,r1
 331 013a 5360     	 str r3,[r2,#4]
 332 013c 0A4B     	 ldr r3,.L21+40
 333 013e DEE7     	 b .L17
 334              	.L22:
 335              	 .align 2
 336              	.L21:
 337 0140 00000000 	 .word .LANCHOR0
 338 0144 00000000 	 .word .LANCHOR1
 339 0148 00000000 	 .word .LANCHOR2
 340 014c FFFFFF3F 	 .word 1073741823
 341 0150 00000000 	 .word .LANCHOR3
 342 0154 0080BB41 	 .word 1102807040
 343 0158 9A993142 	 .word 1110546842
 344 015c 00000000 	 .word .LANCHOR4
 345 0160 00000000 	 .word LED_BLUE
 346 0164 00000000 	 .word LED_ORANGE
 347 0168 00000000 	 .word LED_RED
 348 016c 00000000 	 .word .LANCHOR7
 349 0170 00000000 	 .word .LANCHOR8
 350 0174 00000000 	 .word .LANCHOR6
 351 0178 00000000 	 .word .LANCHOR5
 352              	.LBE96:
 353              	.LBE95:
 354              	.LBE94:
 355              	 .cfi_endproc
 356              	.LFE288:
 358              	 .section .text.startup.main,"ax",%progbits
 359              	 .align 2
 360              	 .global main
 361              	 .code 16
 362              	 .thumb_func
 364              	main:
 365              	.LFB289:
 215:../main.c     **** 
 216:../main.c     **** /*
 217:../main.c     **** ==============================================================================
 218:../main.c     ****    6. MAIN METHOD
 219:../main.c     **** ==============================================================================
 220:../main.c     ****  */
 221:../main.c     **** 
 222:../main.c     **** int main(void)
 223:../main.c     **** {
 366              	 .loc 1 223 0
 367              	 .cfi_startproc
 368              	.LVL33:
 369 0000 70B5     	 push {r4,r5,r6,lr}
 370              	.LCFI2:
 371              	 .cfi_def_cfa_offset 16
 372              	 .cfi_offset 4,-16
 373              	 .cfi_offset 5,-12
 374              	 .cfi_offset 6,-8
 375              	 .cfi_offset 14,-4
 376 0002 84B0     	 sub sp,sp,#16
 377              	.LCFI3:
 378              	 .cfi_def_cfa_offset 32
 224:../main.c     **** 	bool running = false;
 225:../main.c     **** 
 226:../main.c     **** 	/* Initialize DAVE APPs */
 227:../main.c     **** 	DAVE_Init();
 379              	 .loc 1 227 0
 380 0004 FFF7FEFF 	 bl DAVE_Init
 381              	.LVL34:
 382 0008 234B     	 ldr r3,.L33
 228:../main.c     **** 
 229:../main.c     **** 	/* Turn off all LEDs */
 230:../main.c     **** 	DIGITAL_IO_SetOutputHigh(&LED_ORANGE);
 231:../main.c     **** 	DIGITAL_IO_SetOutputHigh(&LED_RED);
 232:../main.c     **** 	DIGITAL_IO_SetOutputHigh(&LED_BLUE);
 233:../main.c     **** 
 234:../main.c     **** 	/* Turn on BGT */
 235:../main.c     **** 	DIGITAL_IO_SetOutputLow(&BGT24);
 236:../main.c     **** 
 237:../main.c     **** 	radarsense2gol_init(radarsense2gol_timing,
 383              	 .loc 1 237 0
 384 000a 244E     	 ldr r6,.L33+4
 385 000c 1968     	 ldr r1,[r3]
 386              	.LVL35:
 387              	.LBB97:
 388              	.LBB98:
 389              	.LBB99:
 260:C:/Users/±è°æ¹Î/Desktop/IFX_S2GL-HW-SW_V1.1.3/Firmware_Software/DAVE project/S2GL_Doppler/Libraries/XMCLib/inc\xmc_gpio.h **** }
 390              	 .loc 2 260 0
 391 000e 1A7B     	 ldrb r2,[r3,#12]
 392 0010 0123     	 mov r3,#1
 393 0012 181C     	 mov r0,r3
 394 0014 9040     	 lsl r0,r0,r2
 395 0016 4860     	 str r0,[r1,#4]
 396              	.LBE99:
 397              	.LBE98:
 398              	.LBE97:
 399              	.LBB100:
 400              	.LBB101:
 401              	.LBB102:
 402 0018 181C     	 mov r0,r3
 403 001a 214A     	 ldr r2,.L33+8
 404 001c 1168     	 ldr r1,[r2]
 405              	.LVL36:
 406 001e 127B     	 ldrb r2,[r2,#12]
 407 0020 9040     	 lsl r0,r0,r2
 408 0022 204A     	 ldr r2,.L33+12
 409 0024 4860     	 str r0,[r1,#4]
 410 0026 1168     	 ldr r1,[r2]
 411              	.LVL37:
 412              	.LBE102:
 413              	.LBE101:
 414              	.LBE100:
 415              	.LBB103:
 416              	.LBB104:
 417              	.LBB105:
 418 0028 127B     	 ldrb r2,[r2,#12]
 419 002a 9340     	 lsl r3,r3,r2
 420 002c 4B60     	 str r3,[r1,#4]
 421 002e 1E4B     	 ldr r3,.L33+16
 422 0030 1A68     	 ldr r2,[r3]
 423              	.LVL38:
 424              	.LBE105:
 425              	.LBE104:
 426              	.LBE103:
 427              	.LBB106:
 428              	.LBB107:
 429              	.LBB108:
 430              	 .loc 2 286 0
 431 0032 197B     	 ldrb r1,[r3,#12]
 432              	.LVL39:
 433 0034 8023     	 mov r3,#128
 434 0036 5B02     	 lsl r3,r3,#9
 435 0038 8B40     	 lsl r3,r3,r1
 436              	.LBE108:
 437              	.LBE107:
 438              	.LBE106:
 439              	 .loc 1 237 0
 440 003a 1C49     	 ldr r1,.L33+20
 441              	.LBB111:
 442              	.LBB110:
 443              	.LBB109:
 444              	 .loc 2 286 0
 445 003c 5360     	 str r3,[r2,#4]
 446              	.LBE109:
 447              	.LBE110:
 448              	.LBE111:
 449              	 .loc 1 237 0
 450 003e 0888     	 ldrh r0,[r1]
 451 0040 02AB     	 add r3,sp,#8
 452 0042 1880     	 strh r0,[r3]
 453 0044 8978     	 ldrb r1,[r1,#2]
 454 0046 1A4A     	 ldr r2,.L33+24
 455              	.LVL40:
 456 0048 9970     	 strb r1,[r3,#2]
 457 004a 6946     	 mov r1,sp
 458 004c 194B     	 ldr r3,.L33+28
 459 004e 0393     	 str r3,[sp,#12]
 460 0050 331D     	 add r3,r6,#4
 461 0052 11CB     	 ldmia r3!,{r0,r4}
 462 0054 11C1     	 stmia r1!,{r0,r4}
 224:../main.c     **** 	bool running = false;
 463              	 .loc 1 224 0
 464 0056 0024     	 mov r4,#0
 465              	 .loc 1 237 0
 466 0058 1068     	 ldr r0,[r2]
 467 005a 5168     	 ldr r1,[r2,#4]
 468 005c 3368     	 ldr r3,[r6]
 469 005e 9268     	 ldr r2,[r2,#8]
 470 0060 FFF7FEFF 	 bl radarsense2gol_init
 471              	.LVL41:
 238:../main.c     **** 			            radarsense2gol_algorithm,
 239:../main.c     **** 			            radarsense2gol_powerdown,
 240:../main.c     **** 			            &TIMER_0);
 241:../main.c     **** 
 242:../main.c     **** 	/* Register callback */
 243:../main.c     **** 	radarsense2gol_regcb_result(radarsense2gol_result);
 472              	 .loc 1 243 0
 473 0064 1448     	 ldr r0,.L33+32
 474 0066 FFF7FEFF 	 bl radarsense2gol_regcb_result
 475              	.LVL42:
 476 006a 144D     	 ldr r5,.L33+36
 477              	.LVL43:
 478              	.L24:
 244:../main.c     **** 
 245:../main.c     **** 	/* Infinite loop */
 246:../main.c     **** 	while(1U)
 247:../main.c     **** 	{
 248:../main.c     **** 		if (running == false)
 479              	 .loc 1 248 0
 480 006c 002C     	 cmp r4,#0
 481 006e 05D1     	 bne .L25
 482              	.LVL44:
 483              	.L31:
 249:../main.c     **** 		{
 250:../main.c     **** 			if (g_start == true)
 484              	 .loc 1 250 0
 485 0070 2B78     	 ldrb r3,[r5]
 486 0072 002B     	 cmp r3,#0
 487 0074 FCD0     	 beq .L31
 488              	.LVL45:
 251:../main.c     **** 			{
 252:../main.c     **** 				running = true;
 253:../main.c     **** 				radarsense2gol_start();
 489              	 .loc 1 253 0
 490 0076 FFF7FEFF 	 bl radarsense2gol_start
 491              	.LVL46:
 252:../main.c     **** 				radarsense2gol_start();
 492              	 .loc 1 252 0
 493 007a 0124     	 mov r4,#1
 494              	.LVL47:
 495              	.L25:
 254:../main.c     **** 			}
 255:../main.c     **** 		}
 256:../main.c     **** 		else
 257:../main.c     **** 		{
 258:../main.c     **** 			if (g_start == false)
 496              	 .loc 1 258 0
 497 007c 2B78     	 ldrb r3,[r5]
 498 007e 002B     	 cmp r3,#0
 499 0080 05D0     	 beq .L32
 500              	.L27:
 501              	.LVL48:
 259:../main.c     **** 			{
 260:../main.c     **** 				running = false;
 261:../main.c     **** 				radarsense2gol_stop();
 262:../main.c     **** 			}
 263:../main.c     **** 
 264:../main.c     **** 			radarsense2gol_set_detection_threshold(radarsense2gol_algorithm.trigger_det_level);
 502              	 .loc 1 264 0
 503 0082 7068     	 ldr r0,[r6,#4]
 504 0084 FFF7FEFF 	 bl radarsense2gol_set_detection_threshold
 505              	.LVL49:
 265:../main.c     **** 
 266:../main.c     **** 			/* Only need to be called if mainexec_enable is enabled during initialization */
 267:../main.c     **** 			radarsense2gol_exitmain();
 506              	 .loc 1 267 0
 507 0088 FFF7FEFF 	 bl radarsense2gol_exitmain
 508              	.LVL50:
 509 008c EEE7     	 b .L24
 510              	.LVL51:
 511              	.L32:
 261:../main.c     **** 			}
 512              	 .loc 1 261 0
 513 008e FFF7FEFF 	 bl radarsense2gol_stop
 514              	.LVL52:
 260:../main.c     **** 				radarsense2gol_stop();
 515              	 .loc 1 260 0
 516 0092 0024     	 mov r4,#0
 517 0094 F5E7     	 b .L27
 518              	.L34:
 519 0096 C046     	 .align 2
 520              	.L33:
 521 0098 00000000 	 .word LED_ORANGE
 522 009c 00000000 	 .word .LANCHOR10
 523 00a0 00000000 	 .word LED_RED
 524 00a4 00000000 	 .word LED_BLUE
 525 00a8 00000000 	 .word BGT24
 526 00ac 00000000 	 .word .LANCHOR11
 527 00b0 00000000 	 .word .LANCHOR9
 528 00b4 00000000 	 .word TIMER_0
 529 00b8 00000000 	 .word radarsense2gol_result
 530 00bc 00000000 	 .word .LANCHOR12
 531              	 .cfi_endproc
 532              	.LFE289:
 534              	 .global radarsense2gol_powerdown
 535              	 .global radarsense2gol_algorithm
 536              	 .global radarsense2gol_timing
 537              	 .global g_uart_start
 538              	 .global g_start
 539              	 .global g_max_velocity
 540              	 .global g_min_velocity
 541              	 .global g_doppler_velocity
 542              	 .global g_doppler_frequency
 543              	 .global g_motion
 544              	 .global g_fft_data
 545              	 .global g_sampling_data_Q
 546              	 .global g_sampling_data_I
 547              	 .section .data.g_start,"aw",%progbits
 548              	 .set .LANCHOR12,.+0
 551              	g_start:
 552 0000 01       	 .byte 1
 553              	 .section .bss.g_fft_data,"aw",%nobits
 554              	 .align 2
 555              	 .set .LANCHOR2,.+0
 558              	g_fft_data:
 559 0000 00000000 	 .space 256
 559      00000000 
 559      00000000 
 559      00000000 
 559      00000000 
 560              	 .section .data.radarsense2gol_algorithm,"aw",%progbits
 561              	 .align 2
 562              	 .set .LANCHOR10,.+0
 565              	radarsense2gol_algorithm:
 566 0000 01       	 .byte 1
 567 0001 000000   	 .space 3
 568 0004 002D3101 	 .word 20000000
 569 0008 00       	 .byte 0
 570 0009 000000   	 .space 3
 571              	 .section .data.g_max_velocity,"aw",%progbits
 572              	 .align 2
 573              	 .set .LANCHOR5,.+0
 576              	g_max_velocity:
 577 0000 0000A041 	 .word 1101004800
 578              	 .section .bss.g_doppler_frequency,"aw",%nobits
 579              	 .align 2
 580              	 .set .LANCHOR7,.+0
 583              	g_doppler_frequency:
 584 0000 00000000 	 .space 4
 585              	 .section .data.radarsense2gol_timing,"aw",%progbits
 586              	 .align 2
 587              	 .set .LANCHOR9,.+0
 590              	radarsense2gol_timing:
 591 0000 4D010000 	 .word 333
 592 0004 2C010000 	 .word 300
 593 0008 07       	 .byte 7
 594 0009 000000   	 .space 3
 595              	 .section .data.g_uart_start,"aw",%progbits
 596              	 .set .LANCHOR3,.+0
 599              	g_uart_start:
 600 0000 01       	 .byte 1
 601              	 .section .bss.g_sampling_data_I,"aw",%nobits
 602              	 .align 2
 603              	 .set .LANCHOR0,.+0
 606              	g_sampling_data_I:
 607 0000 00000000 	 .space 256
 607      00000000 
 607      00000000 
 607      00000000 
 607      00000000 
 608              	 .section .data.g_min_velocity,"aw",%progbits
 609              	 .align 2
 610              	 .set .LANCHOR4,.+0
 613              	g_min_velocity:
 614 0000 0000003F 	 .word 1056964608
 615              	 .section .data.radarsense2gol_powerdown,"aw",%progbits
 616              	 .align 2
 617              	 .set .LANCHOR11,.+0
 620              	radarsense2gol_powerdown:
 621 0000 01       	 .byte 1
 622 0001 01       	 .byte 1
 623 0002 01       	 .byte 1
 624 0003 00       	 .section .bss.g_doppler_velocity,"aw",%nobits
 625              	 .align 2
 626              	 .set .LANCHOR8,.+0
 629              	g_doppler_velocity:
 630 0000 00000000 	 .space 4
 631              	 .section .data.g_motion,"aw",%progbits
 632              	 .set .LANCHOR6,.+0
 635              	g_motion:
 636 0000 02       	 .byte 2
 637              	 .section .bss.g_sampling_data_Q,"aw",%nobits
 638              	 .align 2
 639              	 .set .LANCHOR1,.+0
 642              	g_sampling_data_Q:
 643 0000 00000000 	 .space 256
 643      00000000 
 643      00000000 
 643      00000000 
 643      00000000 
 644              	 .text
 645              	.Letext0:
 646              	 .file 3 "c:\\infineon\\tools\\dave ide\\4.5.0.202105191637\\eclipse\\arm-gcc-49\\arm-none-eabi\\include\\machine\\_default_types.h"
 647              	 .file 4 "c:\\infineon\\tools\\dave ide\\4.5.0.202105191637\\eclipse\\arm-gcc-49\\arm-none-eabi\\include\\stdint.h"
 648              	 .file 5 "C:/Users/\261\350\260\346\271\316/Desktop/IFX_S2GL-HW-SW_V1.1.3/Firmware_Software/DAVE project/S2GL_Doppler/Libraries/CMSIS/Infineon/XMC1300_series/Include/XMC1300.h"
 649              	 .file 6 "C:/Users/\261\350\260\346\271\316/Desktop/IFX_S2GL-HW-SW_V1.1.3/Firmware_Software/DAVE project/S2GL_Doppler/Libraries/XMCLib/inc/xmc1_scu.h"
 650              	 .file 7 "C:/Users/\261\350\260\346\271\316/Desktop/IFX_S2GL-HW-SW_V1.1.3/Firmware_Software/DAVE project/S2GL_Doppler/Libraries/XMCLib/inc/xmc_ccu4.h"
 651              	 .file 8 "C:/Users/\261\350\260\346\271\316/Desktop/IFX_S2GL-HW-SW_V1.1.3/Firmware_Software/DAVE project/S2GL_Doppler/Dave/Generated/GLOBAL_CCU4/global_ccu4.h"
 652              	 .file 9 "C:/Users/\261\350\260\346\271\316/Desktop/IFX_S2GL-HW-SW_V1.1.3/Firmware_Software/DAVE project/S2GL_Doppler/Dave/Generated/TIMER/timer.h"
 653              	 .file 10 "C:/Users/\261\350\260\346\271\316/Desktop/IFX_S2GL-HW-SW_V1.1.3/Firmware_Software/DAVE project/S2GL_Doppler/Libraries/XMCLib/inc/xmc1_gpio.h"
 654              	 .file 11 "C:/Users/\261\350\260\346\271\316/Desktop/IFX_S2GL-HW-SW_V1.1.3/Firmware_Software/DAVE project/S2GL_Doppler/Dave/Generated/DIGITAL_IO/digital_io.h"
 655              	 .file 12 "C:/Users/\261\350\260\346\271\316/Desktop/IFX_S2GL-HW-SW_V1.1.3/Firmware_Software/DAVE project/S2GL_Doppler/Libraries/XMCLib/inc/xmc_usic.h"
 656              	 .file 13 "C:/Users/\261\350\260\346\271\316/Desktop/IFX_S2GL-HW-SW_V1.1.3/Firmware_Software/DAVE project/S2GL_Doppler/Dave/Generated/Dave.h"
 657              	 .file 14 "C:/Users/\261\350\260\346\271\316/Desktop/IFX_S2GL-HW-SW_V1.1.3/Firmware_Software/DAVE project/S2GL_Doppler/Libraries/S2GL_Lib/inc/s2gl_library.h"
 658              	 .file 15 "C:/Users/\261\350\260\346\271\316/Desktop/IFX_S2GL-HW-SW_V1.1.3/Firmware_Software/DAVE project/S2GL_Doppler/Libraries/CMSIS/Infineon/XMC1300_series/Include/system_XMC1300.h"
 659              	 .file 16 "C:/Users/\261\350\260\346\271\316/Desktop/IFX_S2GL-HW-SW_V1.1.3/Firmware_Software/DAVE project/S2GL_Doppler/Dave/Generated/TIMER/timer_extern.h"
 660              	 .file 17 "C:/Users/\261\350\260\346\271\316/Desktop/IFX_S2GL-HW-SW_V1.1.3/Firmware_Software/DAVE project/S2GL_Doppler/Dave/Generated/DIGITAL_IO/digital_io_extern.h"
 661              	 .file 18 "C:/Users/\261\350\260\346\271\316/Desktop/IFX_S2GL-HW-SW_V1.1.3/Firmware_Software/DAVE project/S2GL_Doppler/HostCommunication/include/HostCommUART.h"